               	add    bx,cx
    35ff:	8a 07                	mov    al,BYTE PTR [bx]
    3601:	d0 e1                	shl    cl,1
    3603:	bb bd 4c             	mov    bx,0x4cbd
    3606:	01 cb                	add    bx,cx
    3608:	8a 2f                	mov    ch,BYTE PTR [bx]
    360a:	43                   	inc    bx
    360b:	8a 3f                	mov    bh,BYTE PTR [bx]
    360d:	8a dd                	mov    bl,ch
    360f:	24 20                	and    al,0x20
    3611:	75 04                	jne    0x3617
    3613:	e8 5c df             	call   0x1572
    3616:	c3                   	ret    
    3617:	53                   	push   bx
    3618:	e8 86 fe             	call   0x34a1
    361b:	e8 83 03             	call   0x39a1
    361e:	5b                   	pop    bx
    361f:	72 03                	jb     0x3624
    3621:	e9 b9 fe             	jmp    0x34dd
    3624:	e8 4b df             	call   0x1572
    3627:	c3                   	ret    
    3628:	b0 71                	mov    al,0x71
    362a:	e9 02 00             	jmp    0x362f
    362d:	b0 72                	mov    al,0x72
    362f:	9f                   	lahf   
    3630:	86 e0                	xchg   al,ah
    3632:	50                   	push   ax
    3633:	86 e0                	xchg   al,ah
    3635:	e8 d7 ce             	call   0x50f
    3638:	58                   	pop    ax
    3639:	86 e0                	xchg   al,ah
    363b:	9e                   	sahf   
    363c:	88 06 e6 73          	mov    BYTE PTR ds:0x73e6,al
    3640:	c3                   	ret    
    3641:	53                   	push   bx
    3642:	e8 ca ce             	call   0x50f
    3645:	5b                   	pop    bx
    3646:	89 5d ff             	mov    WORD PTR [di-0x1],bx
    3649:	b0 00                	mov    al,0x0
    364b:	88 45 02             	mov    BYTE PTR [di+0x2],al
    364e:	8b 5d cd             	mov    bx,WORD PTR [di-0x33]
    3651:	43                   	inc    bx
    3652:	43                   	inc    bx
    3653:	8a 07                	mov    al,BYTE PTR [bx]
    3655:	43                   	inc    bx
    3656:	8a 3f                	mov    bh,BYTE PTR [bx]
    3658:	8a d8                	mov    bl,al
    365a:	8a 07                	mov    al,BYTE PTR [bx]
    365c:	3c f0                	cmp    al,0xf0
    365e:	75 17                	jne    0x3677
    3660:	e8 89 02             	call   0x38ec
    3663:	73 01                	jae    0x3666
    3665:	c3                   	ret    
    3666:	e8 fe 02             	call   0x3967
    3669:	72 09                	jb     0x3674
    366b:	8b 5d ff             	mov    bx,WORD PTR [di-0x1]
    366e:	e8 01 df             	call   0x1572
    3671:	e9 f2 ff             	jmp    0x3666
    3674:	e9 21 00             	jmp    0x3698
    3677:	fe 45 02             	inc    BYTE PTR [di+0x2]
    367a:	8a 45 02             	mov    al,BYTE PTR [di+0x2]
    367d:	9f                   	lahf   
    367e:	86 e0                	xchg   al,ah
    3680:	50                   	push   ax
    3681:	86 e0                	xchg   al,ah
    3683:	8b 5d ff             	mov    bx,WORD PTR [di-0x1]
    3686:	53                   	push   bx
    3687:	e8 17 fe             	call   0x34a1
    368a:	5b                   	pop    bx
    368b:	89 5d ff             	mov    WORD PTR [di-0x1],bx
    368e:	58                   	pop    ax
    368f:	86 e0                	xchg   al,ah
    3691:	9e                   	sahf   
    3692:	88 45 02             	mov    BYTE PTR [di+0x2],al
    3695:	e8 da de             	call   0x1572
    3698:	e8 06 03             	call   0x39a1
    369b:	73 b1                	jae    0x364e
    369d:	c3                   	ret    
    369e:	bb ed 07             	mov    bx,0x7ed
    36a1:	e9 9d ff             	jmp    0x3641
    36a4:	bb 69 06             	mov    bx,0x669
    36a7:	e8 97 ff             	call   0x3641
    36aa:	e8 bc ce             	call   0x569
    36ad:	8a 45 02             	mov    al,BYTE PTR [di+0x2]
    36b0:	e9 21 cf             	jmp    0x5d4
    36b3:	bb ed 07             	mov    bx,0x7ed
    36b6:	e8 88 ff             	call   0x3641
    36b9:	8a 45 02             	mov    al,BYTE PTR [di+0x2]
    36bc:	e8 15 cf             	call   0x5d4
    36bf:	e9 3c d3             	jmp    0x9fe
    36c2:	bb e9 09             	mov    bx,0x9e9
    36c5:	b0 00                	mov    al,0x0
    36c7:	53                   	push   bx
    36c8:	9f                   	lahf   
    36c9:	86 e0                	xchg   al,ah
    36cb:	50                   	push   ax
    36cc:	86 e0                	xchg   al,ah
    36ce:	e8 3e ce             	call   0x50f
    36d1:	58                   	pop    ax
    36d2:	86 e0                	xchg   al,ah
    36d4:	9e                   	sahf   
    36d5:	88 06 e9 73          	mov    BYTE PTR ds:0x73e9,al
    36d9:	b5 06                	mov    ch,0x6
    36db:	b0 63                	mov    al,0x63
    36dd:	ba e1 73             	mov    dx,0x73e1
    36e0:	8b ea                	mov    bp,dx
    36e2:	88 46 00             	mov    BYTE PTR [bp+0x0],al
    36e5:	42                   	inc    dx
    36e6:	fe cd                	dec    ch
    36e8:	75 f6                	jne    0x36e0
    36ea:	b0 3f                	mov    al,0x3f
    36ec:	88 06 ea 73          	mov    BYTE PTR ds:0x73ea,al
    36f0:	5b                   	pop    bx
    36f1:	e9 52 ff             	jmp    0x3646
    36f4:	bb f7 09             	mov    bx,0x9f7
    36f7:	b0 ff                	mov    al,0xff
    36f9:	e9 cb ff             	jmp    0x36c7
    36fc:	b0 01                	mov    al,0x1
    36fe:	e8 d3 ce             	call   0x5d4
    3701:	b0 01                	mov    al,0x1
    3703:	e8 ce ce             	call   0x5d4
    3706:	e8 98 fd             	call   0x34a1
    3709:	e8 e1 cf             	call   0x6ed
    370c:	e8 ef d2             	call   0x9fe
    370f:	e8 9c cf             	call   0x6ae
    3712:	e8 b2 cd             	call   0x4c7
    3715:	e8 89 02             	call   0x39a1
    3718:	73 03                	jae    0x371d
    371a:	e9 44 02             	jmp    0x3961
    371d:	e8 cc 01             	call   0x38ec
    3720:	73 01                	jae    0x3723
    3722:	c3                   	ret    
    3723:	e8 9d 02             	call   0x39c3
    3726:	e8 3e 02             	call   0x3967
    3729:	72 0c                	jb     0x3737
    372b:	e8 bf cf             	call   0x6ed
    372e:	e8 9a cf             	call   0x6cb
    3731:	e8 d1 d1             	call   0x905
    3734:	e9 ef ff             	jmp    0x3726
    3737:	e8 67 02             	call   0x39a1
    373a:	72 03                	jb     0x373f
    373c:	e9 22 02             	jmp    0x3961
    373f:	c3                   	ret    
    3740:	e8 5e fd             	call   0x34a1
    3743:	e8 5b 02             	call   0x39a1
    3746:	72 60                	jb     0x37a8
    3748:	e8 a1 01             	call   0x38ec
    374b:	72 5b                	jb     0x37a8
    374d:	e8 51 02             	call   0x39a1
    3750:	73 56                	jae    0x37a8
    3752:	f6 45 01 80          	test   BYTE PTR [di+0x1],0x80
    3756:	75 50                	jne    0x37a8
    3758:	e8 60 d5             	call   0xcbb
    375b:	72 01                	jb     0x375e
    375d:	c3                   	ret    
    375e:	80 65 03 7f          	and    BYTE PTR [di+0x3],0x7f
    3762:	e8 02 02             	call   0x3967
    3765:	72 21                	jb     0x3788
    3767:	e8 70 d0             	call   0x7da
    376a:	9f                   	lahf   
    376b:	86 e0                	xchg   al,ah
    376d:	50                   	push   ax
    376e:	86 e0                	xchg   al,ah
    3770:	e8 f6 cd             	call   0x569
    3773:	58                   	pop    ax
    3774:	86 e0                	xchg   al,ah
    3776:	9e                   	sahf   
    3777:	76 08                	jbe    0x3781
    3779:	8b 5d fb             	mov    bx,WORD PTR [di-0x5]
    377c:	fe 0f                	dec    BYTE PTR [bx]
    377e:	e9 07 00             	jmp    0x3788
    3781:	80 4d 03 80          	or     BYTE PTR [di+0x3],0x80
    3785:	e9 da ff             	jmp    0x3762
    3788:	e8 de cd             	call   0x569
    378b:	f6 45 03 80          	test   BYTE PTR [di+0x3],0x80
    378f:	75 0a                	jne    0x379b
    3791:	e8 7b cd             	call   0x50f
    3794:	b0 71                	mov    al,0x71
    3796:	88 06 e6 73          	mov    BYTE PTR ds:0x73e6,al
    379a:	c3                   	ret    
    379b:	8b 5d fb             	mov    bx,WORD PTR [di-0x5]
    379e:	fe 0f                	dec    BYTE PTR [bx]
    37a0:	8b 5d fd             	mov    bx,WORD PTR [di-0x3]
    37a3:	fe 07                	inc    BYTE PTR [bx]
    37a5:	e9 52 fd             	jmp    0x34fa
    37a8:	e9 b6 01             	jmp    0x3961
    37ab:	e8 b5 db             	call   0x1363
    37ae:	bb 86 14             	mov    bx,0x1486
    37b1:	89 5d ff             	mov    WORD PTR [di-0x1],bx
    37b4:	e8 8f fe             	call   0x3646
    37b7:	c3                   	ret    
    37b8:	e8 9e db             	call   0x1359
    37bb:	bb a9 14             	mov    bx,0x14a9
    37be:	89 5d ff             	mov    WORD PTR [di-0x1],bx
    37c1:	e8 82 fe             	call   0x3646
    37c4:	c3                   	ret    
    37c5:	e8 d9 fc             	call   0x34a1
    37c8:	e8 d6 01             	call   0x39a1
    37cb:	73 08                	jae    0x37d5
    37cd:	b0 72                	mov    al,0x72
    37cf:	88 06 e6 73          	mov    BYTE PTR ds:0x73e6,al
    37d3:	f9                   	stc    
    37d4:	c3                   	ret    
    37d5:	e8 4f 00             	call   0x3827
    37d8:	73 05                	jae    0x37df
    37da:	e8 fb 00             	call   0x38d8
    37dd:	f9                   	stc    
    37de:	c3                   	ret    
    37df:	8a 06 e6 73          	mov    al,BYTE PTR ds:0x73e6
    37e3:	9f                   	lahf   
    37e4:	86 e0                	xchg   al,ah
    37e6:	50                   	push   ax
    37e7:	86 e0                	xchg   al,ah
    37e9:	e8 7d cd             	call   0x569
    37ec:	58                   	pop    ax
    37ed:	86 e0                	xchg   al,ah
    37ef:	9e                   	sahf   
    37f0:	3c 73                	cmp    al,0x73
    37f2:	75 1a                	jne    0x380e
    37f4:	e8 aa fc             	call   0x34a1
    37f7:	e8 a7 01             	call   0x39a1
    37fa:	73 05                	jae    0x3801
    37fc:	e8 2e fe             	call   0x362d
    37ff:	f9                   	stc    
    3800:	c3                   	ret    
    3801:	e8 df 00             	call   0x38e3
    3804:	72 05                	jb     0x380b
    3806:	e8 24 fe             	call   0x362d
    3809:	f9                   	stc    
    380a:	c3                   	ret    
    380b:	e9 17 00             	jmp    0x3825
    380e:	e8 d2 00             	call   0x38e3
    3811:	73 05                	jae    0x3818
    3813:	e8 17 fe             	call   0x362d
    3816:	f9                   	stc    
    3817:	c3                   	ret    
    3818:	e8 86 fc             	call   0x34a1
    381b:	e8 83 01             	call   0x39a1
    381e:	72 05                	jb     0x3825
    3820:	e8 0a fe             	call   0x362d
    3823:	f9                   	stc    
    3824:	c3                   	ret    
    3825:	f8                   	clc    
    3826:	c3                   	ret    
    3827:	e8 c0 d3             	call   0xbea
    382a:	c3                   	ret    
    382b:	e8 73 fc             	call   0x34a1
    382e:	e8 70 01             	call   0x39a1
    3831:	73 08                	jae    0x383b
    3833:	e8 33 cd             	call   0x569
    3836:	e8 f4 fd             	call   0x362d
    3839:	f9                   	stc    
    383a:	c3                   	ret    
    383b:	e8 96 00             	call   0x38d4
    383e:	73 05                	jae    0x3845
    3840:	e8 95 00             	call   0x38d8
    3843:	f9                   	stc    
    3844:	c3                   	ret    
    3845:	8a 06 e9 73          	mov    al,BYTE PTR ds:0x73e9
    3849:	88 06 8d 74          	mov    BYTE PTR ds:0x748d,al
    384d:	e8 05 ce             	call   0x655
    3850:	73 08                	jae    0x385a
    3852:	e8 d3 fd             	call   0x3628
    3855:	e8 80 00             	call   0x38d8
    3858:	f9                   	stc    
    3859:	c3                   	ret    
    385a:	3c 00                	cmp    al,0x0
    385c:	74 0b                	je     0x3869
    385e:	bb 8d 74             	mov    bx,0x748d
    3861:	f6 07 80             	test   BYTE PTR [bx],0x80
    3864:	75 03                	jne    0x3869
    3866:	e9 08 00             	jmp    0x3871
    3869:	e8 bc fd             	call   0x3628
    386c:	e8 69 00             	call   0x38d8
    386f:	f9                   	stc    
    3870:	c3                   	ret    
    3871:	8a e8                	mov    ch,al
    3873:	8a 06 8b 74          	mov    al,BYTE PTR ds:0x748b
    3877:	9f                   	lahf   
    3878:	86 e0                	xchg   al,ah
    387a:	50                   	push   ax
    387b:	86 e0                	xchg   al,ah
    387d:	8a 06 8c 74          	mov    al,BYTE PTR ds:0x748c
    3881:	9f                   	lahf   
    3882:	86 e0                	xchg   al,ah
    3884:	50                   	push   ax
    3885:	86 e0                	xchg   al,ah
    3887:	8a c5                	mov    al,ch
    3889:	88 06 8b 74          	mov    BYTE PTR ds:0x748b,al
    388d:	bb 8c 74             	mov    bx,0x748c
    3890:	80 27 7f             	and    BYTE PTR [bx],0x7f
    3893:	bb b8 39             	mov    bx,0x39b8
    3896:	89 5d ff             	mov    WORD PTR [di-0x1],bx
    3899:	e8 aa fd             	call   0x3646
    389c:	bb 8c 74             	mov    bx,0x748c
    389f:	f6 07 80             	test   BYTE PTR [bx],0x80
    38a2:	75 03                	jne    0x38a7
    38a4:	e8 81 fd             	call   0x3628
    38a7:	58                   	pop    ax
    38a8:	86 e0                	xchg   al,ah
    38aa:	9e                   	sahf   
    38ab:	88 06 8c 74          	mov    BYTE PTR ds:0x748c,al
    38af:	58                   	pop    ax
    38b0:	86 e0                	xchg   al,ah
    38b2:	9e                   	sahf   
    38b3:	88 06 8b 74          	mov    BYTE PTR ds:0x748b,al
    38b7:	c3                   	ret    
    38b8:	bb 8c 74             	mov    bx,0x748c
    38bb:	f6 07 80             	test   BYTE PTR [bx],0x80
    38be:	74 03                	je     0x38c3
    38c0:	e9 a6 cc             	jmp    0x569
    38c3:	bb 8b 74             	mov    bx,0x748b
    38c6:	fe 0f                	dec    BYTE PTR [bx]
    38c8:	74 03                	je     0x38cd
    38ca:	e9 9c cc             	jmp    0x569
    38cd:	bb 8c 74             	mov    bx,0x748c
    38d0:	80 0f 80             	or     BYTE PTR [bx],0x80
    38d3:	c3                   	ret    
    38d4:	e8 f3 d2             	call   0xbca
    38d7:	c3                   	ret    
    38d8:	bb 69 06             	mov    bx,0x669
    38db:	89 5d ff             	mov    WORD PTR [di-0x1],bx
    38de:	e8 65 fd             	call   0x3646
    38e1:	f8                   	clc    
    38e2:	c3                   	ret    
    38e3:	e8 bb fb             	call   0x34a1
    38e6:	e8 80 cc             	call   0x569
    38e9:	e9 b5 00             	jmp    0x39a1
    38ec:	e8 ef 00             	call   0x39de
    38ef:	e8 91 1f             	call   0x5883
    38f2:	72 6d                	jb     0x3961
    38f4:	8b 5c 28             	mov    bx,WORD PTR [si+0x28]
    38f7:	89 5c 3c             	mov    WORD PTR [si+0x3c],bx
    38fa:	e8 e7 fb             	call   0x34e4
    38fd:	e8 d2 e0             	call   0x19d2
    3900:	3c f0                	cmp    al,0xf0
    3902:	75 5d                	jne    0x3961
    3904:	e8 dd fb             	call   0x34e4
    3907:	e8 d4 00             	call   0x39de
    390a:	e8 76 1f             	call   0x5883
    390d:	72 52                	jb     0x3961
    390f:	8b 5c 28             	mov    bx,WORD PTR [si+0x28]
    3912:	89 5c 3e             	mov    WORD PTR [si+0x3e],bx
    3915:	e8 cc fb             	call   0x34e4
    3918:	8a 44 3e             	mov    al,BYTE PTR [si+0x3e]
    391b:	3a 44 3c             	cmp    al,BYTE PTR [si+0x3c]
    391e:	75 0f                	jne    0x392f
    3920:	bb 36 6d             	mov    bx,0x6d36
    3923:	ba 35 6d             	mov    dx,0x6d35
    3926:	8a 6c 3f             	mov    ch,BYTE PTR [si+0x3f]
    3929:	be 0e 6d             	mov    si,0x6d0e
    392c:	e9 0c 00             	jmp    0x393b
    392f:	bb 35 6d             	mov    bx,0x6d35
    3932:	ba 36 6d             	mov    dx,0x6d36
    3935:	8a 6c 3e             	mov    ch,BYTE PTR [si+0x3e]
    3938:	be 0d 6d             	mov    si,0x6d0d
    393b:	88 6d 04             	mov    BYTE PTR [di+0x4],ch
    393e:	89 5d fb             	mov    WORD PTR [di-0x5],bx
    3941:	89 55 fd             	mov    WORD PTR [di-0x3],dx
    3944:	8a 44 3c             	mov    al,BYTE PTR [si+0x3c]
    3947:	3a 44 3e             	cmp    al,BYTE PTR [si+0x3e]
    394a:	72 05                	jb     0x3951
    394c:	b0 ff                	mov    al,0xff
    394e:	e9 02 00             	jmp    0x3953
    3951:	b0 01                	mov    al,0x1
    3953:	88 45 01             	mov    BYTE PTR [di+0x1],al
    3956:	be 0d 6d             	mov    si,0x6d0d
    3959:	8b 5c 3c             	mov    bx,WORD PTR [si+0x3c]
    395c:	89 5c 28             	mov    WORD PTR [si+0x28],bx
    395f:	f8                   	clc    
    3960:	c3                   	ret    
    3961:	e8 50 cc             	call   0x5b4
    3964:	e9 76 fb             	jmp    0x34dd
    3967:	8b 5d fb             	mov    bx,WORD PTR [di-0x5]
    396a:	8a 07                	mov    al,BYTE PTR [bx]
    396c:	f6 45 01 80          	test   BYTE PTR [di+0x1],0x80
    3970:	74 0c                	je     0x397e
    3972:	3a 45 04             	cmp    al,BYTE PTR [di+0x4]
    3975:	73 02                	jae    0x3979
    3977:	f9                   	stc    
    3978:	c3                   	ret    
    3979:	b0 ff                	mov    al,0xff
    397b:	e9 09 00             	jmp    0x3987
    397e:	3a 45 04             	cmp    al,BYTE PTR [di+0x4]
    3981:	76 02                	jbe    0x3985
    3983:	f9                   	stc    
    3984:	c3                   	ret    
    3985:	b0 01                	mov    al,0x1
    3987:	9f                   	lahf   
    3988:	86 e0                	xchg   al,ah
    398a:	50                   	push   ax
    398b:	86 e0                	xchg   al,ah
    398d:	53                   	push   bx
    398e:	e8 69 fb             	call   0x34fa
    3991:	72 03                	jb     0x3996
    3993:	fe 45 02             	inc    BYTE PTR [di+0x2]
    3996:	5b                   	pop    bx
    3997:	58                   	pop    ax
    3998:	86 e0                	xchg   al,ah
    399a:	9e                   	sahf   
    399b:	02 07                	add    al,BYTE PTR [bx]
    399d:	88 07                	mov    BYTE PTR [bx],al
    399f:	f8                   	clc    
    39a0:	c3                   	ret    
    39a1:	e8 2e e0             	call   0x19d2
    39a4:	f6 c0 10             	test   al,0x10
    39a7:	75 06                	jne    0x39af
    39a9:	e8 6c 00             	call   0x3a18
    39ac:	e9 02 00             	jmp    0x39b1
    39af:	f9                   	stc    
    39b0:	c3                   	ret    
    39b1:	3c 0a                	cmp    al,0xa
    39b3:	75 05                	jne    0x39ba
    39b5:	e8 2c fb             	call   0x34e4
    39b8:	f8                   	clc    
    39b9:	c3                   	ret    
    39ba:	3c 09                	cmp    al,0x9
    39bc:	75 03                	jne    0x39c1
    39be:	e8 23 fb             	call   0x34e4
    39c1:	f9                   	stc    
    39c2:	c3                   	ret    
    39c3:	c6 45 8b 02          	mov    BYTE PTR [di-0x75],0x2
    39c7:	8a 44 3c             	mov    al,BYTE PTR [si+0x3c]
    39ca:	8a 6c 3e             	mov    ch,BYTE PTR [si+0x3e]
    39cd:	88 44 3e             	mov    BYTE PTR [si+0x3e],al
    39d0:	88 6c 3c             	mov    BYTE PTR [si+0x3c],ch
    39d3:	46                   	inc    si
    39d4:	fe 4d 8b             	dec    BYTE PTR [di-0x75]
    39d7:	75 ee                	jne    0x39c7
    39d9:	4e                   	dec    si
    39da:	4e                   	dec    si
    39db:	e9 3a ff             	jmp    0x3918
    39de:	8b 5d cd             	mov    bx,WORD PTR [di-0x33]
    39e1:	8a 07                	mov    al,BYTE PTR [bx]
    39e3:	43                   	inc    bx
    39e4:	8a 3f                	mov    bh,BYTE PTR [bx]
    39e6:	8a d8                	mov    bl,al
    39e8:	c3                   	ret    
    39e9:	f6 45 a1 80          	test   BYTE PTR [di-0x5f],0x80
    39ed:	74 01                	je     0x39f0
    39ef:	c3                   	ret    
    39f0:	e8 60 1d             	call   0x5753
    39f3:	e8 f4 ef             	call   0x29ea
    39f6:	b7 00                	mov    bh,0x0
    39f8:	b3 4f                	mov    bl,0x4f
    39fa:	b0 21                	mov    al,0x21
    39fc:	53                   	push   bx
    39fd:	e8 04 2f             	call   0x6904
    3a00:	bb 0f 3b             	mov    bx,0x3b0f
    3a03:	e8 e9 0d             	call   0x47ef
    3a06:	5b                   	pop    bx
    3a07:	b0 20                	mov    al,0x20
    3a09:	e8 0c 2f             	call   0x6918
    3a0c:	e9 b0 ef             	jmp    0x29bf
    3a0f:	e8 81 09             	call   0x4393
    3a12:	e8 bd 0b             	call   0x45d2
    3a15:	e9 f3 df             	jmp    0x1a0b
    3a18:	24 0f                	and    al,0xf
    3a1a:	3c 0f                	cmp    al,0xf
    3a1c:	75 0f                	jne    0x3a2d
    3a1e:	8b 5d cd             	mov    bx,WORD PTR [di-0x33]
    3a21:	8a 17                	mov    dl,BYTE PTR [bx]
    3a23:	43                   	inc    bx
    3a24:	8a 37                	mov    dh,BYTE PTR [bx]
    3a26:	4b                   	dec    bx
    3a27:	42                   	inc    dx
    3a28:	8b ea                	mov    bp,dx
    3a2a:	8a 46 00             	mov    al,BYTE PTR [bp+0x0]
    3a2d:	c3                   	ret    
    3a2e:	e8 38 dd             	call   0x1769
    3a31:	e8 f6 00             	call   0x3b2a
    3a34:	73 01                	jae    0x3a37
    3a36:	c3                   	ret    
    3a37:	9f                   	lahf   
    3a38:	86 e0                	xchg   al,ah
    3a3a:	50                   	push   ax
    3a3b:	86 e0                	xchg   al,ah
    3a3d:	e8 9e 1b             	call   0x55de
    3a40:	0d 50 3b             	or     ax,0x3b50
    3a43:	3a 50 3b             	cmp    dl,BYTE PTR [bx+si+0x3b]
    3a46:	ff                   	(bad)  
    3a47:	e8 1f dd             	call   0x1769
    3a4a:	58                   	pop    ax
    3a4b:	86 e0                	xchg   al,ah
    3a4d:	9e                   	sahf   
    3a4e:	f9                   	stc    
    3a4f:	c3                   	ret    
    3a50:	e8 16 dd             	call   0x1769
    3a53:	58                   	pop    ax
    3a54:	86 e0                	xchg   al,ah
    3a56:	9e                   	sahf   
    3a57:	f8                   	clc    
    3a58:	c3                   	ret    
    3a59:	e8 0d 00             	call   0x3a69
    3a5c:	e9 77 ce             	jmp    0x8d6
    3a5f:	e8 7c 1b             	call   0x55de
    3a62:	2d 59 3b             	sub    ax,0x3b59
    3a65:	2b 69 3b             	sub    bp,WORD PTR [bx+di+0x3b]
    3a68:	ff                   	(bad)  
    3a69:	e8 5f 00             	call   0x3acb
    3a6c:	73 01                	jae    0x3a6f
    3a6e:	c3                   	ret    
    3a6f:	e8 ec c6             	call   0x15e
    3a72:	3c 44                	cmp    al,0x44
    3a74:	74 04                	je     0x3a7a
    3a76:	3c 45                	cmp    al,0x45
    3a78:	75 4f                	jne    0x3ac9
    3a7a:	e8 d2 da             	call   0x154f
    3a7d:	e8 ca c6             	call   0x14a
    3a80:	e8 5b 1b             	call   0x55de
    3a83:	2d 98 3b             	sub    ax,0x3b98
    3a86:	2b a8 3b 82          	sub    bp,WORD PTR [bx+si-0x7dc5]
    3a8a:	ab                   	stos   WORD PTR es:[di],ax
    3a8b:	3b 1b                	cmp    bx,WORD PTR [bp+di]
    3a8d:	93                   	xchg   bx,ax
    3a8e:	3b ff                	cmp    di,di
    3a90:	e8 9f 1c             	call   0x5732
    3a93:	e8 d3 ca             	call   0x569
    3a96:	f9                   	stc    
    3a97:	c3                   	ret    
    3a98:	e8 b4 da             	call   0x154f
    3a9b:	e8 8c 00             	call   0x3b2a
    3a9e:	73 03                	jae    0x3aa3
    3aa0:	e9 f0 ff             	jmp    0x3a93
    3aa3:	f6 d8                	neg    al
    3aa5:	e9 0b 00             	jmp    0x3ab3
    3aa8:	e8 a4 da             	call   0x154f
    3aab:	e8 7c 00             	call   0x3b2a
    3aae:	73 03                	jae    0x3ab3
    3ab0:	e9 e0 ff             	jmp    0x3a93
    3ab3:	9f                   	lahf   
    3ab4:	86 e0                	xchg   al,ah
    3ab6:	50                   	push   ax
    3ab7:	86 e0                	xchg   al,ah
    3ab9:	e8 17 01             	call   0x3bd3
    3abc:	58                   	pop    ax
    3abd:	86 e0                	xchg   al,ah
    3abf:	9e                   	sahf   
    3ac0:	02 45 09             	add    al,BYTE PTR [di+0x9]
    3ac3:	88 45 09             	mov    BYTE PTR [di+0x9],al
    3ac6:	e8 8e 00             	call   0x3b57
    3ac9:	f8                   	clc    
    3aca:	c3                   	ret    
    3acb:	bb fb 4c             	mov    bx,0x4cfb
    3ace:	e8 72 1b             	call   0x5643
    3ad1:	73 01                	jae    0x3ad4
    3ad3:	c3                   	ret    
    3ad4:	e8 38 ca             	call   0x50f
    3ad7:	e8 5d 00             	call   0x3b37
    3ada:	e8 d1 1b             	call   0x56ae
    3add:	72 46                	jb     0x3b25
    3adf:	3c 2e                	cmp    al,0x2e
    3ae1:	75 07                	jne    0x3aea
    3ae3:	80 4d 19 80          	or     BYTE PTR [di+0x19],0x80
    3ae7:	e9 f0 ff             	jmp    0x3ada
    3aea:	24 0f                	and    al,0xf
    3aec:	75 15                	jne    0x3b03
    3aee:	8a 45 0c             	mov    al,BYTE PTR [di+0xc]
    3af1:	3c 0c                	cmp    al,0xc
    3af3:	75 0c                	jne    0x3b01
    3af5:	f6 45 19 80          	test   BYTE PTR [di+0x19],0x80
    3af9:	74 03                	je     0x3afe
    3afb:	fe 4d 09             	dec    BYTE PTR [di+0x9]
    3afe:	e9 d9 ff             	jmp    0x3ada
    3b01:	b0 00                	mov    al,0x0
    3b03:	f6 45 19 80          	test   BYTE PTR [di+0x19],0x80
    3b07:	75 03                	jne    0x3b0c
    3b09:	fe 45 09             	inc    BYTE PTR [di+0x9]
    3b0c:	8a e8                	mov    ch,al
    3b0e:	fe 4d 0c             	dec    BYTE PTR [di+0xc]
    3b11:	78 0c                	js     0x3b1f
    3b13:	8b 5d 0a             	mov    bx,WORD PTR [di+0xa]
    3b16:	88 2f                	mov    BYTE PTR [bx],ch
    3b18:	43                   	inc    bx
    3b19:	89 5d 0a             	mov    WORD PTR [di+0xa],bx
    3b1c:	e9 03 00             	jmp    0x3b22
    3b1f:	fe 45 0c             	inc    BYTE PTR [di+0xc]
    3b22:	e9 b5 ff             	jmp    0x3ada
    3b25:	e8 2f 00             	call   0x3b57
    3b28:	f8                   	clc    
    3b29:	c3                   	ret    
    3b2a:	bb fe 4c             	mov    bx,0x4cfe
    3b2d:	e8 9e ff             	call   0x3ace
    3b30:	73 01                	jae    0x3b33
    3b32:	c3                   	ret    
    3b33:	e8 1f cb             	call   0x655
    3b36:	c3                   	ret    
    3b37:	b5 13                	mov    ch,0x13
    3b39:	e8 0e 00             	call   0x3b4a
    3b3c:	b0 0c                	mov    al,0xc
    3b3e:	88 45 0c             	mov    BYTE PTR [di+0xc],al
    3b41:	bb f2 6c             	mov    bx,0x6cf2
    3b44:	89 5d 0a             	mov    WORD PTR [di+0xa],bx
    3b47:	c3                   	ret    
    3b48:	b5 1f                	mov    ch,0x1f
    3b4a:	bb ee 6c             	mov    bx,0x6cee
    3b4d:	b0 00                	mov    al,0x0
    3b4f:	88 07                	mov    BYTE PTR [bx],al
    3b51:	43                   	inc    bx
    3b52:	fe cd                	dec    ch
    3b54:	75 f9                	jne    0x3b4f
    3b56:	c3                   	ret    
    3b57:	e8 6d c9             	call   0x4c7
    3b5a:	8a 45 09             	mov    al,BYTE PTR [di+0x9]
    3b5d:	f6 c0 01             	test   al,0x1
    3b60:	74 43                	je     0x3ba5
    3b62:	8a 45 0d             	mov    al,BYTE PTR [di+0xd]
    3b65:	08 c0                	or     al,al
    3b67:	75 1c                	jne    0x3b85
    3b69:	fe 4d 09             	dec    BYTE PTR [di+0x9]
    3b6c:	bb f3 6c             	mov    bx,0x6cf3
    3b6f:	ba f2 6c             	mov    dx,0x6cf2
    3b72:	b9 0b 00             	mov    cx,0xb
    3b75:	9c                   	pushf  
    3b76:	87 f3                	xchg   bx,si
    3b78:	87 fa                	xchg   dx,di
    3b7a:	fc                   	cld    
    3b7b:	f3 a4                	rep movs BYTE PTR es:[di],BYTE PTR ds:[si]
    3b7d:	87 f3                	xchg   bx,si
    3b7f:	87 fa                	xchg   dx,di
    3b81:	9d                   	popf   
    3b82:	e9 1b 00             	jmp    0x3ba0
    3b85:	fe 45 09             	inc    BYTE PTR [di+0x9]
    3b88:	bb fc 6c             	mov    bx,0x6cfc
    3b8b:	ba fd 6c             	mov    dx,0x6cfd
    3b8e:	b9 0b 00             	mov    cx,0xb
    3b91:	9c                   	pushf  
    3b92:	87 f3                	xchg   bx,si
    3b94:	87 fa                	xchg   dx,di
    3b96:	fd                   	std    
    3b97:	f3 a4                	rep movs BYTE PTR es:[di],BYTE PTR ds:[si]
    3b99:	87 f3                	xchg   bx,si
    3b9b:	87 fa                	xchg   dx,di
    3b9d:	9d                   	popf   
    3b9e:	b0 00                	mov    al,0x0
    3ba0:	8b ea                	mov    bp,dx
    3ba2:	88 46 00             	mov    BYTE PTR [bp+0x0],al
    3ba5:	8a 45 09             	mov    al,BYTE PTR [di+0x9]
    3ba8:	d0 f8                	sar    al,1
    3baa:	88 06 ea 73          	mov    BYTE PTR ds:0x73ea,al
    3bae:	b5 06                	mov    ch,0x6
    3bb0:	bb f2 6c             	mov    bx,0x6cf2
    3bb3:	ba e6 73             	mov    dx,0x73e6
    3bb6:	8a 07                	mov    al,BYTE PTR [bx]
    3bb8:	d0 e0                	shl    al,1
    3bba:	8a c8                	mov    cl,al
    3bbc:	d0 e0                	shl    al,1
    3bbe:	d0 e0                	shl    al,1
    3bc0:	00 c8                	add    al,cl
    3bc2:	43                   	inc    bx
    3bc3:	02 07                	add    al,BYTE PTR [bx]
    3bc5:	43                   	inc    bx
    3bc6:	8b ea                	mov    bp,dx
    3bc8:	88 46 00             	mov    BYTE PTR [bp+0x0],al
    3bcb:	4a                   	dec    dx
    3bcc:	fe cd                	dec    ch
    3bce:	75 e6                	jne    0x3bb6
    3bd0:	e9 73 cc             	jmp    0x846
    3bd3:	e8 61 ff             	call   0x3b37
    3bd6:	ba e6 73             	mov    dx,0x73e6
    3bd9:	bb f2 6c             	mov    bx,0x6cf2
    3bdc:	b1 06                	mov    cl,0x6
    3bde:	8b ea                	mov    bp,dx
    3be0:	8a 46 00             	mov    al,BYTE PTR [bp+0x0]
    3be3:	4a                   	dec    dx
    3be4:	b5 00                	mov    ch,0x0
    3be6:	2c 0a                	sub    al,0xa
    3be8:	78 05                	js     0x3bef
    3bea:	fe c5                	inc    ch
    3bec:	e9 f7 ff             	jmp    0x3be6
    3bef:	04 0a                	add    al,0xa
    3bf1:	88 2f                	mov    BYTE PTR [bx],ch
    3bf3:	43                   	inc    bx
    3bf4:	88 07                	mov    BYTE PTR [bx],al
    3bf6:	43                   	inc    bx
    3bf7:	fe c9                	dec    cl
    3bf9:	7f e3                	jg     0x3bde
    3bfb:	8a 06 ea 73          	mov    al,BYTE PTR ds:0x73ea
    3bff:	00 c0                	add    al,al
    3c01:	88 45 09             	mov    BYTE PTR [di+0x9],al
    3c04:	8a 45 0d             	mov    al,BYTE PTR [di+0xd]
    3c07:	08 c0                	or     al,al
    3c09:	75 25                	jne    0x3c30
    3c0b:	8a 45 0e             	mov    al,BYTE PTR [di+0xe]
    3c0e:	08 c0                	or     al,al
    3c10:	74 1e                	je     0x3c30
    3c12:	bb f3 6c             	mov    bx,0x6cf3
    3c15:	ba f2 6c             	mov    dx,0x6cf2
    3c18:	b9 0b 00             	mov    cx,0xb
    3c1b:	9c                   	pushf  
    3c1c:	87 f3                	xchg   bx,si
    3c1e:	87 fa                	xchg   dx,di
    3c20:	fc                   	cld    
    3c21:	f3 a4                	rep movs BYTE PTR es:[di],BYTE PTR ds:[si]
    3c23:	87 f3                	xchg   bx,si
    3c25:	87 fa                	xchg   dx,di
    3c27:	9d                   	popf   
    3c28:	b0 00                	mov    al,0x0
    3c2a:	88 45 18             	mov    BYTE PTR [di+0x18],al
    3c2d:	fe 4d 09             	dec    BYTE PTR [di+0x9]
    3c30:	c3                   	ret    
    3c31:	e8 65 db             	call   0x1799
    3c34:	e8 1f dd             	call   0x1956
    3c37:	e8 19 00             	call   0x3c53
    3c3a:	72 0d                	jb     0x3c49
    3c3c:	e8 9f 19             	call   0x55de
    3c3f:	0d 4e 3d             	or     ax,0x3d4e
    3c42:	3a 4e 3d             	cmp    cl,BYTE PTR [bp+0x3d]
    3c45:	ff                   	(bad)  
    3c46:	e8 e9 1a             	call   0x5732
    3c49:	e8 1d db             	call   0x1769
    3c4c:	f9                   	stc    
    3c4d:	c3                   	ret    
    3c4e:	e8 18 db             	call   0x1769
    3c51:	f8                   	clc    
    3c52:	c3                   	ret    
    3c53:	e8 6f 1b             	call   0x57c5
    3c56:	e8 1c 00             	call   0x3c75
    3c59:	9f                   	lahf   
    3c5a:	86 e0                	xchg   al,ah
    3c5c:	50                   	push   ax
    3c5d:	86 e0                	xchg   al,ah
    3c5f:	8b 5c 28             	mov    bx,WORD PTR [si+0x28]
    3c62:	89 5c 32             	mov    WORD PTR [si+0x32],bx
    3c65:	e8 5d 1b             	call   0x57c5
    3c68:	e8 28 07             	call   0x4393
    3c6b:	58                   	pop    ax
    3c6c:	86 e0                	xchg   al,ah
    3c6e:	9e                   	sahf   
    3c6f:	73 03                	jae    0x3c74
    3c71:	e8 cc 1a             	call   0x5740
    3c74:	c3                   	ret    
    3c75:	e8 66 19             	call   0x55de
    3c78:	80 f9 3d             	cmp    cl,0x3d
    3c7b:	81 89 3d 3e 75 3d    	or     WORD PTR [bx+di+0x3e3d],0x3d75
    3c81:	fd                   	std    
    3c82:	3b f9                	cmp    di,cx
    3c84:	3d 1b 38             	cmp    ax,0x381b
    3c87:	58                   	pop    ax
    3c88:	fe                   	(bad)  
    3c89:	e8 d2 c4             	call   0x15e
    3c8c:	e8 c0 d8             	call   0x154f
    3c8f:	2c 40                	sub    al,0x40
    3c91:	88 44 29             	mov    BYTE PTR [si+0x29],al
    3c94:	e8 ad c4             	call   0x144
    3c97:	8a 45 aa             	mov    al,BYTE PTR [di-0x56]
    3c9a:	3c 01                	cmp    al,0x1
    3c9c:	75 2f                	jne    0x3ccd
    3c9e:	8a 45 a9             	mov    al,BYTE PTR [di-0x57]
    3ca1:	e8 ab d8             	call   0x154f
    3ca4:	8a 44 29             	mov    al,BYTE PTR [si+0x29]
    3ca7:	3c 03                	cmp    al,0x3
    3ca9:	72 03                	jb     0x3cae
    3cab:	e9 87 1a             	jmp    0x5735
    3cae:	bb f2 3d             	mov    bx,0x3df2
    3cb1:	8a d0                	mov    dl,al
    3cb3:	b6 00                	mov    dh,0x0
    3cb5:	01 d3                	add    bx,dx
    3cb7:	8a 37                	mov    dh,BYTE PTR [bx]
    3cb9:	8a 45 a9             	mov    al,BYTE PTR [di-0x57]
    3cbc:	2c 40                	sub    al,0x40
    3cbe:	00 f0                	add    al,dh
    3cc0:	3c 40                	cmp    al,0x40
    3cc2:	72 03                	jb     0x3cc7
    3cc4:	e9 6e 1a             	jmp    0x5735
    3cc7:	88 44 29             	mov    BYTE PTR [si+0x29],al
    3cca:	e8 77 c4             	call   0x144
    3ccd:	e8 5a fe             	call   0x3b2a
    3cd0:	73 03                	jae    0x3cd5
    3cd2:	e9 60 1a             	jmp    0x5735
    3cd5:	88 44 28             	mov    BYTE PTR [si+0x28],al
    3cd8:	08 c0                	or     al,al
    3cda:	75 03                	jne    0x3cdf
    3cdc:	e9 56 1a             	jmp    0x5735
    3cdf:	3c ff                	cmp    al,0xff
    3ce1:	72 03                	jb     0x3ce6
    3ce3:	e9 4f 1a             	jmp    0x5735
    3ce6:	8a 45 a9             	mov    al,BYTE PTR [di-0x57]
    3ce9:	3c 1b                	cmp    al,0x1b
    3ceb:	75 03                	jne    0x3cf0
    3ced:	e9 45 1a             	jmp    0x5735
    3cf0:	f8                   	clc    
    3cf1:	c3                   	ret    
    3cf2:	00 1a                	add    BYTE PTR [bp+si],bl
    3cf4:	34 4e                	xor    al,0x4e
    3cf6:	68 82 9c             	push   0x9c82
    3cf9:	80 65 b7 7f          	and    BYTE PTR [di-0x49],0x7f
    3cfd:	e8 03 db             	call   0x1803
    3d00:	e8 9c df             	call   0x1c9f
    3d03:	e8 00 ee             	call   0x2b06
    3d06:	e8 55 c4             	call   0x15e
    3d09:	e8 de ec             	call   0x29ea
    3d0c:	e8 cf 18             	call   0x55de
    3d0f:	3b 20                	cmp    sp,WORD PTR [bx+si]
    3d11:	3e 1b 1b             	sbb    bx,WORD PTR ds:[bp+di]
    3d14:	3e 80 26 3e ff f8    	and    BYTE PTR ds:0xff3e,0xf8
    3d1a:	c3                   	ret    
    3d1b:	e8 db df             	call   0x1cf9
    3d1e:	f9                   	stc    
    3d1f:	c3                   	ret    
    3d20:	e8 24 1f             	call   0x5c47
    3d23:	e9 06 00             	jmp    0x3d2c
    3d26:	e8 c0 e3             	call   0x20e9
    3d29:	e9 00 00             	jmp    0x3d2c
    3d2c:	e9 ce ff             	jmp    0x3cfd
    3d2f:	e8 24 dc             	call   0x1956
    3d32:	e8 a9 18             	call   0x55de
    3d35:	1b 38                	sbb    di,WORD PTR [bx+si]
    3d37:	58                   	pop    ax
    3d38:	ff                   	(bad)  
    3d39:	e8 4d e0             	call   0x1d89
    3d3c:	73 06                	jae    0x3d44
    3d3e:	e8 5e df             	call   0x1c9f
    3d41:	e9 ee ff             	jmp    0x3d32
    3d44:	e8 bc e0             	call   0x1e03
    3d47:	8b 5c 28             	mov    bx,WORD PTR [si+0x28]
    3d4a:	89 5c 34             	mov    WORD PTR [si+0x34],bx
    3d4d:	e8 8e 18             	call   0x55de
    3d50:	0d 83 3e             	or     ax,0x3e83
    3d53:	3a 83 3e 2e          	cmp    al,BYTE PTR [bp+di+0x2e3e]
    3d57:	5d                   	pop    bp
    3d58:	3e 1b a9 3e ff       	sbb    bp,WORD PTR ds:[bx+di-0xc2]
    3d5d:	e8 c1 e0             	call   0x1e21
    3d60:	73 06                	jae    0x3d68
    3d62:	e8 68 df             	call   0x1ccd
    3d65:	e9 dc ff             	jmp    0x3d44
    3d68:	e8 73 18             	call   0x55de
    3d6b:	0d 75 3e             	or     ax,0x3e75
    3d6e:	3a 75 3e             	cmp    dh,BYTE PTR [di+0x3e]
    3d71:	1b 7a 3e             	sbb    di,WORD PTR [bp+si+0x3e]
    3d74:	ff                   	(bad)  
    3d75:	e8 4d 1a             	call   0x57c5
    3d78:	f8                   	clc    
    3d79:	c3                   	ret    
    3d7a:	e8 50 df             	call   0x1ccd
    3d7d:	e8 4d df             	call   0x1ccd
    3d80:	e9 c1 ff             	jmp    0x3d44
    3d83:	b0 f0                	mov    al,0xf0
    3d85:	e8 18 dc             	call   0x19a0
    3d88:	e8 a0 df             	call   0x1d2b
    3d8b:	c6 45 8b 02          	mov    BYTE PTR [di-0x75],0x2
    3d8f:	8a 44 34             	mov    al,BYTE PTR [si+0x34]
    3d92:	88 44 32             	mov    BYTE PTR [si+0x32],al
    3d95:	88 44 36             	mov    BYTE PTR [si+0x36],al
    3d98:	46                   	inc    si
    3d99:	fe 4d 8b             	dec    BYTE PTR [di-0x75]
    3d9c:	75 f1                	jne    0x3d8f
    3d9e:	4e                   	dec    si
    3d9f:	4e                   	dec    si
    3da0:	e8 ef df             	call   0x1d92
    3da3:	e8 18 00             	call   0x3dbe
    3da6:	e9 cc ff             	jmp    0x3d75
    3da9:	e8 21 df             	call   0x1ccd
    3dac:	e9 83 ff             	jmp    0x3d32
    3daf:	e8 a4 db             	call   0x1956
    3db2:	8b 5c 28             	mov    bx,WORD PTR [si+0x28]
    3db5:	89 5c 32             	mov    WORD PTR [si+0x32],bx
    3db8:	e8 d7 df             	call   0x1d92
    3dbb:	e9 86 ff             	jmp    0x3d44
    3dbe:	80 65 e4 7f          	and    BYTE PTR [di-0x1c],0x7f
    3dc2:	8b 4c 34             	mov    cx,WORD PTR [si+0x34]
    3dc5:	8b 54 36             	mov    dx,WORD PTR [si+0x36]
    3dc8:	8a c5                	mov    al,ch
    3dca:	38 f0                	cmp    al,dh
    3dcc:	75 18                	jne    0x3de6
    3dce:	8a c1                	mov    al,cl
    3dd0:	38 d0                	cmp    al,dl
    3dd2:	72 0a                	jb     0x3dde
    3dd4:	80 4d e4 80          	or     BYTE PTR [di-0x1c],0x80
    3dd8:	88 4c 36             	mov    BYTE PTR [si+0x36],cl
    3ddb:	88 54 34             	mov    BYTE PTR [si+0x34],dl
    3dde:	bb 0d 6d             	mov    bx,0x6d0d
    3de1:	89 5d e0             	mov    WORD PTR [di-0x20],bx
    3de4:	f8                   	clc    
    3de5:	c3                   	ret    
    3de6:	8a c1                	mov    al,cl
    3de8:	38 d0                	cmp    al,dl
    3dea:	75 18                	jne    0x3e04
    3dec:	8a c5                	mov    al,ch
    3dee:	38 f0                	cmp    al,dh
    3df0:	72 0a                	jb     0x3dfc
    3df2:	80 4d e4 80          	or     BYTE PTR [di-0x1c],0x80
    3df6:	88 6c 37             	mov    BYTE PTR [si+0x37],ch
    3df9:	88 74 35             	mov    BYTE PTR [si+0x35],dh
    3dfc:	bb 0e 6d             	mov    bx,0x6d0e
    3dff:	89 5d e0             	mov    WORD PTR [di-0x20],bx
    3e02:	f8                   	clc    
    3e03:	c3                   	ret    
    3e04:	f9                   	stc    
    3e05:	c3                   	ret    
    3e06:	8b 5d 84             	mov    bx,WORD PTR [di-0x7c]
    3e09:	8a c7                	mov    al,bh
    3e0b:	08 c0                	or     al,al
    3e0d:	75 01                	jne    0x3e10
    3e0f:	c3                   	ret    
    3e10:	8a 07                	mov    al,BYTE PTR [bx]
    3e12:	24 fe                	and    al,0xfe
    3e14:	8a d0                	mov    dl,al
    3e16:	c6 07 00             	mov    BYTE PTR [bx],0x0
    3e19:	43                   	inc    bx
    3e1a:	8a 37                	mov    dh,BYTE PTR [bx]
    3e1c:	c6 07 00             	mov    BYTE PTR [bx],0x0
    3e1f:	89 16 8e 74          	mov    WORD PTR ds:0x748e,dx
    3e23:	e8 07 00             	call   0x3e2d
    3e26:	73 fb                	jae    0x3e23
    3e28:	8e 06 90 72          	mov    es,WORD PTR ds:0x7290
    3e2c:	c3                   	ret    
    3e2d:	be 0d 6d             	mov    si,0x6d0d
    3e30:	8a 06 8e 74          	mov    al,BYTE PTR ds:0x748e
    3e34:	24 f0                	and    al,0xf0
    3e36:	0a 06 8f 74          	or     al,BYTE PTR ds:0x748f
    3e3a:	74 0f                	je     0x3e4b
    3e3c:	8b 1e 8e 74          	mov    bx,WORD PTR ds:0x748e
    3e40:	80 e3 fe             	and    bl,0xfe
    3e43:	89 1e 8e 74          	mov    WORD PTR ds:0x748e,bx
    3e47:	d1 eb                	shr    bx,1
    3e49:	8e c3                	mov    es,bx
    3e4b:	8a 06 8e 74          	mov    al,BYTE PTR ds:0x748e
    3e4f:	24 f0                	and    al,0xf0
    3e51:	0a 06 8f 74          	or     al,BYTE PTR ds:0x748f
    3e55:	75 02                	jne    0x3e59
    3e57:	f9                   	stc    
    3e58:	c3                   	ret    
    3e59:	8b 16 8e 74          	mov    dx,WORD PTR ds:0x748e
    3e5d:	52                   	push   dx
    3e5e:	e8 2d 01             	call   0x3f8e
    3e61:	52                   	push   dx
    3e62:	8b 55 80             	mov    dx,WORD PTR [di-0x80]
    3e65:	8a c2                	mov    al,dl
    3e67:	0c 01                	or     al,0x1
    3e69:	8a d0                	mov    dl,al
    3e6b:	e8 26 01             	call   0x3f94
    3e6e:	5a                   	pop    dx
    3e6f:	89 16 8e 74          	mov    WORD PTR ds:0x748e,dx
    3e73:	5a                   	pop    dx
    3e74:	89 55 80             	mov    WORD PTR [di-0x80],dx
    3e77:	8b 0e 98 72          	mov    cx,WORD PTR ds:0x7298
    3e7b:	41                   	inc    cx
    3e7c:	89 0e 98 72          	mov    WORD PTR ds:0x7298,cx
    3e80:	f8                   	clc    
    3e81:	c3                   	ret    
    3e82:	8b 5d 80             	mov    bx,WORD PTR [di-0x80]
    3e85:	89 1e 8e 74          	mov    WORD PTR ds:0x748e,bx
    3e89:	be 0d 6d             	mov    si,0x6d0d
    3e8c:	8a 06 8e 74          	mov    al,BYTE PTR ds:0x748e
    3e90:	24 f0                	and    al,0xf0
    3e92:	0a 06 8f 74          	or     al,BYTE PTR ds:0x748f
    3e96:	74 0f                	je     0x3ea7
    3e98:	8b 1e 8e 74          	mov    bx,WORD PTR ds:0x748e
    3e9c:	80 e3 fe             	and    bl,0xfe
    3e9f:	89 1e 8e 74          	mov    WORD PTR ds:0x748e,bx
    3ea3:	d1 eb                	shr    bx,1
    3ea5:	8e c3                	mov    es,bx
    3ea7:	8a 06 8e 74          	mov    al,BYTE PTR ds:0x748e
    3eab:	24 f0                	and    al,0xf0
    3ead:	0a 06 8f 74          	or     al,BYTE PTR ds:0x748f
    3eb1:	75 06                	jne    0x3eb9
    3eb3:	e8 14 00             	call   0x3eca
    3eb6:	73 01                	jae    0x3eb9
    3eb8:	c3                   	ret    
    3eb9:	e8 d2 00             	call   0x3f8e
    3ebc:	89 55 80             	mov    WORD PTR [di-0x80],dx
    3ebf:	8b 0e 98 72          	mov    cx,WORD PTR ds:0x7298
    3ec3:	49                   	dec    cx
    3ec4:	89 0e 98 72          	mov    WORD PTR ds:0x7298,cx
    3ec8:	f8                   	clc    
    3ec9:	c3                   	ret    
    3eca:	e8 4b 00             	call   0x3f18
    3ecd:	77 02                	ja     0x3ed1
    3ecf:	f9                   	stc    
    3ed0:	c3                   	ret    
    3ed1:	e8 14 00             	call   0x3ee8
    3ed4:	e8 43 c2             	call   0x11a
    3ed7:	e8 b4 00             	call   0x3f8e
    3eda:	8a c2                	mov    al,dl
    3edc:	24 01                	and    al,0x1
    3ede:	74 ea                	je     0x3eca
    3ee0:	ba 00 00             	mov    dx,0x0
    3ee3:	e8 ae 00             	call   0x3f94
    3ee6:	f8                   	clc    
    3ee7:	c3                   	ret    
    3ee8:	8b 5d cb             	mov    bx,WORD PTR [di-0x35]
    3eeb:	b9 02 00             	mov    cx,0x2
    3eee:	08 c0                	or     al,al
    3ef0:	19 cb                	sbb    bx,cx
    3ef2:	89 5d cb             	mov    WORD PTR [di-0x35],bx
    3ef5:	89 1e 8e 74          	mov    WORD PTR ds:0x748e,bx
    3ef9:	be 0d 6d             	mov    si,0x6d0d
    3efc:	8a 06 8e 74          	mov    al,BYTE PTR ds:0x748e
    3f00:	24 f0                	and    al,0xf0
    3f02:	0a 06 8f 74          	or     al,BYTE PTR ds:0x748f
    3f06:	74 0f                	je     0x3f17
    3f08:	8b 1e 8e 74          	mov    bx,WORD PTR ds:0x748e
    3f0c:	80 e3 fe             	and    bl,0xfe
    3f0f:	89 1e 8e 74          	mov    WORD PTR ds:0x748e,bx
    3f13:	d1 eb                	shr    bx,1
    3f15:	8e c3                	mov    es,bx
    3f17:	c3                   	ret    
    3f18:	8b 5d cb             	mov    bx,WORD PTR [di-0x35]
    3f1b:	3b 5d c9             	cmp    bx,WORD PTR [di-0x37]
    3f1e:	c3                   	ret    
    3f1f:	be 0d 6d             	mov    si,0x6d0d
    3f22:	8b 5d 8f             	mov    bx,WORD PTR [di-0x71]
    3f25:	80 e3 fe             	and    bl,0xfe
    3f28:	89 5d 8f             	mov    WORD PTR [di-0x71],bx
    3f2b:	89 1e 90 74          	mov    WORD PTR ds:0x7490,bx
    3f2f:	8b 5d ae             	mov    bx,WORD PTR [di-0x52]
    3f32:	be 0d 6d             	mov    si,0x6d0d
    3f35:	ba 00 00             	mov    dx,0x0
    3f38:	89 16 98 72          	mov    WORD PTR ds:0x7298,dx
    3f3c:	8c da                	mov    dx,ds
    3f3e:	e8 a3 00             	call   0x3fe4
    3f41:	89 55 c9             	mov    WORD PTR [di-0x37],dx
    3f44:	ba 10 00             	mov    dx,0x10
    3f47:	8b 5d c9             	mov    bx,WORD PTR [di-0x37]
    3f4a:	53                   	push   bx
    3f4b:	d1 eb                	shr    bx,1
    3f4d:	8e c3                	mov    es,bx
    3f4f:	5b                   	pop    bx
    3f50:	e8 c7 c1             	call   0x11a
    3f53:	3b 1e 90 74          	cmp    bx,WORD PTR ds:0x7490
    3f57:	73 14                	jae    0x3f6d
    3f59:	e8 1b ff             	call   0x3e77
    3f5c:	26 c6 06 00 00 01    	mov    BYTE PTR es:0x0,0x1
    3f62:	8c c1                	mov    cx,es
    3f64:	41                   	inc    cx
    3f65:	8e c1                	mov    es,cx
    3f67:	83 c3 02             	add    bx,0x2
    3f6a:	e9 e3 ff             	jmp    0x3f50
    3f6d:	be 0d 6d             	mov    si,0x6d0d
    3f70:	bb 00 00             	mov    bx,0x0
    3f73:	89 5d 80             	mov    WORD PTR [di-0x80],bx
    3f76:	8b 5d c9             	mov    bx,WORD PTR [di-0x37]
    3f79:	83 c3 01             	add    bx,0x1
    3f7c:	80 e3 fe             	and    bl,0xfe
    3f7f:	89 5d c9             	mov    WORD PTR [di-0x37],bx
    3f82:	8b 5d 8f             	mov    bx,WORD PTR [di-0x71]
    3f85:	89 5d cb             	mov    WORD PTR [di-0x35],bx
    3f88:	8e 06 90 72          	mov    es,WORD PTR ds:0x7290
    3f8c:	f8                   	clc    
    3f8d:	c3                   	ret    
    3f8e:	26 8b 16 00 00       	mov    dx,WORD PTR es:0x0
    3f93:	c3                   	ret    
    3f94:	26 89 16 00 00       	mov    WORD PTR es:0x0,dx
    3f99:	c3                   	ret    
    3f9a:	e8 05 00             	call   0x3fa2
    3f9d:	8e 06 90 72          	mov    es,WORD PTR ds:0x7290
    3fa1:	c3                   	ret    
    3fa2:	53                   	push   bx
    3fa3:	52                   	push   dx
    3fa4:	51                   	push   cx
    3fa5:	bb 00 00             	mov    bx,0x0
    3fa8:	ba 98 74             	mov    dx,0x7498
    3fab:	b9 10 00             	mov    cx,0x10
    3fae:	1e                   	push   ds
    3faf:	06                   	push   es
    3fb0:	1f                   	pop    ds
    3fb1:	07                   	pop    es
    3fb2:	9c                   	pushf  
    3fb3:	87 f3                	xchg   bx,si
    3fb5:	87 fa                	xchg   dx,di
    3fb7:	fc                   	cld    
    3fb8:	f3 a4                	rep movs BYTE PTR es:[di],BYTE PTR ds:[si]
    3fba:	87 f3                	xchg   bx,si
    3fbc:	87 fa                	xchg   dx,di
    3fbe:	9d                   	popf   
    3fbf:	1e                   	push   ds
    3fc0:	06                   	push   es
    3fc1:	1f                   	pop    ds
    3fc2:	07                   	pop    es
    3fc3:	59                   	pop    cx
    3fc4:	5a                   	pop    dx
    3fc5:	5b                   	pop    bx
    3fc6:	c3                   	ret    
    3fc7:	53                   	push   bx
    3fc8:	52                   	push   dx
    3fc9:	51                   	push   cx
    3fca:	bb 98 74             	mov    bx,0x7498
    3fcd:	ba 00 00             	mov    dx,0x0
    3fd0:	b9 10 00             	mov    cx,0x10
    3fd3:	9c                   	pushf  
    3fd4:	87 f3                	xchg   bx,si
    3fd6:	87 fa                	xchg   dx,di
    3fd8:	fc                   	cld    
    3fd9:	f3 a4                	rep movs BYTE PTR es:[di],BYTE PTR ds:[si]
    3fdb:	87 f3                	xchg   bx,si
    3fdd:	87 fa                	xchg   dx,di
    3fdf:	9d                   	popf   
    3fe0:	59                   	pop    cx
    3fe1:	5a                   	pop    dx
    3fe2:	5b                   	pop    bx
    3fe3:	c3                   	ret    
    3fe4:	53                   	push   bx
    3fe5:	51                   	push   cx
    3fe6:	83 c3 0f             	add    bx,0xf
    3fe9:	b1 04                	mov    cl,0x4
    3feb:	d3 eb                	shr    bx,cl
    3fed:	59                   	pop    cx
    3fee:	01 da                	add    dx,bx
    3ff0:	5b                   	pop    bx
    3ff1:	d1 e2                	shl    dx,1
    3ff3:	c3                   	ret    
    3ff4:	c6 45 8b 02          	mov    BYTE PTR [di-0x75],0x2
    3ff8:	8a 44 28             	mov    al,BYTE PTR [si+0x28]
    3ffb:	3a 44 30             	cmp    al,BYTE PTR [si+0x30]
    3ffe:	72 06                	jb     0x4006
    4000:	be 0d 6d             	mov    si,0x6d0d
    4003:	e9 0a 00             	jmp    0x4010
    4006:	46                   	inc    si
    4007:	fe 4d 8b             	dec    BYTE PTR [di-0x75]
    400a:	75 ec                	jne    0x3ff8
    400c:	4e                   	dec    si
    400d:	4e                   	dec    si
    400e:	f8                   	clc    
    400f:	c3                   	ret    
    4010:	be 0d 6d             	mov    si,0x6d0d
    4013:	e8 c6 17             	call   0x57dc
    4016:	8b 4c 30             	mov    cx,WORD PTR [si+0x30]
    4019:	51                   	push   cx
    401a:	e8 1d 00             	call   0x403a
    401d:	59                   	pop    cx
    401e:	73 09                	jae    0x4029
    4020:	be 0d 6d             	mov    si,0x6d0d
    4023:	89 4c 30             	mov    WORD PTR [si+0x30],cx
    4026:	e8 17 17             	call   0x5740
    4029:	9f                   	lahf   
    402a:	86 e0                	xchg   al,ah
    402c:	50                   	push   ax
    402d:	86 e0                	xchg   al,ah
    402f:	e8 c0 17             	call   0x57f2
    4032:	e8 2e 07             	call   0x4763
    4035:	58                   	pop    ax
    4036:	86 e0                	xchg   al,ah
    4038:	9e                   	sahf   
    4039:	c3                   	ret    
    403a:	c6 45 8b 02          	mov    BYTE PTR [di-0x75],0x2
    403e:	fe 44 28             	inc    BYTE PTR [si+0x28]
    4041:	75 02                	jne    0x4045
    4043:	f9                   	stc    
    4044:	c3                   	ret    
    4045:	8a 44 30             	mov    al,BYTE PTR [si+0x30]
    4048:	3a 44 28             	cmp    al,BYTE PTR [si+0x28]
    404b:	73 03                	jae    0x4050
    404d:	8a 44 28             	mov    al,BYTE PTR [si+0x28]
    4050:	3a 44 2a             	cmp    al,BYTE PTR [si+0x2a]
    4053:	76 02                	jbe    0x4057
    4055:	f9                   	stc    
    4056:	c3                   	ret    
    4057:	88 44 28             	mov    BYTE PTR [si+0x28],al
    405a:	88 44 40             	mov    BYTE PTR [si+0x40],al
    405d:	46                   	inc    si
    405e:	fe 4d 8b             	dec    BYTE PTR [di-0x75]
    4061:	75 db                	jne    0x403e
    4063:	4e                   	dec    si
    4064:	4e                   	dec    si
    4065:	b6 00                	mov    dh,0x0
    4067:	8a 54 29             	mov    dl,BYTE PTR [si+0x29]
    406a:	fe c2                	inc    dl
    406c:	bb 00 00             	mov    bx,0x0
    406f:	8a 44 28             	mov    al,BYTE PTR [si+0x28]
    4072:	d0 e8                	shr    al,1
    4074:	73 02                	jae    0x4078
    4076:	01 d3                	add    bx,dx
    4078:	d0 e2                	shl    dl,1
    407a:	d0 d6                	rcl    dh,1
    407c:	08 c0                	or     al,al
    407e:	75 f2                	jne    0x4072
    4080:	d0 e3                	shl    bl,1
    4082:	d0 d7                	rcl    bh,1
    4084:	53                   	push   bx
    4085:	8b 55 91             	mov    dx,WORD PTR [di-0x6f]
    4088:	8b da                	mov    bx,dx
    408a:	8c da                	mov    dx,ds
    408c:	d1 e2                	shl    dx,1
    408e:	29 d3                	sub    bx,dx
    4090:	d1 e3                	shl    bx,1
    4092:	d1 e3                	shl    bx,1
    4094:	d1 e3                	shl    bx,1
    4096:	5a                   	pop    dx
    4097:	01 d3                	add    bx,dx
    4099:	53                   	push   bx
    409a:	8c da                	mov    dx,ds
    409c:	e8 45 ff             	call   0x3fe4
    409f:	8b da                	mov    bx,dx
    40a1:	8b 55 91             	mov    dx,WORD PTR [di-0x6f]
    40a4:	e8 dc 00             	call   0x4183
    40a7:	77 03                	ja     0x40ac
    40a9:	5b                   	pop    bx
    40aa:	f9                   	stc    
    40ab:	c3                   	ret    
    40ac:	8b 55 8f             	mov    dx,WORD PTR [di-0x71]
    40af:	e8 d1 00             	call   0x4183
    40b2:	72 03                	jb     0x40b7
    40b4:	5b                   	pop    bx
    40b5:	f9                   	stc    
    40b6:	c3                   	ret    
    40b7:	89 5d c9             	mov    WORD PTR [di-0x37],bx
    40ba:	5b                   	pop    bx
    40bb:	89 5c 42             	mov    WORD PTR [si+0x42],bx
    40be:	e8 ac fe             	call   0x3f6d
    40c1:	8b 5d ae             	mov    bx,WORD PTR [di-0x52]
    40c4:	89 1e 9a 72          	mov    WORD PTR ds:0x729a,bx
    40c8:	bb 00 00             	mov    bx,0x0
    40cb:	89 5c 28             	mov    WORD PTR [si+0x28],bx
    40ce:	e8 39 02             	call   0x430a
    40d1:	e8 bb 00             	call   0x418f
    40d4:	73 01                	jae    0x40d7
    40d6:	c3                   	ret    
    40d7:	8b 5d 84             	mov    bx,WORD PTR [di-0x7c]
    40da:	43                   	inc    bx
    40db:	43                   	inc    bx
    40dc:	89 5d 84             	mov    WORD PTR [di-0x7c],bx
    40df:	8b 55 ae             	mov    dx,WORD PTR [di-0x52]
    40e2:	e8 9e 00             	call   0x4183
    40e5:	72 ea                	jb     0x40d1
    40e7:	8b 5c 42             	mov    bx,WORD PTR [si+0x42]
    40ea:	8b 55 ae             	mov    dx,WORD PTR [di-0x52]
    40ed:	8b 4c 40             	mov    cx,WORD PTR [si+0x40]
    40f0:	89 4c 28             	mov    WORD PTR [si+0x28],cx
    40f3:	8a c1                	mov    al,cl
    40f5:	08 c0                	or     al,al
    40f7:	74 4b                	je     0x4144
    40f9:	fe c9                	dec    cl
    40fb:	8a c5                	mov    al,ch
    40fd:	08 c0                	or     al,al
    40ff:	74 3d                	je     0x413e
    4101:	fe cd                	dec    ch
    4103:	b0 00                	mov    al,0x0
    4105:	4b                   	dec    bx
    4106:	88 07                	mov    BYTE PTR [bx],al
    4108:	4b                   	dec    bx
    4109:	88 07                	mov    BYTE PTR [bx],al
    410b:	8a c1                	mov    al,cl
    410d:	3a 44 30             	cmp    al,BYTE PTR [si+0x30]
    4110:	73 29                	jae    0x413b
    4112:	8a c5                	mov    al,ch
    4114:	3a 44 31             	cmp    al,BYTE PTR [si+0x31]
    4117:	73 22                	jae    0x413b
    4119:	4a                   	dec    dx
    411a:	4a                   	dec    dx
    411b:	8b ea                	mov    bp,dx
    411d:	8a 46 00             	mov    al,BYTE PTR [bp+0x0]
    4120:	88 07                	mov    BYTE PTR [bx],al
    4122:	b0 00                	mov    al,0x0
    4124:	8b ea                	mov    bp,dx
    4126:	88 46 00             	mov    BYTE PTR [bp+0x0],al
    4129:	43                   	inc    bx
    412a:	42                   	inc    dx
    412b:	8b ea                	mov    bp,dx
    412d:	8a 46 00             	mov    al,BYTE PTR [bp+0x0]
    4130:	88 07                	mov    BYTE PTR [bx],al
    4132:	b0 00                	mov    al,0x0
    4134:	8b ea                	mov    bp,dx
    4136:	88 46 00             	mov    BYTE PTR [bp+0x0],al
    4139:	4b                   	dec    bx
    413a:	4a                   	dec    dx
    413b:	e9 bd ff             	jmp    0x40fb
    413e:	8a 6c 41             	mov    ch,BYTE PTR [si+0x41]
    4141:	e9 af ff             	jmp    0x40f3
    4144:	8b 5c 42             	mov    bx,WORD PTR [si+0x42]
    4147:	89 5d ae             	mov    WORD PTR [di-0x52],bx
    414a:	8b 4c 40             	mov    cx,WORD PTR [si+0x40]
    414d:	e8 76 01             	call   0x42c6
    4150:	8b 55 c9             	mov    dx,WORD PTR [di-0x37]
    4153:	8b da                	mov    bx,dx
    4155:	8c da                	mov    dx,ds
    4157:	d1 e2                	shl    dx,1
    4159:	29 d3                	sub    bx,dx
    415b:	d1 e3                	shl    bx,1
    415d:	d1 e3                	shl    bx,1
    415f:	d1 e3                	shl    bx,1
    4161:	8b 16 9a 72          	mov    dx,WORD PTR ds:0x729a
    4165:	08 c0                	or     al,al
    4167:	19 d3                	sbb    bx,dx
    4169:	b5 04                	mov    ch,0x4
    416b:	d0 ef                	shr    bh,1
    416d:	d0 db                	rcr    bl,1
    416f:	fe cd                	dec    ch
    4171:	75 f8                	jne    0x416b
    4173:	87 d3                	xchg   bx,dx
    4175:	8b 1e 98 72          	mov    bx,WORD PTR ds:0x7298
    4179:	08 c0                	or     al,al
    417b:	19 d3                	sbb    bx,dx
    417d:	89 1e 98 72          	mov    WORD PTR ds:0x7298,bx
    4181:	f8                   	clc    
    4182:	c3                   	ret    
    4183:	8a c7                	mov    al,bh
    4185:	38 f0                	cmp    al,dh
    4187:	74 01                	je     0x418a
    4189:	c3                   	ret    
    418a:	8a c3                	mov    al,bl
    418c:	38 d0                	cmp    al,dl
    418e:	c3                   	ret    
    418f:	8b 5d 84             	mov    bx,WORD PTR [di-0x7c]
    4192:	89 1e 8e 74          	mov    WORD PTR ds:0x748e,bx
    4196:	bb a8 74             	mov    bx,0x74a8
    4199:	80 0f 80             	or     BYTE PTR [bx],0x80
    419c:	8b 16 8e 74          	mov    dx,WORD PTR ds:0x748e
    41a0:	89 16 92 74          	mov    WORD PTR ds:0x7492,dx
    41a4:	bb a8 74             	mov    bx,0x74a8
    41a7:	f6 07 80             	test   BYTE PTR [bx],0x80
    41aa:	75 06                	jne    0x41b2
    41ac:	e8 df fd             	call   0x3f8e
    41af:	e9 07 00             	jmp    0x41b9
    41b2:	8b da                	mov    bx,dx
    41b4:	8a 17                	mov    dl,BYTE PTR [bx]
    41b6:	43                   	inc    bx
    41b7:	8a 37                	mov    dh,BYTE PTR [bx]
    41b9:	89 16 8e 74          	mov    WORD PTR ds:0x748e,dx
    41bd:	be 0d 6d             	mov    si,0x6d0d
    41c0:	8a 06 8e 74          	mov    al,BYTE PTR ds:0x748e
    41c4:	24 f0                	and    al,0xf0
    41c6:	0a 06 8f 74          	or     al,BYTE PTR ds:0x748f
    41ca:	74 0f                	je     0x41db
    41cc:	8b 1e 8e 74          	mov    bx,WORD PTR ds:0x748e
    41d0:	80 e3 fe             	and    bl,0xfe
    41d3:	89 1e 8e 74          	mov    WORD PTR ds:0x748e,bx
    41d7:	d1 eb                	shr    bx,1
    41d9:	8e c3                	mov    es,bx
    41db:	8a 06 8e 74          	mov    al,BYTE PTR ds:0x748e
    41df:	24 f0                	and    al,0xf0
    41e1:	0a 06 8f 74          	or     al,BYTE PTR ds:0x748f
    41e5:	74 1a                	je     0x4201
    41e7:	8b 16 8e 74          	mov    dx,WORD PTR ds:0x748e
    41eb:	8b 5d c9             	mov    bx,WORD PTR [di-0x37]
    41ee:	39 da                	cmp    dx,bx
    41f0:	73 06                	jae    0x41f8
    41f2:	e8 11 00             	call   0x4206
    41f5:	73 01                	jae    0x41f8
    41f7:	c3                   	ret    
    41f8:	bb a8 74             	mov    bx,0x74a8
    41fb:	80 27 7f             	and    BYTE PTR [bx],0x7f
    41fe:	e9 9b ff             	jmp    0x419c
    4201:	8e 06 90 72          	mov    es,WORD PTR ds:0x7290
    4205:	c3                   	ret    
    4206:	89 16 96 74          	mov    WORD PTR ds:0x7496,dx
    420a:	e8 95 fd             	call   0x3fa2
    420d:	e8 72 fc             	call   0x3e82
    4210:	73 0f                	jae    0x4221
    4212:	8b 5d ae             	mov    bx,WORD PTR [di-0x52]
    4215:	89 5d c9             	mov    WORD PTR [di-0x37],bx
    4218:	8e 06 90 72          	mov    es,WORD PTR ds:0x7290
    421c:	e8 4e fd             	call   0x3f6d
    421f:	f9                   	stc    
    4220:	c3                   	ret    
    4221:	e8 a3 fd             	call   0x3fc7
    4224:	8b 16 8e 74          	mov    dx,WORD PTR ds:0x748e
    4228:	89 16 94 74          	mov    WORD PTR ds:0x7494,dx
    422c:	8b 16 92 74          	mov    dx,WORD PTR ds:0x7492
    4230:	bb a8 74             	mov    bx,0x74a8
    4233:	f6 07 80             	test   BYTE PTR [bx],0x80
    4236:	75 2c                	jne    0x4264
    4238:	89 16 8e 74          	mov    WORD PTR ds:0x748e,dx
    423c:	be 0d 6d             	mov    si,0x6d0d
    423f:	8a 06 8e 74          	mov    al,BYTE PTR ds:0x748e
    4243:	24 f0                	and    al,0xf0
    4245:	0a 06 8f 74          	or     al,BYTE PTR ds:0x748f
    4249:	74 0f                	je     0x425a
    424b:	8b 1e 8e 74          	mov    bx,WORD PTR ds:0x748e
    424f:	80 e3 fe             	and    bl,0xfe
    4252:	89 1e 8e 74          	mov    WORD PTR ds:0x748e,bx
    4256:	d1 eb                	shr    bx,1
    4258:	8e c3                	mov    es,bx
    425a:	8b 16 94 74          	mov    dx,WORD PTR ds:0x7494
    425e:	e8 33 fd             	call   0x3f94
    4261:	e9 0b 00             	jmp    0x426f
    4264:	8b da                	mov    bx,dx
    4266:	8b 16 94 74          	mov    dx,WORD PTR ds:0x7494
    426a:	88 17                	mov    BYTE PTR [bx],dl
    426c:	43                   	inc    bx
    426d:	88 37                	mov    BYTE PTR [bx],dh
    426f:	8b 16 96 74          	mov    dx,WORD PTR ds:0x7496
    4273:	89 16 8e 74          	mov    WORD PTR ds:0x748e,dx
    4277:	be 0d 6d             	mov    si,0x6d0d
    427a:	8a 06 8e 74          	mov    al,BYTE PTR ds:0x748e
    427e:	24 f0                	and    al,0xf0
    4280:	0a 06 8f 74          	or     al,BYTE PTR ds:0x748f
    4284:	74 0f                	je     0x4295
    4286:	8b 1e 8e 74          	mov    bx,WORD PTR ds:0x748e
    428a:	80 e3 fe             	and    bl,0xfe
    428d:	89 1e 8e 74          	mov    WORD PTR ds:0x748e,bx
    4291:	d1 eb                	shr    bx,1
    4293:	8e c3                	mov    es,bx
    4295:	b2 01                	mov    dl,0x1
    4297:	b6 00                	mov    dh,0x0
    4299:	e8 f8 fc             	call   0x3f94
    429c:	e8 d8 fb             	call   0x3e77
    429f:	8b 16 94 74          	mov    dx,WORD PTR ds:0x7494
    42a3:	89 16 8e 74          	mov    WORD PTR ds:0x748e,dx
    42a7:	be 0d 6d             	mov    si,0x6d0d
    42aa:	8a 06 8e 74          	mov    al,BYTE PTR ds:0x748e
    42ae:	24 f0                	and    al,0xf0
    42b0:	0a 06 8f 74          	or     al,BYTE PTR ds:0x748f
    42b4:	74 0f                	je     0x42c5
    42b6:	8b 1e 8e 74          	mov    bx,WORD PTR ds:0x748e
    42ba:	80 e3 fe             	and    bl,0xfe
    42bd:	89 1e 8e 74          	mov    WORD PTR ds:0x748e,bx
    42c1:	d1 eb                	shr    bx,1
    42c3:	8e c3                	mov    es,bx
    42c5:	c3                   	ret    
    42c6:	89 4c 30             	mov    WORD PTR [si+0x30],cx
    42c9:	8b 55 91             	mov    dx,WORD PTR [di-0x6f]
    42cc:	8b da                	mov    bx,dx
    42ce:	8c da                	mov    dx,ds
    42d0:	d1 e2                	shl    dx,1
    42d2:	29 d3                	sub    bx,dx
    42d4:	d1 e3                	shl    bx,1
    42d6:	d1 e3                	shl    bx,1
    42d8:	d1 e3                	shl    bx,1
    42da:	53                   	push   bx
    42db:	b6 00                	mov    dh,0x0
    42dd:	8a d1                	mov    dl,cl
    42df:	01 d3                	add    bx,dx
    42e1:	01 d3                	add    bx,dx
    42e3:	5a                   	pop    dx
    42e4:	89 5d ac             	mov    WORD PTR [di-0x54],bx
    42e7:	88 4d 05             	mov    BYTE PTR [di+0x5],cl
    42ea:	8a cd                	mov    cl,ch
    42ec:	b5 00                	mov    ch,0x0
    42ee:	d0 e1                	shl    cl,1
    42f0:	d0 d5                	rcl    ch,1
    42f2:	8a c3                	mov    al,bl
    42f4:	8b ea                	mov    bp,dx
    42f6:	88 46 00             	mov    BYTE PTR [bp+0x0],al
    42f9:	42                   	inc    dx
    42fa:	8a c7                	mov    al,bh
    42fc:	8b ea                	mov    bp,dx
    42fe:	88 46 00             	mov    BYTE PTR [bp+0x0],al
    4301:	42                   	inc    dx
    4302:	01 cb                	add    bx,cx
    4304:	fe 4d 05             	dec    BYTE PTR [di+0x5]
    4307:	75 e9                	jne    0x42f2
    4309:	c3                   	ret    
    430a:	8a 44 28             	mov    al,BYTE PTR [si+0x28]
    430d:	3a 44 30             	cmp    al,BYTE PTR [si+0x30]
    4310:	73 30                	jae    0x4342
    4312:	8a 44 29             	mov    al,BYTE PTR [si+0x29]
    4315:	3a 44 31             	cmp    al,BYTE PTR [si+0x31]
    4318:	73 28                	jae    0x4342
    431a:	8b 55 91             	mov    dx,WORD PTR [di-0x6f]
    431d:	8b da                	mov    bx,dx
    431f:	8c da                	mov    dx,ds
    4321:	d1 e2                	shl    dx,1
    4323:	29 d3                	sub    bx,dx
    4325:	d1 e3                	shl    bx,1
    4327:	d1 e3                	shl    bx,1
    4329:	d1 e3                	shl    bx,1
    432b:	b5 00                	mov    ch,0x0
    432d:	8a 4c 28             	mov    cl,BYTE PTR [si+0x28]
    4330:	01 cb                	add    bx,cx
    4332:	01 cb                	add    bx,cx
    4334:	8b 1f                	mov    bx,WORD PTR [bx]
    4336:	8a 4c 29             	mov    cl,BYTE PTR [si+0x29]
    4339:	01 cb                	add    bx,cx
    433b:	01 cb                	add    bx,cx
    433d:	89 5d 84             	mov    WORD PTR [di-0x7c],bx
    4340:	f8                   	clc    
    4341:	c3                   	ret    
    4342:	bb 00 00             	mov    bx,0x0
    4345:	89 5d 84             	mov    WORD PTR [di-0x7c],bx
    4348:	f9                   	stc    
    4349:	c3                   	ret    
    434a:	e8 bd ff             	call   0x430a
    434d:	73 0b                	jae    0x435a
    434f:	bb 00 00             	mov    bx,0x0
    4352:	89 5d 82             	mov    WORD PTR [di-0x7e],bx
    4355:	89 1e 8e 74          	mov    WORD PTR ds:0x748e,bx
    4359:	c3                   	ret    
    435a:	8b 1f                	mov    bx,WORD PTR [bx]
    435c:	89 5d 82             	mov    WORD PTR [di-0x7e],bx
    435f:	89 1e 8e 74          	mov    WORD PTR ds:0x748e,bx
    4363:	be 0d 6d             	mov    si,0x6d0d
    4366:	8a 06 8e 74          	mov    al,BYTE PTR ds:0x748e
    436a:	24 f0                	and    al,0xf0
    436c:	0a 06 8f 74          	or     al,BYTE PTR ds:0x748f
    4370:	74 0f                	je     0x4381
    4372:	8b 1e 8e 74          	mov    bx,WORD PTR ds:0x748e
    4376:	80 e3 fe             	and    bl,0xfe
    4379:	89 1e 8e 74          	mov    WORD PTR ds:0x748e,bx
    437d:	d1 eb                	shr    bx,1
    437f:	8e c3                	mov    es,bx
    4381:	8a 06 8e 74          	mov    al,BYTE PTR ds:0x748e
    4385:	24 f0                	and    al,0xf0
    4387:	0a 06 8f 74          	or     al,BYTE PTR ds:0x748f
    438b:	75 04                	jne    0x4391
    438d:	f9                   	stc    
    438e:	e9 01 00             	jmp    0x4392
    4391:	f8                   	clc    
    4392:	c3                   	ret    
    4393:	be 0d 6d             	mov    si,0x6d0d
    4396:	e8 b1 ff             	call   0x434a
    4399:	73 13                	jae    0x43ae
    439b:	8a 45 82             	mov    al,BYTE PTR [di-0x7e]
    439e:	24 0f                	and    al,0xf
    43a0:	88 45 9f             	mov    BYTE PTR [di-0x61],al
    43a3:	b0 f0                	mov    al,0xf0
    43a5:	88 06 02 72          	mov    BYTE PTR ds:0x7202,al
    43a9:	8e 06 90 72          	mov    es,WORD PTR ds:0x7290
    43ad:	c3                   	ret    
    43ae:	bb 02 72             	mov    bx,0x7202
    43b1:	89 1e a9 74          	mov    WORD PTR ds:0x74a9,bx
    43b5:	e8 ea fb             	call   0x3fa2
    43b8:	bb 9a 74             	mov    bx,0x749a
    43bb:	b5 0e                	mov    ch,0xe
    43bd:	8b 16 a9 74          	mov    dx,WORD PTR ds:0x74a9
    43c1:	8a 07                	mov    al,BYTE PTR [bx]
    43c3:	8b ea                	mov    bp,dx
    43c5:	88 46 00             	mov    BYTE PTR [bp+0x0],al
    43c8:	3c ff                	cmp    al,0xff
    43ca:	74 06                	je     0x43d2
    43cc:	43                   	inc    bx
    43cd:	42                   	inc    dx
    43ce:	fe cd                	dec    ch
    43d0:	75 ef                	jne    0x43c1
    43d2:	89 16 a9 74          	mov    WORD PTR ds:0x74a9,dx
    43d6:	3c ff                	cmp    al,0xff
    43d8:	74 31                	je     0x440b
    43da:	e8 b1 fb             	call   0x3f8e
    43dd:	89 16 8e 74          	mov    WORD PTR ds:0x748e,dx
    43e1:	be 0d 6d             	mov    si,0x6d0d
    43e4:	8a 06 8e 74          	mov    al,BYTE PTR ds:0x748e
    43e8:	24 f0                	and    al,0xf0
    43ea:	0a 06 8f 74          	or     al,BYTE PTR ds:0x748f
    43ee:	74 0f                	je     0x43ff
    43f0:	8b 1e 8e 74          	mov    bx,WORD PTR ds:0x748e
    43f4:	80 e3 fe             	and    bl,0xfe
    43f7:	89 1e 8e 74          	mov    WORD PTR ds:0x748e,bx
    43fb:	d1 eb                	shr    bx,1
    43fd:	8e c3                	mov    es,bx
    43ff:	8a 06 8e 74          	mov    al,BYTE PTR ds:0x748e
    4403:	24 f0                	and    al,0xf0
    4405:	0a 06 8f 74          	or     al,BYTE PTR ds:0x748f
    4409:	75 aa                	jne    0x43b5
    440b:	8a 06 02 72          	mov    al,BYTE PTR ds:0x7202
    440f:	8a e8                	mov    ch,al
    4411:	24 0f                	and    al,0xf
    4413:	88 45 9f             	mov    BYTE PTR [di-0x61],al
    4416:	8a c5                	mov    al,ch
    4418:	24 f0                	and    al,0xf0
    441a:	88 06 02 72          	mov    BYTE PTR ds:0x7202,al
    441e:	8e 06 90 72          	mov    es,WORD PTR ds:0x7290
    4422:	c3                   	ret    
    4423:	b5 8c                	mov    ch,0x8c
    4425:	88 6d df             	mov    BYTE PTR [di-0x21],ch
    4428:	b0 ff                	mov    al,0xff
    442a:	bb 02 72             	mov    bx,0x7202
    442d:	88 07                	mov    BYTE PTR [bx],al
    442f:	b0 f0                	mov    al,0xf0
    4431:	88 06 02 72          	mov    BYTE PTR ds:0x7202,al
    4435:	c3                   	ret    
    4436:	e8 01 00             	call   0x443a
    4439:	c3                   	ret    
    443a:	be 0d 6d             	mov    si,0x6d0d
    443d:	e8 0a ff             	call   0x434a
    4440:	8a 45 85             	mov    al,BYTE PTR [di-0x7b]
    4443:	08 c0                	or     al,al
    4445:	75 11                	jne    0x4458
    4447:	e8 c6 fb             	call   0x4010
    444a:	73 09                	jae    0x4455
    444c:	8e 06 90 72          	mov    es,WORD PTR ds:0x7290
    4450:	e8 9b be             	call   0x2ee
    4453:	f9                   	stc    
    4454:	c3                   	ret    
    4455:	e9 e5 ff             	jmp    0x443d
    4458:	e8 ab f9             	call   0x3e06
    445b:	e8 73 00             	call   0x44d1
    445e:	9f                   	lahf   
    445f:	86 e0                	xchg   al,ah
    4461:	50                   	push   ax
    4462:	86 e0                	xchg   al,ah
    4464:	73 55                	jae    0x44bb
    4466:	8b 5d 84             	mov    bx,WORD PTR [di-0x7c]
    4469:	53                   	push   bx
    446a:	e8 99 f9             	call   0x3e06
    446d:	5b                   	pop    bx
    446e:	89 5d 84             	mov    WORD PTR [di-0x7c],bx
    4471:	8a 06 02 72          	mov    al,BYTE PTR ds:0x7202
    4475:	24 f0                	and    al,0xf0
    4477:	3c 00                	cmp    al,0x0
    4479:	74 0d                	je     0x4488
    447b:	3c 10                	cmp    al,0x10
    447d:	74 09                	je     0x4488
    447f:	e8 84 f9             	call   0x3e06
    4482:	e8 9e ff             	call   0x4423
    4485:	e9 2a 00             	jmp    0x44b2
    4488:	9f                   	lahf   
    4489:	86 e0                	xchg   al,ah
    448b:	50                   	push   ax
    448c:	86 e0                	xchg   al,ah
    448e:	8e 06 90 72          	mov    es,WORD PTR ds:0x7290
    4492:	e8 98 f1             	call   0x362d
    4495:	e8 9b d5             	call   0x1a33
    4498:	58                   	pop    ax
    4499:	86 e0                	xchg   al,ah
    449b:	9e                   	sahf   
    449c:	3c 00                	cmp    al,0x0
    449e:	75 07                	jne    0x44a7
    44a0:	88 06 02 72          	mov    BYTE PTR ds:0x7202,al
    44a4:	e8 e3 d5             	call   0x1a8a
    44a7:	e8 27 00             	call   0x44d1
    44aa:	73 06                	jae    0x44b2
    44ac:	e8 57 f9             	call   0x3e06
    44af:	e8 71 ff             	call   0x4423
    44b2:	8b 5c 28             	mov    bx,WORD PTR [si+0x28]
    44b5:	89 5c 2e             	mov    WORD PTR [si+0x2e],bx
    44b8:	e8 85 12             	call   0x5740
    44bb:	8a 06 02 72          	mov    al,BYTE PTR ds:0x7202
    44bf:	24 f0                	and    al,0xf0
    44c1:	88 06 02 72          	mov    BYTE PTR ds:0x7202,al
    44c5:	8e 06 90 72          	mov    es,WORD PTR ds:0x7290
    44c9:	e8 05 e5             	call   0x29d1
    44cc:	58                   	pop    ax
    44cd:	86 e0                	xchg   al,ah
    44cf:	9e                   	sahf   
    44d0:	c3                   	ret    
    44d1:	8e 06 90 72          	mov    es,WORD PTR ds:0x7290
    44d5:	e8 dd e6             	call   0x2bb5
    44d8:	8a 06 02 72          	mov    al,BYTE PTR ds:0x7202
    44dc:	8a e8                	mov    ch,al
    44de:	24 f0                	and    al,0xf0
    44e0:	0a 45 9f             	or     al,BYTE PTR [di-0x61]
    44e3:	88 06 02 72          	mov    BYTE PTR ds:0x7202,al
    44e7:	8b 5d 84             	mov    bx,WORD PTR [di-0x7c]
    44ea:	8a c5                	mov    al,ch
    44ec:	24 f0                	and    al,0xf0
    44ee:	3c f0                	cmp    al,0xf0
    44f0:	75 10                	jne    0x4502
    44f2:	8a 45 9f             	mov    al,BYTE PTR [di-0x61]
    44f5:	88 07                	mov    BYTE PTR [bx],al
    44f7:	43                   	inc    bx
    44f8:	b0 00                	mov    al,0x0
    44fa:	88 07                	mov    BYTE PTR [bx],al
    44fc:	8e 06 90 72          	mov    es,WORD PTR ds:0x7290
    4500:	f8                   	clc    
    4501:	c3                   	ret    
    4502:	89 1e 8e 74          	mov    WORD PTR ds:0x748e,bx
    4506:	bb a8 74             	mov    bx,0x74a8
    4509:	80 0f 80             	or     BYTE PTR [bx],0x80
    450c:	bb 02 72             	mov    bx,0x7202
    450f:	89 1e ac 74          	mov    WORD PTR ds:0x74ac,bx
    4513:	8b 16 8e 74          	mov    dx,WORD PTR ds:0x748e
    4517:	89 16 aa 74          	mov    WORD PTR ds:0x74aa,dx
    451b:	e8 64 f9             	call   0x3e82
    451e:	73 09                	jae    0x4529
    4520:	8e 06 90 72          	mov    es,WORD PTR ds:0x7290
    4524:	e8 c7 bd             	call   0x2ee
    4527:	f9                   	stc    
    4528:	c3                   	ret    
    4529:	8b 16 8e 74          	mov    dx,WORD PTR ds:0x748e
    452d:	52                   	push   dx
    452e:	8b 16 aa 74          	mov    dx,WORD PTR ds:0x74aa
    4532:	bb a8 74             	mov    bx,0x74a8
    4535:	f6 07 80             	test   BYTE PTR [bx],0x80
    4538:	75 29                	jne    0x4563
    453a:	89 16 8e 74          	mov    WORD PTR ds:0x748e,dx
    453e:	be 0d 6d             	mov    si,0x6d0d
    4541:	8a 06 8e 74          	mov    al,BYTE PTR ds:0x748e
    4545:	24 f0                	and    al,0xf0
    4547:	0a 06 8f 74          	or     al,BYTE PTR ds:0x748f
    454b:	74 0f                	je     0x455c
    454d:	8b 1e 8e 74          	mov    bx,WORD PTR ds:0x748e
    4551:	80 e3 fe             	and    bl,0xfe
    4554:	89 1e 8e 74          	mov    WORD PTR ds:0x748e,bx
    4558:	d1 eb                	shr    bx,1
    455a:	8e c3                	mov    es,bx
    455c:	5a                   	pop    dx
    455d:	e8 34 fa             	call   0x3f94
    4560:	e9 08 00             	jmp    0x456b
    4563:	8b da                	mov    bx,dx
    4565:	5a                   	pop    dx
    4566:	88 17                	mov    BYTE PTR [bx],dl
    4568:	43                   	inc    bx
    4569:	88 37                	mov    BYTE PTR [bx],dh
    456b:	89 16 8e 74          	mov    WORD PTR ds:0x748e,dx
    456f:	be 0d 6d             	mov    si,0x6d0d
    4572:	8a 06 8e 74          	mov    al,BYTE PTR ds:0x748e
    4576:	24 f0                	and    al,0xf0
    4578:	0a 06 8f 74          	or     al,BYTE PTR ds:0x748f
    457c:	74 0f                	je     0x458d
    457e:	8b 1e 8e 74          	mov    bx,WORD PTR ds:0x748e
    4582:	80 e3 fe             	and    bl,0xfe
    4585:	89 1e 8e 74          	mov    WORD PTR ds:0x748e,bx
    4589:	d1 eb                	shr    bx,1
    458b:	8e c3                	mov    es,bx
    458d:	bb 98 74             	mov    bx,0x7498
    4590:	c6 07 00             	mov    BYTE PTR [bx],0x0
    4593:	43                   	inc    bx
    4594:	c6 07 00             	mov    BYTE PTR [bx],0x0
    4597:	8b 16 ac 74          	mov    dx,WORD PTR ds:0x74ac
    459b:	b5 0e                	mov    ch,0xe
    459d:	8b ea                	mov    bp,dx
    459f:	8a 46 00             	mov    al,BYTE PTR [bp+0x0]
    45a2:	43                   	inc    bx
    45a3:	88 07                	mov    BYTE PTR [bx],al
    45a5:	3c ff                	cmp    al,0xff
    45a7:	74 05                	je     0x45ae
    45a9:	42                   	inc    dx
    45aa:	fe cd                	dec    ch
    45ac:	75 ef                	jne    0x459d
    45ae:	89 16 ac 74          	mov    WORD PTR ds:0x74ac,dx
    45b2:	9f                   	lahf   
    45b3:	86 e0                	xchg   al,ah
    45b5:	50                   	push   ax
    45b6:	86 e0                	xchg   al,ah
    45b8:	e8 0c fa             	call   0x3fc7
    45bb:	bb a8 74             	mov    bx,0x74a8
    45be:	80 27 7f             	and    BYTE PTR [bx],0x7f
    45c1:	58                   	pop    ax
    45c2:	86 e0                	xchg   al,ah
    45c4:	9e                   	sahf   
    45c5:	3c ff                	cmp    al,0xff
    45c7:	74 03                	je     0x45cc
    45c9:	e9 47 ff             	jmp    0x4513
    45cc:	8e 06 90 72          	mov    es,WORD PTR ds:0x7290
    45d0:	f8                   	clc    
    45d1:	c3                   	ret    
    45d2:	e8 81 d3             	call   0x1956
    45d5:	ba cf 70             	mov    dx,0x70cf
    45d8:	8a 06 02 72          	mov    al,BYTE PTR ds:0x7202
    45dc:	3c 10                	cmp    al,0x10
    45de:	75 40                	jne    0x4620
    45e0:	fe 4d d1             	dec    BYTE PTR [di-0x2f]
    45e3:	8a 06 03 72          	mov    al,BYTE PTR ds:0x7203
    45e7:	24 7f                	and    al,0x7f
    45e9:	8b ea                	mov    bp,dx
    45eb:	88 46 00             	mov    BYTE PTR [bp+0x0],al
    45ee:	42                   	inc    dx
    45ef:	bb 03 72             	mov    bx,0x7203
    45f2:	b5 00                	mov    ch,0x0
    45f4:	f6 07 80             	test   BYTE PTR [bx],0x80
    45f7:	75 06                	jne    0x45ff
    45f9:	43                   	inc    bx
    45fa:	fe c5                	inc    ch
    45fc:	e9 f5 ff             	jmp    0x45f4
    45ff:	8a c5                	mov    al,ch
    4601:	08 c0                	or     al,al
    4603:	74 12                	je     0x4617
    4605:	8a 07                	mov    al,BYTE PTR [bx]
    4607:	24 7f                	and    al,0x7f
    4609:	8b ea                	mov    bp,dx
    460b:	88 46 00             	mov    BYTE PTR [bp+0x0],al
    460e:	4b                   	dec    bx
    460f:	42                   	inc    dx
    4610:	fe 4d d1             	dec    BYTE PTR [di-0x2f]
    4613:	fe cd                	dec    ch
    4615:	75 ee                	jne    0x4605
    4617:	b9 56 6e             	mov    cx,0x6e56
    461a:	e8 59 00             	call   0x4676
    461d:	e9 55 00             	jmp    0x4675
    4620:	bb 03 72             	mov    bx,0x7203
    4623:	f6 07 80             	test   BYTE PTR [bx],0x80
    4626:	75 04                	jne    0x462c
    4628:	43                   	inc    bx
    4629:	e9 f7 ff             	jmp    0x4623
    462c:	43                   	inc    bx
    462d:	89 5d dd             	mov    WORD PTR [di-0x23],bx
    4630:	b9 56 6e             	mov    cx,0x6e56
    4633:	8a 07                	mov    al,BYTE PTR [bx]
    4635:	d0 e0                	shl    al,1
    4637:	72 0e                	jb     0x4647
    4639:	f6 07 80             	test   BYTE PTR [bx],0x80
    463c:	75 06                	jne    0x4644
    463e:	e8 46 00             	call   0x4687
    4641:	e9 f5 ff             	jmp    0x4639
    4644:	e9 1c 00             	jmp    0x4663
    4647:	8a 07                	mov    al,BYTE PTR [bx]
    4649:	3c ff                	cmp    al,0xff
    464b:	74 1c                	je     0x4669
    464d:	3c ef                	cmp    al,0xef
    464f:	75 06                	jne    0x4657
    4651:	e8 33 00             	call   0x4687
    4654:	e9 09 00             	jmp    0x4660
    4657:	d0 e0                	shl    al,1
    4659:	d0 e0                	shl    al,1
    465b:	72 03                	jb     0x4660
    465d:	e8 27 00             	call   0x4687
    4660:	e8 24 00             	call   0x4687
    4663:	e8 10 00             	call   0x4676
    4666:	e9 ca ff             	jmp    0x4633
    4669:	bb cf 70             	mov    bx,0x70cf
    466c:	89 5d cf             	mov    WORD PTR [di-0x31],bx
    466f:	bb 54 6e             	mov    bx,0x6e54
    4672:	89 5d cd             	mov    WORD PTR [di-0x33],bx
    4675:	c3                   	ret    
    4676:	8a c2                	mov    al,dl
    4678:	8b e9                	mov    bp,cx
    467a:	88 46 00             	mov    BYTE PTR [bp+0x0],al
    467d:	41                   	inc    cx
    467e:	8a c6                	mov    al,dh
    4680:	8b e9                	mov    bp,cx
    4682:	88 46 00             	mov    BYTE PTR [bp+0x0],al
    4685:	41                   	inc    cx
    4686:	c3                   	ret    
    4687:	8a 07                	mov    al,BYTE PTR [bx]
    4689:	8b ea                	mov    bp,dx
    468b:	88 46 00             	mov    BYTE PTR [bp+0x0],al
    468e:	43                   	inc    bx
    468f:	42                   	inc    dx
    4690:	fe 4d d1             	dec    BYTE PTR [di-0x2f]
    4693:	c3                   	ret    
    4694:	b0 80                	mov    al,0x80
    4696:	e9 02 00             	jmp    0x469b
    4699:	b0 00                	mov    al,0x0
    469b:	88 45 8b             	mov    BYTE PTR [di-0x75],al
    469e:	e8 3d 0f             	call   0x55de
    46a1:	05 df 47             	add    ax,0x47df
    46a4:	1b d0                	sbb    dx,ax
    46a6:	47                   	inc    di
    46a7:	fd                   	std    
    46a8:	0d dd 47             	or     ax,0x47dd
    46ab:	80 dd 47             	sbb    ch,0x47
    46ae:	ff                   	(bad)  
    46af:	e8 98 ba             	call   0x14a
    46b2:	8a 45 8b             	mov    al,BYTE PTR [di-0x75]
    46b5:	08 c0                	or     al,al
    46b7:	75 06                	jne    0x46bf
    46b9:	8a 45 a8             	mov    al,BYTE PTR [di-0x58]
    46bc:	e9 03 00             	jmp    0x46c2
    46bf:	8a 45 a9             	mov    al,BYTE PTR [di-0x57]
    46c2:	3c 20                	cmp    al,0x20
    46c4:	72 07                	jb     0x46cd
    46c6:	3c 7f                	cmp    al,0x7f
    46c8:	73 03                	jae    0x46cd
    46ca:	e8 82 ce             	call   0x154f
    46cd:	e9 ce ff             	jmp    0x469e
    46d0:	e8 14 cf             	call   0x15e7
    46d3:	73 05                	jae    0x46da
    46d5:	e8 91 d0             	call   0x1769
    46d8:	f9                   	stc    
    46d9:	c3                   	ret    
    46da:	e9 c1 ff             	jmp    0x469e
    46dd:	f8                   	clc    
    46de:	c3                   	ret    
    46df:	b0 00                	mov    al,0x0
    46e1:	e8 b8 cd             	call   0x149c
    46e4:	e8 88 ea             	call   0x316f
    46e7:	c3                   	ret    
    46e8:	bb ff ff             	mov    bx,0xffff
    46eb:	89 1e ae 74          	mov    WORD PTR ds:0x74ae,bx
    46ef:	c3                   	ret    
    46f0:	ba ff ff             	mov    dx,0xffff
    46f3:	89 16 94 72          	mov    WORD PTR ds:0x7294,dx
    46f7:	c3                   	ret    
    46f8:	bb ff 00             	mov    bx,0xff
    46fb:	89 1e 92 72          	mov    WORD PTR ds:0x7292,bx
    46ff:	c3                   	ret    
    4700:	8b 1e 92 72          	mov    bx,WORD PTR ds:0x7292
    4704:	e9 14 00             	jmp    0x471b
    4707:	e8 49 10             	call   0x5753
    470a:	87 d3                	xchg   bx,dx
    470c:	8b 1e 92 72          	mov    bx,WORD PTR ds:0x7292
    4710:	08 c0                	or     al,al
    4712:	19 d3                	sbb    bx,dx
    4714:	75 03                	jne    0x4719
    4716:	e9 4a 00             	jmp    0x4763
    4719:	87 d3                	xchg   bx,dx
    471b:	8a 45 bb             	mov    al,BYTE PTR [di-0x45]
    471e:	9f                   	lahf   
    471f:	86 e0                	xchg   al,ah
    4721:	50                   	push   ax
    4722:	86 e0                	xchg   al,ah
    4724:	53                   	push   bx
    4725:	b0 23                	mov    al,0x23
    4727:	e8 72 cd             	call   0x149c
    472a:	8b 1e ae 74          	mov    bx,WORD PTR ds:0x74ae
    472e:	43                   	inc    bx
    472f:	8a c7                	mov    al,bh
    4731:	08 d8                	or     al,bl
    4733:	74 0a                	je     0x473f
    4735:	4b                   	dec    bx
    4736:	e8 73 ce             	call   0x15ac
    4739:	e8 60 ce             	call   0x159c
    473c:	3a 20                	cmp    ah,BYTE PTR [bx+si]
    473e:	80 8b 1e 94 72       	or     BYTE PTR [bp+di-0x6be2],0x72
    4743:	43                   	inc    bx
    4744:	8a c7                	mov    al,bh
    4746:	08 d8                	or     al,bl
    4748:	74 0a                	je     0x4754
    474a:	4b                   	dec    bx
    474b:	e8 5e ce             	call   0x15ac
    474e:	e8 4b ce             	call   0x159c
    4751:	3a 20                	cmp    ah,BYTE PTR [bx+si]
    4753:	80 5b 89 1e          	sbb    BYTE PTR [bp+di-0x77],0x1e
    4757:	92                   	xchg   dx,ax
    4758:	72 e8                	jb     0x4742
    475a:	50                   	push   ax
    475b:	ce                   	into   
    475c:	58                   	pop    ax
    475d:	86 e0                	xchg   al,ah
    475f:	9e                   	sahf   
    4760:	e8 b6 cd             	call   0x1519
    4763:	8b 1e 98 72          	mov    bx,WORD PTR ds:0x7298
    4767:	d0 e3                	shl    bl,1
    4769:	d0 d7                	rcl    bh,1
    476b:	d0 e3                	shl    bl,1
    476d:	d0 d7                	rcl    bh,1
    476f:	8a c7                	mov    al,bh
    4771:	b3 4e                	mov    bl,0x4e
    4773:	b5 00                	mov    ch,0x0
    4775:	3c 0a                	cmp    al,0xa
    4777:	72 06                	jb     0x477f
    4779:	2c 0a                	sub    al,0xa
    477b:	fe c5                	inc    ch
    477d:	79 f6                	jns    0x4775
    477f:	9f                   	lahf   
    4780:	86 e0                	xchg   al,ah
    4782:	50                   	push   ax
    4783:	86 e0                	xchg   al,ah
    4785:	8a c5                	mov    al,ch
    4787:	3c 0a                	cmp    al,0xa
    4789:	73 1c                	jae    0x47a7
    478b:	9f                   	lahf   
    478c:	86 e0                	xchg   al,ah
    478e:	50                   	push   ax
    478f:	86 e0                	xchg   al,ah
    4791:	8a 06 64 6c          	mov    al,BYTE PTR ds:0x6c64
    4795:	08 c0                	or     al,al
    4797:	74 07                	je     0x47a0
    4799:	b0 20                	mov    al,0x20
    479b:	fe cb                	dec    bl
    479d:	e8 49 00             	call   0x47e9
    47a0:	58                   	pop    ax
    47a1:	86 e0                	xchg   al,ah
    47a3:	9e                   	sahf   
    47a4:	e9 1f 00             	jmp    0x47c6
    47a7:	88 06 64 6c          	mov    BYTE PTR ds:0x6c64,al
    47ab:	b5 00                	mov    ch,0x0
    47ad:	fe c5                	inc    ch
    47af:	2c 0a                	sub    al,0xa
    47b1:	3c 0a                	cmp    al,0xa
    47b3:	73 f8                	jae    0x47ad
    47b5:	fe cb                	dec    bl
    47b7:	9f                   	lahf   
    47b8:	86 e0                	xchg   al,ah
    47ba:	50                   	push   ax
    47bb:	86 e0                	xchg   al,ah
    47bd:	8a c5                	mov    al,ch
    47bf:	e8 25 00             	call   0x47e7
    47c2:	58                   	pop    ax
    47c3:	86 e0                	xchg   al,ah
    47c5:	9e                   	sahf   
    47c6:	e8 1e 00             	call   0x47e7
    47c9:	58                   	pop    ax
    47ca:	86 e0                	xchg   al,ah
    47cc:	9e                   	sahf   
    47cd:	e8 17 00             	call   0x47e7
    47d0:	8a 06 99 72          	mov    al,BYTE PTR ds:0x7299
    47d4:	08 c0                	or     al,al
    47d6:	75 0e                	jne    0x47e6
    47d8:	8a 06 98 72          	mov    al,BYTE PTR ds:0x7298
    47dc:	3c 10                	cmp    al,0x10
    47de:	73 06                	jae    0x47e6
    47e0:	4b                   	dec    bx
    47e1:	b0 4d                	mov    al,0x4d
    47e3:	e8 f3 ce             	call   0x16d9
    47e6:	c3                   	ret    
    47e7:	0c 30                	or     al,0x30
    47e9:	e8 ed ce             	call   0x16d9
    47ec:	fe c3                	inc    bl
    47ee:	c3                   	ret    
    47ef:	89 5d d5             	mov    WORD PTR [di-0x2b],bx
    47f2:	8a 45 a0             	mov    al,BYTE PTR [di-0x60]
    47f5:	3c 43                	cmp    al,0x43
    47f7:	75 0f                	jne    0x4808
    47f9:	bb 35 6d             	mov    bx,0x6d35
    47fc:	ba 36 6d             	mov    dx,0x6d36
    47ff:	8a 6c 30             	mov    ch,BYTE PTR [si+0x30]
    4802:	8a 4c 31             	mov    cl,BYTE PTR [si+0x31]
    4805:	e9 0c 00             	jmp    0x4814
    4808:	bb 36 6d             	mov    bx,0x6d36
    480b:	ba 35 6d             	mov    dx,0x6d35
    480e:	8a 6c 31             	mov    ch,BYTE PTR [si+0x31]
    4811:	8a 4c 30             	mov    cl,BYTE PTR [si+0x30]
    4814:	88 6d d7             	mov    BYTE PTR [di-0x29],ch
    4817:	88 4d d8             	mov    BYTE PTR [di-0x28],cl
    481a:	89 5d d9             	mov    WORD PTR [di-0x27],bx
    481d:	89 55 db             	mov    WORD PTR [di-0x25],dx
    4820:	b0 00                	mov    al,0x0
    4822:	8b ea                	mov    bp,dx
    4824:	88 46 00             	mov    BYTE PTR [bp+0x0],al
    4827:	b0 00                	mov    al,0x0
    4829:	8b 5d d9             	mov    bx,WORD PTR [di-0x27]
    482c:	88 07                	mov    BYTE PTR [bx],al
    482e:	e8 e9 b8             	call   0x11a
    4831:	e8 16 fb             	call   0x434a
    4834:	72 26                	jb     0x485c
    4836:	26 8a 06 02 00       	mov    al,BYTE PTR es:0x2
    483b:	24 f0                	and    al,0xf0
    483d:	8e 06 90 72          	mov    es,WORD PTR ds:0x7290
    4841:	3c 00                	cmp    al,0x0
    4843:	75 17                	jne    0x485c
    4845:	e8 94 0f             	call   0x57dc
    4848:	8b 5d d5             	mov    bx,WORD PTR [di-0x2b]
    484b:	e8 24 cd             	call   0x1572
    484e:	73 09                	jae    0x4859
    4850:	e8 9f 0f             	call   0x57f2
    4853:	e8 ea 0e             	call   0x5740
    4856:	e9 42 0f             	jmp    0x579b
    4859:	e8 96 0f             	call   0x57f2
    485c:	8b 5d d9             	mov    bx,WORD PTR [di-0x27]
    485f:	fe 07                	inc    BYTE PTR [bx]
    4861:	8a 45 d7             	mov    al,BYTE PTR [di-0x29]
    4864:	3a 07                	cmp    al,BYTE PTR [bx]
    4866:	77 c9                	ja     0x4831
    4868:	8b 5d db             	mov    bx,WORD PTR [di-0x25]
    486b:	fe 07                	inc    BYTE PTR [bx]
    486d:	8a 45 d8             	mov    al,BYTE PTR [di-0x28]
    4870:	3a 07                	cmp    al,BYTE PTR [bx]
    4872:	77 b3                	ja     0x4827
    4874:	e9 24 0f             	jmp    0x579b
    4877:	8a 06 e6 73          	mov    al,BYTE PTR ds:0x73e6
    487b:	3c 70                	cmp    al,0x70
    487d:	72 05                	jb     0x4884
    487f:	b0 00                	mov    al,0x0
    4881:	08 c0                	or     al,al
    4883:	c3                   	ret    
    4884:	8a 06 ea 73          	mov    al,BYTE PTR ds:0x73ea
    4888:	04 20                	add    al,0x20
    488a:	3c 40                	cmp    al,0x40
    488c:	72 0b                	jb     0x4899
    488e:	e8 36 bc             	call   0x4c7
    4891:	b0 72                	mov    al,0x72
    4893:	88 06 e6 73          	mov    BYTE PTR ds:0x73e6,al
    4897:	b0 00                	mov    al,0x0
    4899:	8a e8                	mov    ch,al
    489b:	8a 06 e9 73          	mov    al,BYTE PTR ds:0x73e9
    489f:	08 c0                	or     al,al
    48a1:	8a c5                	mov    al,ch
    48a3:	79 02                	jns    0x48a7
    48a5:	0c 40                	or     al,0x40
    48a7:	c3                   	ret    
    48a8:	24 7f                	and    al,0x7f
    48aa:	8a e8                	mov    ch,al
    48ac:	d0 e0                	shl    al,1
    48ae:	24 80                	and    al,0x80
    48b0:	88 06 e9 73          	mov    BYTE PTR ds:0x73e9,al
    48b4:	8a c5                	mov    al,ch
    48b6:	24 3f                	and    al,0x3f
    48b8:	04 e0                	add    al,0xe0
    48ba:	88 06 ea 73          	mov    BYTE PTR ds:0x73ea,al
    48be:	c3                   	ret    
    48bf:	80 4c 61 62          	or     BYTE PTR [si+0x61],0x62
    48c3:	65 6c                	gs ins BYTE PTR es:[di],dx
    48c5:	80 4c 61 62          	or     BYTE PTR [si+0x61],0x62
    48c9:	65 6c                	gs ins BYTE PTR es:[di],dx
    48cb:	3a 20                	cmp    ah,BYTE PTR [bx+si]
    48cd:	52                   	push   dx
    48ce:	65 70 65             	gs jo  0x4936
    48d1:	61                   	popa   
    48d2:	74 69                	je     0x493d
    48d4:	6e                   	outs   dx,BYTE PTR ds:[si]
    48d5:	67 80 56 61 6c       	adc    BYTE PTR [esi+0x61],0x6c
    48da:	75 65                	jne    0x4941
    48dc:	80 43 6f 6d          	add    BYTE PTR [bp+di+0x6f],0x6d
    48e0:	6d                   	ins    WORD PTR es:[di],dx
    48e1:	61                   	popa   
    48e2:	6e                   	outs   dx,BYTE PTR ds:[si]
    48e3:	64 3a 20             	cmp    ah,BYTE PTR fs:[bx+si]
    48e6:	42                   	inc    dx
    48e7:	43                   	inc    bx
    48e8:	44                   	inc    sp
    48e9:	45                   	inc    bp
    48ea:	46                   	inc    si
    48eb:	47                   	inc    di
    48ec:	49                   	dec    cx
    48ed:	4d                   	dec    bp
    48ee:	50                   	push   ax
    48ef:	52                   	push   dx
    48f0:	53                   	push   bx
    48f1:	54                   	push   sp
    48f2:	56                   	push   si
    48f3:	57                   	push   di
    48f4:	2d 80 4c             	sub    ax,0x4c80
    48f7:	61                   	popa   
    48f8:	62 65 6c             	bound  sp,DWORD PTR [di+0x6c]
    48fb:	3a 20                	cmp    ah,BYTE PTR [bx+si]
    48fd:	52                   	push   dx
    48fe:	65 70 65             	gs jo  0x4966
    4901:	61                   	popa   
    4902:	74 69                	je     0x496d
    4904:	6e                   	outs   dx,BYTE PTR ds:[si]
    4905:	67 80 4c 61 62 65    	or     BYTE PTR [ecx+eiz*2+0x62],0x65
    490b:	6c                   	ins    BYTE PTR es:[di],dx
    490c:	80 56 61 6c          	adc    BYTE PTR [bp+0x61],0x6c
    4910:	75 65                	jne    0x4977
    4912:	80 5b 45 64          	sbb    BYTE PTR [bp+di+0x45],0x64
    4916:	69 74 5d 80 47       	imul   si,WORD PTR [si+0x5d],0x4780
    491b:	6f                   	outs   dx,WORD PTR ds:[si]
    491c:	20 74 6f             	and    BYTE PTR [si+0x6f],dh
    491f:	3a 20                	cmp    ah,BYTE PTR [bx+si]
    4921:	43                   	inc    bx
    4922:	6f                   	outs   dx,WORD PTR ds:[si]
    4923:	6f                   	outs   dx,WORD PTR ds:[si]
    4924:	72 64                	jb     0x498a
    4926:	69 6e 61 74 65       	imul   bp,WORD PTR [bp+0x61],0x6574
    492b:	80 52 65 70          	adc    BYTE PTR [bp+si+0x65],0x70
    492f:	6c                   	ins    BYTE PTR es:[di],dx
    4930:	69 63 61 74 65       	imul   sp,WORD PTR [bp+di+0x61],0x6574
    4935:	3a 20                	cmp    ah,BYTE PTR [bx+si]
    4937:	53                   	push   bx
    4938:	6f                   	outs   dx,WORD PTR ds:[si]
    4939:	75 72                	jne    0x49ad
    493b:	63 65 20             	arpl   WORD PTR [di+0x20],sp
    493e:	72 61                	jb     0x49a1
    4940:	6e                   	outs   dx,BYTE PTR ds:[si]
    4941:	67 65 20 6f 72       	and    BYTE PTR gs:[edi+0x72],ch
    4946:	20 45 4e             	and    BYTE PTR [di+0x4e],al
    4949:	54                   	push   sp
    494a:	45                   	inc    bp
    494b:	52                   	push   dx
    494c:	80 52 65 70          	adc    BYTE PTR [bp+si+0x65],0x70
    4950:	6c                   	ins    BYTE PTR es:[di],dx
    4951:	69 63 61 74 65       	imul   sp,WORD PTR [bp+di+0x61],0x6574
    4956:	3a 20                	cmp    ah,BYTE PTR [bx+si]
    4958:	54                   	push   sp
    4959:	61                   	popa   
    495a:	72 67                	jb     0x49c3
    495c:	65 74 20             	gs je  0x497f
    495f:	72 61                	jb     0x49c2
    4961:	6e                   	outs   dx,BYTE PTR ds:[si]
    4962:	67 65 80 52 65 70    	adc    BYTE PTR gs:[edx+0x65],0x70
    4968:	6c                   	ins    BYTE PTR es:[di],dx
    4969:	69 63 61 74 65       	imul   sp,WORD PTR [bp+di+0x61],0x6574
    496e:	3a 20                	cmp    ah,BYTE PTR [bx+si]
    4970:	4e                   	dec    si
    4971:	3d 4e 6f             	cmp    ax,0x6f4e
    4974:	20 43 68             	and    BYTE PTR [bp+di+0x68],al
    4977:	61                   	popa   
    4978:	6e                   	outs   dx,BYTE PTR ds:[si]
    4979:	67 65 2c 20          	addr32 gs sub al,0x20
    497d:	52                   	push   dx
    497e:	3d 52 65             	cmp    ax,0x6552
    4981:	6c                   	ins    BYTE PTR es:[di],dx
    4982:	61                   	popa   
    4983:	74 69                	je     0x49ee
    4985:	76 65                	jbe    0x49ec
    4987:	80 47 6c 6f          	add    BYTE PTR [bx+0x6c],0x6f
    498b:	62 61 6c             	bound  sp,DWORD PTR [bx+di+0x6c]
    498e:	3a 20                	cmp    ah,BYTE PTR [bx+si]
    4990:	43                   	inc    bx
    4991:	20 4f 20             	and    BYTE PTR [bx+0x20],cl
    4994:	52                   	push   dx
    4995:	20 46 80             	and    BYTE PTR [bp-0x80],al
    4998:	43                   	inc    bx
    4999:	6f                   	outs   dx,WORD PTR ds:[si]
    499a:	6c                   	ins    BYTE PTR es:[di],dx
    499b:	75 6d                	jne    0x4a0a
    499d:	6e                   	outs   dx,BYTE PTR ds:[si]
    499e:	20 77 69             	and    BYTE PTR [bx+0x69],dh
    49a1:	64 74 68             	fs je  0x4a0c
    49a4:	80 52 65 65          	adc    BYTE PTR [bp+si+0x65],0x65
    49a8:	76 61                	jbe    0x4a0b
    49aa:	6c                   	ins    BYTE PTR es:[di],dx
    49ab:	20 4f 72             	and    BYTE PTR [bx+0x72],cl
    49ae:	64 65 72 3a          	fs gs jb 0x49ec
    49b2:	20 52 20             	and    BYTE PTR [bp+si+0x20],dl
    49b5:	43                   	inc    bx
    49b6:	80 52 65 63          	adc    BYTE PTR [bp+si+0x65],0x63
    49ba:	61                   	popa   
    49bb:	6c                   	ins    BYTE PTR es:[di],dx
    49bc:	63 3a                	arpl   WORD PTR [bp+si],di
    49be:	20 41 20             	and    BYTE PTR [bx+di+0x20],al
    49c1:	4d                   	dec    bp
    49c2:	80 57 69 6e          	adc    BYTE PTR [bx+0x69],0x6e
    49c6:	64 6f                	outs   dx,WORD PTR fs:[si]
    49c8:	77 3a                	ja     0x4a04
    49ca:	20 48 20             	and    BYTE PTR [bx+si+0x20],cl
    49cd:	56                   	push   si
    49ce:	20 31                	and    BYTE PTR [bx+di],dh
    49d0:	20 53 20             	and    BYTE PTR [bp+di+0x20],dl
    49d3:	55                   	push   bp
    49d4:	80 54 69 74          	adc    BYTE PTR [si+0x69],0x74
    49d8:	6c                   	ins    BYTE PTR es:[di],dx
    49d9:	65 73 3a             	gs jae 0x4a16
    49dc:	20 48 20             	and    BYTE PTR [bx+si+0x20],cl
    49df:	56                   	push   si
    49e0:	20 42 20             	and    BYTE PTR [bp+si+0x20],al
    49e3:	4e                   	dec    si
    49e4:	80 44 61 74          	add    BYTE PTR [si+0x61],0x74
    49e8:	61                   	popa   
    49e9:	3a 20                	cmp    ah,BYTE PTR [bx+si]
    49eb:	53                   	push   bx
    49ec:	61                   	popa   
    49ed:	76 65                	jbe    0x4a54
    49ef:	20 4c 6f             	and    BYTE PTR [si+0x6f],cl
    49f2:	61                   	popa   
    49f3:	64 80 44 61 74       	add    BYTE PTR fs:[si+0x61],0x74
    49f8:	61                   	popa   
    49f9:	20 6c 6f             	and    BYTE PTR [si+0x6f],ch
    49fc:	61                   	popa   
    49fd:	64 80 44 61 74       	add    BYTE PTR fs:[si+0x61],0x74
    4a02:	61                   	popa   
    4a03:	20 73 61             	and    BYTE PTR [bp+di+0x61],dh
    4a06:	76 65                	jbe    0x4a6d
    4a08:	80 4c 6f 77          	or     BYTE PTR [si+0x6f],0x77
    4a0c:	65 72 20             	gs jb  0x4a2f
    4a0f:	72 69                	jb     0x4a7a
    4a11:	67 68 74 80          	addr32 push 0x8074
    4a15:	46                   	inc    si
    4a16:	69 6c 65 20 74       	imul   bp,WORD PTR [si+0x65],0x7420
    4a1b:	6f                   	outs   dx,WORD PTR ds:[si]
    4a1c:	20 4c 6f             	and    BYTE PTR [si+0x6f],cl
    4a1f:	61                   	popa   
    4a20:	64 80 4c 6f 61       	or     BYTE PTR fs:[si+0x6f],0x61
    4a25:	64 69 6e 67 80 4c    	imul   bp,WORD PTR fs:[bp+0x67],0x4c80
    4a2b:	6f                   	outs   dx,WORD PTR ds:[si]
    4a2c:	61                   	popa   
    4a2d:	64 69 6e 67 20 2a    	imul   bp,WORD PTR fs:[bp+0x67],0x2a20
    4a33:	80 46 69 6c          	add    BYTE PTR [bp+0x69],0x6c
    4a37:	65 20 66 6f          	and    BYTE PTR gs:[bp+0x6f],ah
    4a3b:	72 20                	jb     0x4a5d
    4a3d:	53                   	push   bx
    4a3e:	61                   	popa   
    4a3f:	76 69                	jbe    0x4aaa
    4a41:	6e                   	outs   dx,BYTE PTR ds:[si]
    4a42:	67 80 46 69 6c       	add    BYTE PTR [esi+0x69],0x6c
    4a47:	65 20 74 6f          	and    BYTE PTR gs:[si+0x6f],dh
    4a4b:	20 44 65             	and    BYTE PTR [si+0x65],al
    4a4e:	6c                   	ins    BYTE PTR es:[di],dx
    4a4f:	65 74 65             	gs je  0x4ab7
    4a52:	80 46 69 6c          	add    BYTE PTR [bp+0x69],0x6c
    4a56:	65 20 65 78          	and    BYTE PTR gs:[di+0x78],ah
    4a5a:	69 73 74 73 2e       	imul   si,WORD PTR [bp+di+0x74],0x2e73
    4a5f:	20 59 20             	and    BYTE PTR [bx+di+0x20],bl
    4a62:	74 6f                	je     0x4ad3
    4a64:	20 72 65             	and    BYTE PTR [bp+si+0x65],dh
    4a67:	70 6c                	jo     0x4ad5
    4a69:	61                   	popa   
    4a6a:	63 65 80             	arpl   WORD PTR [di-0x80],sp
    4a6d:	44                   	inc    sp
    4a6e:	65 6c                	gs ins BYTE PTR es:[di],dx
    4a70:	65 74 65             	gs je  0x4ad8
    4a73:	20 46 69             	and    BYTE PTR [bp+0x69],al
    4a76:	6c                   	ins    BYTE PTR es:[di],dx
    4a77:	65 80 53 74 6f       	adc    BYTE PTR gs:[bp+di+0x74],0x6f
    4a7c:	72 61                	jb     0x4adf
    4a7e:	67 65 80 51 75 69    	adc    BYTE PTR gs:[ecx+0x75],0x69
    4a84:	74 80                	je     0x4a06
    4a86:	4c                   	dec    sp
    4a87:	20 53 20             	and    BYTE PTR [bp+di+0x20],dl
    4a8a:	44                   	inc    sp
    4a8b:	20 51 20             	and    BYTE PTR [bx+di+0x20],dl
    4a8e:	23 80 49 6e          	and    ax,WORD PTR [bx+si+0x6e49]
    4a92:	73 65                	jae    0x4af9
    4a94:	72 74                	jb     0x4b0a
    4a96:	80 44 65 6c          	add    BYTE PTR [si+0x65],0x6c
    4a9a:	65 74 65             	gs je  0x4b02
    4a9d:	80 52 20 43          	adc    BYTE PTR [bp+si+0x20],0x43
    4aa1:	80 52 20 43          	adc    BYTE PTR [bp+si+0x20],0x43
    4aa5:	20 6f 72             	and    BYTE PTR [bx+0x72],ch
    4aa8:	20 45 4e             	and    BYTE PTR [di+0x4e],al
    4aab:	54                   	push   sp
    4aac:	45                   	inc    bp
    4aad:	52                   	push   dx
    4aae:	80 4d 6f 76          	or     BYTE PTR [di+0x6f],0x76
    4ab2:	65 3a 20             	cmp    ah,BYTE PTR gs:[bx+si]
    4ab5:	46                   	inc    si
    4ab6:	72 6f                	jb     0x4b27
    4ab8:	6d                   	ins    WORD PTR es:[di],dx
    4ab9:	2e 2e 2e 54          	cs cs cs push sp
    4abd:	6f                   	outs   dx,WORD PTR ds:[si]
    4abe:	80 46 6f 72          	add    BYTE PTR [bp+0x6f],0x72
    4ac2:	6d                   	ins    WORD PTR es:[di],dx
    4ac3:	61                   	popa   
    4ac4:	74 3a                	je     0x4b00
    4ac6:	20 44 20             	and    BYTE PTR [si+0x20],al
    4ac9:	47                   	inc    di
    4aca:	20 49 20             	and    BYTE PTR [bx+di+0x20],cl
    4acd:	4c                   	dec    sp
    4ace:	20 52 20             	and    BYTE PTR [bp+si+0x20],dl
    4ad1:	24 20                	and    al,0x20
    4ad3:	2a 80 42 6c          	sub    al,BYTE PTR [bx+si+0x6c42]
    4ad7:	61                   	popa   
    4ad8:	6e                   	outs   dx,BYTE PTR ds:[si]
    4ad9:	6b 80 43 6c 65       	imul   ax,WORD PTR [bx+si+0x6c43],0x65
    4ade:	61                   	popa   
    4adf:	72 80                	jb     0x4a61
    4ae1:	54                   	push   sp
    4ae2:	79 70                	jns    0x4b54
    4ae4:	65 20 59 20          	and    BYTE PTR gs:[bx+di+0x20],bl
    4ae8:	74 6f                	je     0x4b59
    4aea:	20 63 6f             	and    BYTE PTR [bp+di+0x6f],ah
    4aed:	6e                   	outs   dx,BYTE PTR ds:[si]
    4aee:	66 69 72 6d 80 28 43 	imul   esi,DWORD PTR [bp+si+0x6d],0x29432880
    4af5:	29 
    4af6:	20 31                	and    BYTE PTR [bx+di],dh
    4af8:	39 37                	cmp    WORD PTR [bx],si
    4afa:	39 2c                	cmp    WORD PTR [si],bp
    4afc:	31 39                	xor    WORD PTR [bx+di],di
    4afe:	38 31                	cmp    BYTE PTR [bx+di],dh
    4b00:	20 53 6f             	and    BYTE PTR [bp+di+0x6f],dl
    4b03:	66 74 77             	data32 je 0x4b7d
    4b06:	61                   	popa   
    4b07:	72 65                	jb     0x4b6e
    4b09:	20 41 72             	and    BYTE PTR [bx+di+0x72],al
    4b0c:	74 73                	je     0x4b81
    4b0e:	2c 20                	sub    al,0x20
    4b10:	49                   	dec    cx
    4b11:	6e                   	outs   dx,BYTE PTR ds:[si]
    4b12:	63 2e 20 20          	arpl   WORD PTR ds:0x2020,bp
    4b16:	20 20                	and    BYTE PTR [bx+si],ah
    4b18:	56                   	push   si
    4b19:	43                   	inc    bx
    4b1a:	2d 31 37             	sub    ax,0x3731
    4b1d:	36 59                	ss pop cx
    4b1f:	32 2d                	xor    ch,BYTE PTR [di]
    4b21:	49                   	dec    cx
    4b22:	42                   	inc    dx
    4b23:	4d                   	dec    bp
    4b24:	2d 54 45             	sub    ax,0x4554
    4b27:	53                   	push   bx
    4b28:	54                   	push   sp
    4b29:	20 80 50 72          	and    BYTE PTR [bx+si+0x7250],al
    4b2d:	69 6e 74 3a 20       	imul   bp,WORD PTR [bp+0x74],0x203a
    4b32:	4c                   	dec    sp
    4b33:	6f                   	outs   dx,WORD PTR ds:[si]
    4b34:	77 65                	ja     0x4b9b
    4b36:	72 20                	jb     0x4b58
    4b38:	72 69                	jb     0x4ba3
    4b3a:	67 68 74 2c          	addr32 push 0x2c74
    4b3e:	20 22                	and    BYTE PTR [bp+si],ah
    4b40:	53                   	push   bx
    4b41:	65 74 75             	gs je  0x4bb9
    4b44:	70 2c                	jo     0x4b72
    4b46:	20 2d                	and    BYTE PTR [di],ch
    4b48:	2c 20                	sub    al,0x20
    4b4a:	26 80 50 72 69       	adc    BYTE PTR es:[bx+si+0x72],0x69
    4b4f:	6e                   	outs   dx,BYTE PTR ds:[si]
    4b50:	74 3a                	je     0x4b8c
    4b52:	20 46 69             	and    BYTE PTR [bp+0x69],al
    4b55:	6c                   	ins    BYTE PTR es:[di],dx
    4b56:	65 2c 20             	gs sub al,0x20
    4b59:	50                   	push   ax
    4b5a:	72 69                	jb     0x4bc5
    4b5c:	6e                   	outs   dx,BYTE PTR ds:[si]
    4b5d:	74 65                	je     0x4bc4
    4b5f:	72 80                	jb     0x4ae1
    4b61:	50                   	push   ax
    4b62:	72 69                	jb     0x4bcd
    4b64:	6e                   	outs   dx,BYTE PTR ds:[si]
    4b65:	74 3a                	je     0x4ba1
    4b67:	20 53 65             	and    BYTE PTR [bp+di+0x65],dl
    4b6a:	74 75                	je     0x4be1
    4b6c:	70 20                	jo     0x4b8e
    4b6e:	6f                   	outs   dx,WORD PTR ds:[si]
    4b6f:	72 20                	jb     0x4b91
    4b71:	45                   	inc    bp
    4b72:	4e                   	dec    si
    4b73:	54                   	push   sp
    4b74:	45                   	inc    bp
    4b75:	52                   	push   dx
    4b76:	80 50 72 69          	adc    BYTE PTR [bx+si+0x72],0x69
    4b7a:	6e                   	outs   dx,BYTE PTR ds:[si]
    4b7b:	74 3a                	je     0x4bb7
    4b7d:	20 46 69             	and    BYTE PTR [bp+0x69],al
    4b80:	6c                   	ins    BYTE PTR es:[di],dx
    4b81:	65 6e                	outs   dx,BYTE PTR gs:[si]
    4b83:	61                   	popa   
    4b84:	6d                   	ins    WORD PTR es:[di],dx
    4b85:	65 80 58 80 50       	sbb    BYTE PTR gs:[bx+si-0x80],0x50
    4b8a:	72 69                	jb     0x4bf5
    4b8c:	6e                   	outs   dx,BYTE PTR ds:[si]
    4b8d:	74 65                	je     0x4bf4
    4b8f:	72 20                	jb     0x4bb1
    4b91:	6e                   	outs   dx,BYTE PTR ds:[si]
    4b92:	6f                   	outs   dx,WORD PTR ds:[si]
    4b93:	74 20                	je     0x4bb5
    4b95:	72 65                	jb     0x4bfc
    4b97:	61                   	popa   
    4b98:	64 79 80             	fs jns 0x4b1b
    4b9b:	39 58 d6             	cmp    WORD PTR [bx+si-0x2a],bx
    4b9e:	09 ff                	or     di,di
    4ba0:	00 fc                	add    ah,bh
    4ba2:	00 ed                	add    ch,ch
    4ba4:	07                   	pop    es
    4ba5:	c9                   	leave  
    4ba6:	08 05                	or     BYTE PTR [di],al
    4ba8:	0a fe                	or     bh,dh
    4baa:	0a 86 10 fe          	or     al,BYTE PTR [bp-0x1f0]
    4bae:	00 fd                	add    ch,bh
    4bb0:	00 25                	add    BYTE PTR [di],ah
    4bb2:	15 42 15             	adc    ax,0x1542
    4bb5:	5f                   	pop    di
    4bb6:	15 2e 15             	adc    ax,0x152e
    4bb9:	4b                   	dec    bx
    4bba:	15 dd 14             	adc    ax,0x14dd
    4bbd:	28 37                	sub    BYTE PTR [bx],dh
    4bbf:	2d 37 9e             	sub    ax,0x9e37
    4bc2:	37                   	aaa    
    4bc3:	fc                   	cld    
    4bc4:	37                   	aaa    
    4bc5:	c2 37 f4             	ret    0xf437
    4bc8:	37                   	aaa    
    4bc9:	40                   	inc    ax
    4bca:	38 a4 37 b3          	cmp    BYTE PTR [si-0x4cc9],ah
    4bce:	37                   	aaa    
    4bcf:	f8                   	clc    
    4bd0:	0d 22 0e             	or     ax,0xe22
    4bd3:	48                   	dec    ax
    4bd4:	11 fa                	adc    dx,di
    4bd6:	11 03                	adc    WORD PTR [bp+di],ax
    4bd8:	12 20                	adc    ah,BYTE PTR [bx+si]
    4bda:	12 c3                	adc    al,bl
    4bdc:	12 cf                	adc    cl,bh
    4bde:	12 16 0f 92          	adc    dl,BYTE PTR ds:0x920f
    4be2:	0f 9b 0f             	setnp  BYTE PTR [bx]
    4be5:	d2 0e 12 12          	ror    BYTE PTR ds:0x1212,cl
    4be9:	59                   	pop    cx
    4bea:	14 63                	adc    al,0x63
    4bec:	14 6d                	adc    al,0x6d
    4bee:	14 68                	adc    al,0x68
    4bf0:	15 82 15             	adc    ax,0x1582
    4bf3:	b8 38 ab             	mov    ax,0xab38
    4bf6:	38 c5                	cmp    ch,al
    4bf8:	38 2b                	cmp    BYTE PTR [bp+di],ch
    4bfa:	39 82 2e ff          	cmp    WORD PTR [bp+si-0xd2],ax
    4bfe:	82 ff 82             	cmp    bh,0x82
    4c01:	81 ff 80 80          	cmp    di,0x8080
    4c05:	80 80 00 00 00       	add    BYTE PTR [bx+si+0x0],0x0
	...
    4c12:	00 00                	add    BYTE PTR [bx+si],al
    4c14:	2b 2d                	sub    bp,WORD PTR [di]
    4c16:	28 00                	sub    BYTE PTR [bx+si],al
    4c18:	2b 2d                	sub    bp,WORD PTR [di]
    4c1a:	2a 2f                	sub    ch,BYTE PTR [bx]
    4c1c:	5e                   	pop    si
    4c1d:	29 2c                	sub    WORD PTR [si],bp
    4c1f:	3c 3c                	cmp    al,0x3c
    4c21:	3e 3e 3c 3d          	ds ds cmp al,0x3d
    4c25:	4e                   	dec    si
    4c26:	c1 45 52 52          	rol    WORD PTR [di+0x52],0x52
    4c2a:	4f                   	dec    di
    4c2b:	d2 53 55             	rcl    BYTE PTR [bp+di+0x55],cl
    4c2e:	cd 4e                	int    0x4e
    4c30:	50                   	push   ax
    4c31:	d6                   	(bad)  
    4c32:	4d                   	dec    bp
    4c33:	49                   	dec    cx
    4c34:	ce                   	into   
    4c35:	4d                   	dec    bp
    4c36:	41                   	inc    cx
    4c37:	d8 4c 4f             	fmul   DWORD PTR [si+0x4f]
    4c3a:	4f                   	dec    di
    4c3b:	4b                   	dec    bx
    4c3c:	55                   	push   bp
    4c3d:	d0 43 4f             	rol    BYTE PTR [bp+di+0x4f],1
    4c40:	55                   	push   bp
    4c41:	4e                   	dec    si
    4c42:	d4 41                	aam    0x41
    4c44:	56                   	push   si
    4c45:	45                   	inc    bp
    4c46:	52                   	push   dx
    4c47:	41                   	inc    cx
    4c48:	47                   	inc    di
    4c49:	c5 49 4e             	lds    cx,DWORD PTR [bx+di+0x4e]
    4c4c:	d4 41                	aam    0x41
    4c4e:	42                   	inc    dx
    4c4f:	d3 53 49             	rcl    WORD PTR [bp+di+0x49],cl
    4c52:	ce                   	into   
    4c53:	43                   	inc    bx
    4c54:	4f                   	dec    di
    4c55:	d3 54 41             	rcl    WORD PTR [si+0x41],cl
    4c58:	ce                   	into   
    4c59:	41                   	inc    cx
    4c5a:	53                   	push   bx
    4c5b:	49                   	dec    cx
    4c5c:	ce                   	into   
    4c5d:	41                   	inc    cx
    4c5e:	43                   	inc    bx
    4c5f:	4f                   	dec    di
    4c60:	d3 41 54             	rol    WORD PTR [bx+di+0x54],cl
    4c63:	41                   	inc    cx
    4c64:	ce                   	into   
    4c65:	4c                   	dec    sp
    4c66:	4f                   	dec    di
    4c67:	47                   	inc    di
    4c68:	31 b0 4c ce          	xor    WORD PTR [bx+si-0x31b4],si
    4c6c:	45                   	inc    bp
    4c6d:	58                   	pop    ax
    4c6e:	d0 50 c9             	rcl    BYTE PTR [bx+si-0x37],1
    4c71:	53                   	push   bx
    4c72:	51                   	push   cx
    4c73:	52                   	push   dx
    4c74:	d4 54                	aam    0x54
    4c76:	52                   	push   dx
    4c77:	55                   	push   bp
    4c78:	c5 46 41             	lds    ax,DWORD PTR [bp+0x41]
    4c7b:	4c                   	dec    sp
    4c7c:	53                   	push   bx
    4c7d:	c5 4e 4f             	lds    cx,DWORD PTR [bp+0x4f]
    4c80:	d4 49                	aam    0x49
    4c82:	53                   	push   bx
    4c83:	4e                   	dec    si
    4c84:	c1 49 53 45          	ror    WORD PTR [bx+di+0x53],0x45
    4c88:	52                   	push   dx
    4c89:	52                   	push   dx
    4c8a:	4f                   	dec    di
    4c8b:	d2 41 4e             	rol    BYTE PTR [bx+di+0x4e],cl
    4c8e:	c4 4f d2             	les    cx,DWORD PTR [bx-0x2e]
    4c91:	49                   	dec    cx
    4c92:	c6 43 48 4f          	mov    BYTE PTR [bp+di+0x48],0x4f
    4c96:	4f                   	dec    di
    4c97:	53                   	push   bx
    4c98:	c5 ff 00             	(bad)  
    4c9b:	00 80 80 80          	add    BYTE PTR [bx+si-0x7f80],al
    4c9f:	80 80 80 80 a0       	add    BYTE PTR [bx+si-0x7f80],0xa0
    4ca4:	a0 a0 a0             	mov    al,ds:0xa0a0
    4ca7:	a0 a0 a0             	mov    al,ds:0xa0a0
    4caa:	a0 a0 a0             	mov    al,ds:0xa0a0
    4cad:	a0 00 a0             	mov    al,ds:0xa000
    4cb0:	00 00                	add    BYTE PTR [bx+si],al
    4cb2:	a0 a0 a0             	mov    al,ds:0xa0a0
    4cb5:	80 80 80 80 e8       	add    BYTE PTR [bx+si-0x7f80],0xe8
    4cba:	ac                   	lods   al,BYTE PTR ds:[si]
    4cbb:	00 80 4d f9          	add    BYTE PTR [bx+si-0x6b3],al
    4cbf:	80 bb af 4b e8       	cmp    BYTE PTR [bp+di+0x4baf],0xe8
    4cc4:	41                   	inc    cx
    4cc5:	fa                   	cli    
    4cc6:	e8 d0 ca             	call   0x1799
    4cc9:	e8 e3 f0             	call   0x3daf
    4ccc:	73 03                	jae    0x4cd1
    4cce:	e9 61 0a             	jmp    0x5732
    4cd1:	8b 5d e0             	mov    bx,WORD PTR [di-0x20]
    4cd4:	89 5d ec             	mov    WORD PTR [di-0x14],bx
    4cd7:	e8 e9 04             	call   0x51c3
    4cda:	8b 5c 36             	mov    bx,WORD PTR [si+0x36]
    4cdd:	89 5c 28             	mov    WORD PTR [si+0x28],bx
    4ce0:	e8 11 f3             	call   0x3ff4
    4ce3:	73 01                	jae    0x4ce6
    4ce5:	c3                   	ret    
    4ce6:	8b 75 ec             	mov    si,WORD PTR [di-0x14]
    4ce9:	b0 ff                	mov    al,0xff
    4ceb:	f6 45 e4 80          	test   BYTE PTR [di-0x1c],0x80
    4cef:	74 05                	je     0x4cf6
    4cf1:	b0 01                	mov    al,0x1
    4cf3:	e9 03 00             	jmp    0x4cf9
    4cf6:	fe 4c 36             	dec    BYTE PTR [si+0x36]
    4cf9:	88 45 f6             	mov    BYTE PTR [di-0xa],al
    4cfc:	8a 44 34             	mov    al,BYTE PTR [si+0x34]
    4cff:	88 45 f4             	mov    BYTE PTR [di-0xc],al
    4d02:	8a 44 36             	mov    al,BYTE PTR [si+0x36]
    4d05:	88 45 f5             	mov    BYTE PTR [di-0xb],al
    4d08:	be 0d 6d             	mov    si,0x6d0d
    4d0b:	e9 b5 00             	jmp    0x4dc3
    4d0e:	ba 97 4b             	mov    dx,0x4b97
    4d11:	e8 df f9             	call   0x46f3
    4d14:	e8 0c 00             	call   0x4d23
    4d17:	73 01                	jae    0x4d1a
    4d19:	c3                   	ret    
    4d1a:	80 4d f7 80          	or     BYTE PTR [di-0x9],0x80
    4d1e:	b0 ff                	mov    al,0xff
    4d20:	e9 8c 00             	jmp    0x4daf
    4d23:	e8 42 00             	call   0x4d68
    4d26:	bb 9e 4b             	mov    bx,0x4b9e
    4d29:	e8 af 08             	call   0x55db
    4d2c:	43                   	inc    bx
    4d2d:	55                   	push   bp
    4d2e:	4e                   	dec    si
    4d2f:	52                   	push   dx
    4d30:	5b                   	pop    bx
    4d31:	4e                   	dec    si
    4d32:	fe                   	(bad)  
    4d33:	e8 32 00             	call   0x4d68
    4d36:	e8 30 ca             	call   0x1769
    4d39:	bb a2 4b             	mov    bx,0x4ba2
    4d3c:	e8 9c 08             	call   0x55db
    4d3f:	43                   	inc    bx
    4d40:	55                   	push   bp
    4d41:	4e                   	dec    si
    4d42:	52                   	push   dx
    4d43:	5b                   	pop    bx
    4d44:	4e                   	dec    si
    4d45:	0d 5b 4e             	or     ax,0x4e5b
    4d48:	1b 66 4e             	sbb    sp,WORD PTR [bp+0x4e]
    4d4b:	ff                   	(bad)  
    4d4c:	e8 fb b3             	call   0x14a
    4d4f:	e8 ee 09             	call   0x5740
    4d52:	e9 e4 ff             	jmp    0x4d39
    4d55:	bb 0e 6d             	mov    bx,0x6d0e
    4d58:	e9 03 00             	jmp    0x4d5e
    4d5b:	bb 0d 6d             	mov    bx,0x6d0d
    4d5e:	89 5d ec             	mov    WORD PTR [di-0x14],bx
    4d61:	e8 5f 04             	call   0x51c3
    4d64:	f8                   	clc    
    4d65:	c3                   	ret    
    4d66:	f9                   	stc    
    4d67:	c3                   	ret    
    4d68:	80 65 f7 7f          	and    BYTE PTR [di-0x9],0x7f
    4d6c:	80 65 f8 7f          	and    BYTE PTR [di-0x8],0x7f
    4d70:	80 65 f9 7f          	and    BYTE PTR [di-0x7],0x7f
    4d74:	c3                   	ret    
    4d75:	80 65 f7 7f          	and    BYTE PTR [di-0x9],0x7f
    4d79:	ba 90 4b             	mov    dx,0x4b90
    4d7c:	e8 74 f9             	call   0x46f3
    4d7f:	e8 a1 ff             	call   0x4d23
    4d82:	73 01                	jae    0x4d85
    4d84:	c3                   	ret    
    4d85:	8b 75 ec             	mov    si,WORD PTR [di-0x14]
    4d88:	8a 44 2e             	mov    al,BYTE PTR [si+0x2e]
    4d8b:	3a 44 30             	cmp    al,BYTE PTR [si+0x30]
    4d8e:	72 01                	jb     0x4d91
    4d90:	c3                   	ret    
    4d91:	be 0d 6d             	mov    si,0x6d0d
    4d94:	8b 5c 30             	mov    bx,WORD PTR [si+0x30]
    4d97:	89 5c 28             	mov    WORD PTR [si+0x28],bx
    4d9a:	8b 75 ee             	mov    si,WORD PTR [di-0x12]
    4d9d:	fe 4c 28             	dec    BYTE PTR [si+0x28]
    4da0:	be 0d 6d             	mov    si,0x6d0d
    4da3:	e8 6a f2             	call   0x4010
    4da6:	73 01                	jae    0x4da9
    4da8:	c3                   	ret    
    4da9:	80 4d f8 80          	or     BYTE PTR [di-0x8],0x80
    4dad:	b0 01                	mov    al,0x1
    4daf:	88 45 f6             	mov    BYTE PTR [di-0xa],al
    4db2:	8b 75 ec             	mov    si,WORD PTR [di-0x14]
    4db5:	8a 44 2e             	mov    al,BYTE PTR [si+0x2e]
    4db8:	88 45 f4             	mov    BYTE PTR [di-0xc],al
    4dbb:	8a 44 30             	mov    al,BYTE PTR [si+0x30]
    4dbe:	fe c8                	dec    al
    4dc0:	88 45 f5             	mov    BYTE PTR [di-0xb],al
    4dc3:	8b 75 ee             	mov    si,WORD PTR [di-0x12]
    4dc6:	b0 00                	mov    al,0x0
    4dc8:	88 44 28             	mov    BYTE PTR [si+0x28],al
    4dcb:	be 0d 6d             	mov    si,0x6d0d
    4dce:	e8 49 b3             	call   0x11a
    4dd1:	8a 45 f5             	mov    al,BYTE PTR [di-0xb]
    4dd4:	2a 45 f4             	sub    al,BYTE PTR [di-0xc]
    4dd7:	fe c0                	inc    al
    4dd9:	88 45 e7             	mov    BYTE PTR [di-0x19],al
    4ddc:	75 03                	jne    0x4de1
    4dde:	e9 ba 09             	jmp    0x579b
    4de1:	8b 75 ec             	mov    si,WORD PTR [di-0x14]
    4de4:	f6 45 f6 80          	test   BYTE PTR [di-0xa],0x80
    4de8:	74 06                	je     0x4df0
    4dea:	8a 45 f4             	mov    al,BYTE PTR [di-0xc]
    4ded:	e9 03 00             	jmp    0x4df3
    4df0:	8a 45 f5             	mov    al,BYTE PTR [di-0xb]
    4df3:	88 44 28             	mov    BYTE PTR [si+0x28],al
    4df6:	be 0d 6d             	mov    si,0x6d0d
    4df9:	e8 0e f5             	call   0x430a
    4dfc:	8a 45 85             	mov    al,BYTE PTR [di-0x7b]
    4dff:	08 c0                	or     al,al
    4e01:	75 03                	jne    0x4e06
    4e03:	e9 95 09             	jmp    0x579b
    4e06:	e8 01 f5             	call   0x430a
    4e09:	f6 45 f7 80          	test   BYTE PTR [di-0x9],0x80
    4e0d:	74 03                	je     0x4e12
    4e0f:	e8 f4 ef             	call   0x3e06
    4e12:	8b 5d 84             	mov    bx,WORD PTR [di-0x7c]
    4e15:	8a 17                	mov    dl,BYTE PTR [bx]
    4e17:	43                   	inc    bx
    4e18:	8a 37                	mov    dh,BYTE PTR [bx]
    4e1a:	4b                   	dec    bx
    4e1b:	f6 45 f7 80          	test   BYTE PTR [di-0x9],0x80
    4e1f:	74 09                	je     0x4e2a
    4e21:	ba 00 00             	mov    dx,0x0
    4e24:	88 17                	mov    BYTE PTR [bx],dl
    4e26:	43                   	inc    bx
    4e27:	88 37                	mov    BYTE PTR [bx],dh
    4e29:	4b                   	dec    bx
    4e2a:	89 55 f2             	mov    WORD PTR [di-0xe],dx
    4e2d:	89 5d f0             	mov    WORD PTR [di-0x10],bx
    4e30:	e8 e7 b2             	call   0x11a
    4e33:	e8 d4 f4             	call   0x430a
    4e36:	8b 55 f0             	mov    dx,WORD PTR [di-0x10]
    4e39:	8b 5d 84             	mov    bx,WORD PTR [di-0x7c]
    4e3c:	53                   	push   bx
    4e3d:	b9 02 00             	mov    cx,0x2
    4e40:	9c                   	pushf  
    4e41:	87 f3                	xchg   bx,si
    4e43:	87 fa                	xchg   dx,di
    4e45:	fc                   	cld    
    4e46:	f3 a4                	rep movs BYTE PTR es:[di],BYTE PTR ds:[si]
    4e48:	87 f3                	xchg   bx,si
    4e4a:	87 fa                	xchg   dx,di
    4e4c:	9d                   	popf   
    4e4d:	5a                   	pop    dx
    4e4e:	52                   	push   dx
    4e4f:	bb d7 6c             	mov    bx,0x6cd7
    4e52:	b9 02 00             	mov    cx,0x2
    4e55:	9c                   	pushf  
    4e56:	87 f3                	xchg   bx,si
    4e58:	87 fa                	xchg   dx,di
    4e5a:	fc                   	cld    
    4e5b:	f3 a4                	rep movs BYTE PTR es:[di],BYTE PTR ds:[si]
    4e5d:	87 f3                	xchg   bx,si
    4e5f:	87 fa                	xchg   dx,di
    4e61:	9d                   	popf   
    4e62:	5b                   	pop    bx
    4e63:	89 5d f0             	mov    WORD PTR [di-0x10],bx
    4e66:	8b 75 ec             	mov    si,WORD PTR [di-0x14]
    4e69:	8a 44 28             	mov    al,BYTE PTR [si+0x28]
    4e6c:	2a 45 f6             	sub    al,BYTE PTR [di-0xa]
    4e6f:	88 44 28             	mov    BYTE PTR [si+0x28],al
    4e72:	fe 4d e7             	dec    BYTE PTR [di-0x19]
    4e75:	be 0d 6d             	mov    si,0x6d0d
    4e78:	75 b6                	jne    0x4e30
    4e7a:	8b 75 ee             	mov    si,WORD PTR [di-0x12]
    4e7d:	fe 44 28             	inc    BYTE PTR [si+0x28]
    4e80:	8a 44 28             	mov    al,BYTE PTR [si+0x28]
    4e83:	3a 44 30             	cmp    al,BYTE PTR [si+0x30]
    4e86:	73 03                	jae    0x4e8b
    4e88:	e9 40 ff             	jmp    0x4dcb
    4e8b:	be 0d 6d             	mov    si,0x6d0d
    4e8e:	8a 45 a3             	mov    al,BYTE PTR [di-0x5d]
    4e91:	9f                   	lahf   
    4e92:	86 e0                	xchg   al,ah
    4e94:	50                   	push   ax
    4e95:	86 e0                	xchg   al,ah
    4e97:	80 4d a3 80          	or     BYTE PTR [di-0x5d],0x80
    4e9b:	bb 1f 52             	mov    bx,0x521f
    4e9e:	f6 45 f8 80          	test   BYTE PTR [di-0x8],0x80
    4ea2:	75 09                	jne    0x4ead
    4ea4:	f6 45 a1 80          	test   BYTE PTR [di-0x5f],0x80
    4ea8:	75 03                	jne    0x4ead
    4eaa:	bb bd 4f             	mov    bx,0x4fbd
    4ead:	e8 3f f9             	call   0x47ef
    4eb0:	58                   	pop    ax
    4eb1:	86 e0                	xchg   al,ah
    4eb3:	9e                   	sahf   
    4eb4:	88 45 a3             	mov    BYTE PTR [di-0x5d],al
    4eb7:	e8 fb dc             	call   0x2bb5
    4eba:	e9 b9 da             	jmp    0x2976
    4ebd:	e8 5f 02             	call   0x511f
    4ec0:	e9 4c eb             	jmp    0x3a0f
    4ec3:	bb 2c 4a             	mov    bx,0x4a2c
    4ec6:	e8 3e f8             	call   0x4707
    4ec9:	e8 06 00             	call   0x4ed2
    4ecc:	72 03                	jb     0x4ed1
    4ece:	e8 18 eb             	call   0x39e9
    4ed1:	c3                   	ret    
    4ed2:	e8 c4 c8             	call   0x1799
    4ed5:	e8 d7 ee             	call   0x3daf
    4ed8:	73 01                	jae    0x4edb
    4eda:	c3                   	ret    
    4edb:	e8 be c6             	call   0x159c
    4ede:	3a 20                	cmp    ah,BYTE PTR [bx+si]
    4ee0:	80 bb 4d 4a e8       	cmp    BYTE PTR [bp+di+0x4a4d],0xe8
    4ee5:	20 f8                	and    al,bh
    4ee7:	8b 5c 34             	mov    bx,WORD PTR [si+0x34]
    4eea:	89 5c 3a             	mov    WORD PTR [si+0x3a],bx
    4eed:	8b 75 e0             	mov    si,WORD PTR [di-0x20]
    4ef0:	89 75 e5             	mov    WORD PTR [di-0x1b],si
    4ef3:	8a 44 36             	mov    al,BYTE PTR [si+0x36]
    4ef6:	88 45 e3             	mov    BYTE PTR [di-0x1d],al
    4ef9:	be 0d 6d             	mov    si,0x6d0d
    4efc:	e8 30 ee             	call   0x3d2f
    4eff:	73 01                	jae    0x4f02
    4f01:	c3                   	ret    
    4f02:	e8 e5 da             	call   0x29ea
    4f05:	8b 5c 36             	mov    bx,WORD PTR [si+0x36]
    4f08:	89 5c 28             	mov    WORD PTR [si+0x28],bx
    4f0b:	e8 e6 f0             	call   0x3ff4
    4f0e:	73 01                	jae    0x4f11
    4f10:	c3                   	ret    
    4f11:	e8 28 00             	call   0x4f3c
    4f14:	73 02                	jae    0x4f18
    4f16:	f8                   	clc    
    4f17:	c3                   	ret    
    4f18:	8b 75 e5             	mov    si,WORD PTR [di-0x1b]
    4f1b:	fe 44 34             	inc    BYTE PTR [si+0x34]
    4f1e:	fe 44 36             	inc    BYTE PTR [si+0x36]
    4f21:	8a 44 36             	mov    al,BYTE PTR [si+0x36]
    4f24:	3a 44 2a             	cmp    al,BYTE PTR [si+0x2a]
    4f27:	75 03                	jne    0x4f2c
    4f29:	fe 4c 36             	dec    BYTE PTR [si+0x36]
    4f2c:	8a 44 3a             	mov    al,BYTE PTR [si+0x3a]
    4f2f:	fe 44 3a             	inc    BYTE PTR [si+0x3a]
    4f32:	be 0d 6d             	mov    si,0x6d0d
    4f35:	3a 45 e3             	cmp    al,BYTE PTR [di-0x1d]
    4f38:	72 d7                	jb     0x4f11
    4f3a:	f8                   	clc    
    4f3b:	c3                   	ret    
    4f3c:	e8 2a c8             	call   0x1769
    4f3f:	8b 5c 3a             	mov    bx,WORD PTR [si+0x3a]
    4f42:	89 5c 28             	mov    WORD PTR [si+0x28],bx
    4f45:	e8 be db             	call   0x2b06
    4f48:	e8 51 c6             	call   0x159c
    4f4b:	3a 20                	cmp    ah,BYTE PTR [bx+si]
    4f4d:	80 8b 5c 34 89       	or     BYTE PTR [bp+di+0x345c],0x89
    4f52:	5c                   	pop    sp
    4f53:	28 e8                	sub    al,ch
    4f55:	af                   	scas   ax,WORD PTR es:[di]
    4f56:	db e8                	fucomi st,st(0)
    4f58:	42                   	inc    dx
    4f59:	c6                   	(bad)  
    4f5a:	2e 2e 2e 80 8b 5c 36 	cs cs or BYTE PTR cs:[bp+di+0x365c],0x89
    4f61:	89 
    4f62:	5c                   	pop    sp
    4f63:	28 e8                	sub    al,ch
    4f65:	9f                   	lahf   
    4f66:	db e8                	fucomi st,st(0)
    4f68:	32 c6                	xor    al,dh
    4f6a:	3a 20                	cmp    ah,BYTE PTR [bx+si]
    4f6c:	80 e8 df             	sub    al,0xdf
    4f6f:	b3 8b                	mov    bl,0x8b
    4f71:	5c                   	pop    sp
    4f72:	3a 89 5c 28          	cmp    cl,BYTE PTR [bx+di+0x285c]
    4f76:	e8 1a f4             	call   0x4393
    4f79:	8a 06 02 72          	mov    al,BYTE PTR ds:0x7202
    4f7d:	88 45 e2             	mov    BYTE PTR [di-0x1e],al
    4f80:	08 c0                	or     al,al
    4f82:	78 06                	js     0x4f8a
    4f84:	e8 2d 00             	call   0x4fb4
    4f87:	e9 17 00             	jmp    0x4fa1
    4f8a:	bb 02 72             	mov    bx,0x7202
    4f8d:	ba cf 70             	mov    dx,0x70cf
    4f90:	b9 7f 00             	mov    cx,0x7f
    4f93:	9c                   	pushf  
    4f94:	87 f3                	xchg   bx,si
    4f96:	87 fa                	xchg   dx,di
    4f98:	fc                   	cld    
    4f99:	f3 a4                	rep movs BYTE PTR es:[di],BYTE PTR ds:[si]
    4f9b:	87 f3                	xchg   bx,si
    4f9d:	87 fa                	xchg   dx,di
    4f9f:	9d                   	popf   
    4fa0:	f8                   	clc    
    4fa1:	9f                   	lahf   
    4fa2:	86 e0                	xchg   al,ah
    4fa4:	50                   	push   ax
    4fa5:	86 e0                	xchg   al,ah
    4fa7:	e8 40 da             	call   0x29ea
    4faa:	58                   	pop    ax
    4fab:	86 e0                	xchg   al,ah
    4fad:	9e                   	sahf   
    4fae:	73 01                	jae    0x4fb1
    4fb0:	c3                   	ret    
    4fb1:	e9 a7 00             	jmp    0x505b
    4fb4:	e8 40 c8             	call   0x17f7
    4fb7:	e8 d9 f3             	call   0x4393
    4fba:	e8 f8 db             	call   0x2bb5
    4fbd:	e8 a0 db             	call   0x2b60
    4fc0:	b5 7f                	mov    ch,0x7f
    4fc2:	bb 50 70             	mov    bx,0x7050
    4fc5:	b0 00                	mov    al,0x0
    4fc7:	88 07                	mov    BYTE PTR [bx],al
    4fc9:	43                   	inc    bx
    4fca:	fe cd                	dec    ch
    4fcc:	75 f9                	jne    0x4fc7
    4fce:	e8 b2 e0             	call   0x3083
    4fd1:	bb 54 6e             	mov    bx,0x6e54
    4fd4:	89 5d cd             	mov    WORD PTR [di-0x33],bx
    4fd7:	8b 5d b4             	mov    bx,WORD PTR [di-0x4c]
    4fda:	89 1e 52 6f          	mov    WORD PTR ds:0x6f52,bx
    4fde:	80 65 b8 7f          	and    BYTE PTR [di-0x48],0x7f
    4fe2:	80 4d b9 80          	or     BYTE PTR [di-0x47],0x80
    4fe6:	e8 e9 c9             	call   0x19d2
    4fe9:	3c ff                	cmp    al,0xff
    4feb:	74 55                	je     0x5042
    4fed:	24 c0                	and    al,0xc0
    4fef:	3c 80                	cmp    al,0x80
    4ff1:	75 46                	jne    0x5039
    4ff3:	80 4d b7 80          	or     BYTE PTR [di-0x49],0x80
    4ff7:	e8 3b b4             	call   0x435
    4ffa:	e8 96 e0             	call   0x3093
    4ffd:	e8 4f b3             	call   0x34f
    5000:	bb 65 4a             	mov    bx,0x4a65
    5003:	e8 d5 05             	call   0x55db
    5006:	4e                   	dec    si
    5007:	23 51 52             	and    dx,WORD PTR [bx+di+0x52]
    500a:	16                   	push   ss
    500b:	51                   	push   cx
    500c:	1b 38                	sbb    di,WORD PTR [bx+si]
    500e:	58                   	pop    ax
    500f:	ff                   	(bad)  
    5010:	e8 1f 07             	call   0x5732
    5013:	e9 ea ff             	jmp    0x5000
    5016:	e8 37 00             	call   0x5050
    5019:	d0 eb                	shr    bl,1
    501b:	ba 50 70             	mov    dx,0x7050
    501e:	01 d3                	add    bx,dx
    5020:	80 0f 80             	or     BYTE PTR [bx],0x80
    5023:	80 65 b7 7f          	and    BYTE PTR [di-0x49],0x7f
    5027:	e8 26 00             	call   0x5050
    502a:	ba 52 6f             	mov    dx,0x6f52
    502d:	01 d3                	add    bx,dx
    502f:	8a 07                	mov    al,BYTE PTR [bx]
    5031:	43                   	inc    bx
    5032:	8a 3f                	mov    bh,BYTE PTR [bx]
    5034:	8a d8                	mov    bl,al
    5036:	e8 66 c7             	call   0x179f
    5039:	e8 57 e0             	call   0x3093
    503c:	e8 08 00             	call   0x5047
    503f:	e9 a4 ff             	jmp    0x4fe6
    5042:	e8 a5 d9             	call   0x29ea
    5045:	f8                   	clc    
    5046:	c3                   	ret    
    5047:	8b 5d cd             	mov    bx,WORD PTR [di-0x33]
    504a:	43                   	inc    bx
    504b:	43                   	inc    bx
    504c:	89 5d cd             	mov    WORD PTR [di-0x33],bx
    504f:	c3                   	ret    
    5050:	8b 5d cd             	mov    bx,WORD PTR [di-0x33]
    5053:	ba 54 6e             	mov    dx,0x6e54
    5056:	08 c0                	or     al,al
    5058:	19 d3                	sbb    bx,dx
    505a:	c3                   	ret    
    505b:	c6 45 8b 02          	mov    BYTE PTR [di-0x75],0x2
    505f:	8a 44 34             	mov    al,BYTE PTR [si+0x34]
    5062:	88 44 28             	mov    BYTE PTR [si+0x28],al
    5065:	3a 44 2a             	cmp    al,BYTE PTR [si+0x2a]
    5068:	72 04                	jb     0x506e
    506a:	be 0d 6d             	mov    si,0x6d0d
    506d:	c3                   	ret    
    506e:	2a 44 3a             	sub    al,BYTE PTR [si+0x3a]
    5071:	88 44 38             	mov    BYTE PTR [si+0x38],al
    5074:	46                   	inc    si
    5075:	fe 4d 8b             	dec    BYTE PTR [di-0x75]
    5078:	75 e5                	jne    0x505f
    507a:	4e                   	dec    si
    507b:	4e                   	dec    si
    507c:	8a 45 e2             	mov    al,BYTE PTR [di-0x1e]
    507f:	3c 00                	cmp    al,0x0
    5081:	75 09                	jne    0x508c
    5083:	bb 00 00             	mov    bx,0x0
    5086:	89 5c 44             	mov    WORD PTR [si+0x44],bx
    5089:	e8 60 00             	call   0x50ec
    508c:	bb 00 00             	mov    bx,0x0
    508f:	89 5c 38             	mov    WORD PTR [si+0x38],bx
    5092:	8b 75 e0             	mov    si,WORD PTR [di-0x20]
    5095:	b0 01                	mov    al,0x1
    5097:	88 44 38             	mov    BYTE PTR [si+0x38],al
    509a:	be 0d 6d             	mov    si,0x6d0d
    509d:	e8 7a b0             	call   0x11a
    50a0:	8a 45 e2             	mov    al,BYTE PTR [di-0x1e]
    50a3:	08 c0                	or     al,al
    50a5:	78 0c                	js     0x50b3
    50a7:	e8 4b c9             	call   0x19f5
    50aa:	73 01                	jae    0x50ad
    50ac:	c3                   	ret    
    50ad:	e8 3c 00             	call   0x50ec
    50b0:	e9 26 00             	jmp    0x50d9
    50b3:	e8 6d f3             	call   0x4423
    50b6:	bb cf 70             	mov    bx,0x70cf
    50b9:	ba 02 72             	mov    dx,0x7202
    50bc:	b9 7f 00             	mov    cx,0x7f
    50bf:	9c                   	pushf  
    50c0:	87 f3                	xchg   bx,si
    50c2:	87 fa                	xchg   dx,di
    50c4:	fc                   	cld    
    50c5:	f3 a4                	rep movs BYTE PTR es:[di],BYTE PTR ds:[si]
    50c7:	87 f3                	xchg   bx,si
    50c9:	87 fa                	xchg   dx,di
    50cb:	9d                   	popf   
    50cc:	b0 ff                	mov    al,0xff
    50ce:	8b ea                	mov    bp,dx
    50d0:	88 46 00             	mov    BYTE PTR [bp+0x0],al
    50d3:	e8 64 f3             	call   0x443a
    50d6:	73 01                	jae    0x50d9
    50d8:	c3                   	ret    
    50d9:	8b 75 e0             	mov    si,WORD PTR [di-0x20]
    50dc:	fe 44 28             	inc    BYTE PTR [si+0x28]
    50df:	8a 44 28             	mov    al,BYTE PTR [si+0x28]
    50e2:	3a 44 36             	cmp    al,BYTE PTR [si+0x36]
    50e5:	be 0d 6d             	mov    si,0x6d0d
    50e8:	76 b3                	jbe    0x509d
    50ea:	f8                   	clc    
    50eb:	c3                   	ret    
    50ec:	8b 5c 38             	mov    bx,WORD PTR [si+0x38]
    50ef:	8b 4c 44             	mov    cx,WORD PTR [si+0x44]
    50f2:	8a c7                	mov    al,bh
    50f4:	00 e8                	add    al,ch
    50f6:	8a e8                	mov    ch,al
    50f8:	8a c3                	mov    al,bl
    50fa:	00 c8                	add    al,cl
    50fc:	8a c8                	mov    cl,al
    50fe:	89 4c 44             	mov    WORD PTR [si+0x44],cx
    5101:	e8 d8 06             	call   0x57dc
    5104:	8b 5c 3a             	mov    bx,WORD PTR [si+0x3a]
    5107:	89 5c 28             	mov    WORD PTR [si+0x28],bx
    510a:	e8 86 f2             	call   0x4393
    510d:	e8 c2 f4             	call   0x45d2
    5110:	e8 df 06             	call   0x57f2
    5113:	c3                   	ret    
    5114:	8b 5d cd             	mov    bx,WORD PTR [di-0x33]
    5117:	8a 07                	mov    al,BYTE PTR [bx]
    5119:	43                   	inc    bx
    511a:	8a 3f                	mov    bh,BYTE PTR [bx]
    511c:	8a d8                	mov    bl,al
    511e:	c3                   	ret    
    511f:	e8 71 f2             	call   0x4393
    5122:	8a 06 02 72          	mov    al,BYTE PTR ds:0x7202
    5126:	08 c0                	or     al,al
    5128:	78 03                	js     0x512d
    512a:	e8 06 00             	call   0x5133
    512d:	e8 ea af             	call   0x11a
    5130:	e9 07 f3             	jmp    0x443a
    5133:	e8 9c f4             	call   0x45d2
    5136:	e8 a3 06             	call   0x57dc
    5139:	e8 96 c8             	call   0x19d2
    513c:	3c ff                	cmp    al,0xff
    513e:	75 06                	jne    0x5146
    5140:	e8 af 06             	call   0x57f2
    5143:	e9 44 c9             	jmp    0x1a8a
    5146:	24 c0                	and    al,0xc0
    5148:	3c 80                	cmp    al,0x80
    514a:	75 6e                	jne    0x51ba
    514c:	e8 c5 ff             	call   0x5114
    514f:	e8 31 07             	call   0x5883
    5152:	8b 75 ec             	mov    si,WORD PTR [di-0x14]
    5155:	8a 44 28             	mov    al,BYTE PTR [si+0x28]
    5158:	3a 45 f4             	cmp    al,BYTE PTR [di-0xc]
    515b:	72 5d                	jb     0x51ba
    515d:	75 21                	jne    0x5180
    515f:	f6 45 f6 80          	test   BYTE PTR [di-0xa],0x80
    5163:	74 1b                	je     0x5180
    5165:	f6 45 f7 80          	test   BYTE PTR [di-0x9],0x80
    5169:	74 0f                	je     0x517a
    516b:	e8 a6 ff             	call   0x5114
    516e:	b0 c1                	mov    al,0xc1
    5170:	88 07                	mov    BYTE PTR [bx],al
    5172:	43                   	inc    bx
    5173:	b0 f1                	mov    al,0xf1
    5175:	88 07                	mov    BYTE PTR [bx],al
    5177:	e9 40 00             	jmp    0x51ba
    517a:	8a 45 f5             	mov    al,BYTE PTR [di-0xb]
    517d:	e9 28 00             	jmp    0x51a8
    5180:	3a 45 f5             	cmp    al,BYTE PTR [di-0xb]
    5183:	76 09                	jbe    0x518e
    5185:	f6 45 f9 80          	test   BYTE PTR [di-0x7],0x80
    5189:	74 03                	je     0x518e
    518b:	e9 2c 00             	jmp    0x51ba
    518e:	3a 45 f5             	cmp    al,BYTE PTR [di-0xb]
    5191:	75 12                	jne    0x51a5
    5193:	f6 45 f6 80          	test   BYTE PTR [di-0xa],0x80
    5197:	75 0c                	jne    0x51a5
    5199:	f6 45 f8 80          	test   BYTE PTR [di-0x8],0x80
    519d:	75 03                	jne    0x51a2
    519f:	8a 45 f4             	mov    al,BYTE PTR [di-0xc]
    51a2:	e9 03 00             	jmp    0x51a8
    51a5:	02 45 f6             	add    al,BYTE PTR [di-0xa]
    51a8:	88 44 28             	mov    BYTE PTR [si+0x28],al
    51ab:	be 0d 6d             	mov    si,0x6d0d
    51ae:	8b 5c 28             	mov    bx,WORD PTR [si+0x28]
    51b1:	89 5c 32             	mov    WORD PTR [si+0x32],bx
    51b4:	e8 5d ff             	call   0x5114
    51b7:	e8 f5 06             	call   0x58af
    51ba:	be 0d 6d             	mov    si,0x6d0d
    51bd:	e8 87 fe             	call   0x5047
    51c0:	e9 76 ff             	jmp    0x5139
    51c3:	8a 45 ec             	mov    al,BYTE PTR [di-0x14]
    51c6:	3c 0d                	cmp    al,0xd
    51c8:	75 06                	jne    0x51d0
    51ca:	bb 0e 6d             	mov    bx,0x6d0e
    51cd:	e9 03 00             	jmp    0x51d3
    51d0:	bb 0d 6d             	mov    bx,0x6d0d
    51d3:	89 5d ee             	mov    WORD PTR [di-0x12],bx
    51d6:	c3                   	ret    
    51d7:	bb 4c 4c             	mov    bx,0x4c4c
    51da:	e8 fe 03             	call   0x55db
    51dd:	46                   	inc    si
    51de:	fc                   	cld    
    51df:	52                   	push   dx
    51e0:	50                   	push   ax
    51e1:	e7 52                	out    0x52,ax
    51e3:	ff                   	(bad)  
    51e4:	e9 7a 00             	jmp    0x5261
    51e7:	bb 38 54             	mov    bx,0x5438
    51ea:	b9 04 00             	mov    cx,0x4
    51ed:	e9 06 00             	jmp    0x51f6
    51f0:	bb 3c 54             	mov    bx,0x543c
    51f3:	b9 02 00             	mov    cx,0x2
    51f6:	e8 51 d5             	call   0x274a
    51f9:	e9 09 00             	jmp    0x5205
    51fc:	bb 77 4c             	mov    bx,0x4c77
    51ff:	e8 05 f5             	call   0x4707
    5202:	e8 15 d4             	call   0x261a
    5205:	73 03                	jae    0x520a
    5207:	e9 68 d5             	jmp    0x2772
    520a:	e8 8c c5             	call   0x1799
    520d:	e8 23 d7             	call   0x2933
    5210:	bb 2b 4c             	mov    bx,0x4c2b
    5213:	e8 c5 03             	call   0x55db
    5216:	22 74 53             	and    dh,BYTE PTR [si+0x53]
    5219:	26 2f                	es das 
    521b:	54                   	push   sp
    521c:	2d 2a 54             	sub    ax,0x542a
    521f:	ff                   	(bad)  
    5220:	e8 1e 01             	call   0x5341
    5223:	73 03                	jae    0x5228
    5225:	e9 39 00             	jmp    0x5261
    5228:	b0 1e                	mov    al,0x1e
    522a:	e8 6f c2             	call   0x149c
    522d:	8a 44 36             	mov    al,BYTE PTR [si+0x36]
    5230:	3a 44 28             	cmp    al,BYTE PTR [si+0x28]
    5233:	72 29                	jb     0x525e
    5235:	8a 44 2f             	mov    al,BYTE PTR [si+0x2f]
    5238:	88 44 29             	mov    BYTE PTR [si+0x29],al
    523b:	e8 dc 00             	call   0x531a
    523e:	73 01                	jae    0x5241
    5240:	c3                   	ret    
    5241:	8a 44 37             	mov    al,BYTE PTR [si+0x37]
    5244:	3a 44 29             	cmp    al,BYTE PTR [si+0x29]
    5247:	72 0b                	jb     0x5254
    5249:	e8 17 c4             	call   0x1663
    524c:	e8 f8 d7             	call   0x2a47
    524f:	fe 44 29             	inc    BYTE PTR [si+0x29]
    5252:	75 e7                	jne    0x523b
    5254:	b0 0d                	mov    al,0xd
    5256:	e8 f6 c2             	call   0x154f
    5259:	fe 44 28             	inc    BYTE PTR [si+0x28]
    525c:	75 cf                	jne    0x522d
    525e:	e9 09 00             	jmp    0x526a
    5261:	e8 06 00             	call   0x526a
    5264:	e8 e3 ae             	call   0x14a
    5267:	e9 d6 04             	jmp    0x5740
    526a:	b0 00                	mov    al,0x0
    526c:	e8 2d c2             	call   0x149c
    526f:	e8 ea 0e             	call   0x615c
    5272:	f9                   	stc    
    5273:	c3                   	ret    
    5274:	bb 61 4c             	mov    bx,0x4c61
    5277:	e8 8d f4             	call   0x4707
    527a:	e8 1c c5             	call   0x1799
    527d:	e8 19 f4             	call   0x4699
    5280:	8a 06 9d 73          	mov    al,BYTE PTR ds:0x739d
    5284:	08 c0                	or     al,al
    5286:	74 03                	je     0x528b
    5288:	e9 df ff             	jmp    0x526a
    528b:	e8 bc ae             	call   0x14a
    528e:	bb 87 6d             	mov    bx,0x6d87
    5291:	89 1e b0 74          	mov    WORD PTR ds:0x74b0,bx
    5295:	e8 0e 00             	call   0x52a6
    5298:	72 06                	jb     0x52a0
    529a:	e8 e9 d5             	call   0x2886
    529d:	e9 f5 ff             	jmp    0x5295
    52a0:	e8 b4 d6             	call   0x2957
    52a3:	e9 6a ff             	jmp    0x5210
    52a6:	e8 52 00             	call   0x52fb
    52a9:	3c 5e                	cmp    al,0x5e
    52ab:	75 28                	jne    0x52d5
    52ad:	e8 4b 00             	call   0x52fb
    52b0:	24 7f                	and    al,0x7f
    52b2:	3c 61                	cmp    al,0x61
    52b4:	72 02                	jb     0x52b8
    52b6:	24 df                	and    al,0xdf
    52b8:	e8 0a 04             	call   0x56c5
    52bb:	43                   	inc    bx
    52bc:	d7                   	xlat   BYTE PTR ds:[bx]
    52bd:	53                   	push   bx
    52be:	48                   	dec    ax
    52bf:	e6 53                	out    0x53,al
    52c1:	4c                   	dec    sp
    52c2:	dd 53 52             	fst    QWORD PTR [bp+di+0x52]
    52c5:	e0 53                	loopne 0x531a
    52c7:	45                   	inc    bp
    52c8:	e3 53                	jcxz   0x531d
    52ca:	5e                   	pop    si
    52cb:	dc 53 80             	fcom   QWORD PTR [bp+di-0x80]
    52ce:	bb b0 74             	mov    bx,0x74b0
    52d1:	fe 0f                	dec    BYTE PTR [bx]
    52d3:	b0 5e                	mov    al,0x5e
    52d5:	f8                   	clc    
    52d6:	c3                   	ret    
    52d7:	e8 21 00             	call   0x52fb
    52da:	24 1f                	and    al,0x1f
    52dc:	c3                   	ret    
    52dd:	b0 0a                	mov    al,0xa
    52df:	c3                   	ret    
    52e0:	b0 0d                	mov    al,0xd
    52e2:	c3                   	ret    
    52e3:	b0 1b                	mov    al,0x1b
    52e5:	c3                   	ret    
    52e6:	e8 12 00             	call   0x52fb
    52e9:	88 06 b2 74          	mov    BYTE PTR ds:0x74b2,al
    52ed:	e8 0b 00             	call   0x52fb
    52f0:	8a d8                	mov    bl,al
    52f2:	8a 06 b2 74          	mov    al,BYTE PTR ds:0x74b2
    52f6:	8a f8                	mov    bh,al
    52f8:	e9 f5 03             	jmp    0x56f0
    52fb:	8b 1e b0 74          	mov    bx,WORD PTR ds:0x74b0
    52ff:	8b 55 b4             	mov    dx,WORD PTR [di-0x4c]
    5302:	f8                   	clc    
    5303:	19 d3                	sbb    bx,dx
    5305:	72 06                	jb     0x530d
    5307:	58                   	pop    ax
    5308:	86 e0                	xchg   al,ah
    530a:	9e                   	sahf   
    530b:	f9                   	stc    
    530c:	c3                   	ret    
    530d:	8b 1e b0 74          	mov    bx,WORD PTR ds:0x74b0
    5311:	8a 07                	mov    al,BYTE PTR [bx]
    5313:	43                   	inc    bx
    5314:	89 1e b0 74          	mov    WORD PTR ds:0x74b0,bx
    5318:	f8                   	clc    
    5319:	c3                   	ret    
    531a:	e8 fd ad             	call   0x11a
    531d:	bb 9d 73             	mov    bx,0x739d
    5320:	f6 07 80             	test   BYTE PTR [bx],0x80
    5323:	74 03                	je     0x5328
    5325:	e9 42 ff             	jmp    0x526a
    5328:	f8                   	clc    
    5329:	c3                   	ret    
    532a:	b0 00                	mov    al,0x0
    532c:	e9 02 00             	jmp    0x5331
    532f:	b0 80                	mov    al,0x80
    5331:	88 06 03 75          	mov    BYTE PTR ds:0x7503,al
    5335:	e9 d8 fe             	jmp    0x5210
    5338:	50                   	push   ax
    5339:	52                   	push   dx
    533a:	54                   	push   sp
    533b:	3a 3a                	cmp    bh,BYTE PTR [bp+si]
    533d:	52                   	push   dx
    533e:	e8 c6 f3             	call   0x4707
    5341:	e8 ed e8             	call   0x3c31
    5344:	73 01                	jae    0x5347
    5346:	c3                   	ret    
    5347:	8b 5c 32             	mov    bx,WORD PTR [si+0x32]
    534a:	89 5c 36             	mov    WORD PTR [si+0x36],bx
    534d:	e8 75 04             	call   0x57c5
    5350:	c6 45 8b 02          	mov    BYTE PTR [di-0x75],0x2
    5354:	8a 44 36             	mov    al,BYTE PTR [si+0x36]
    5357:	3a 44 28             	cmp    al,BYTE PTR [si+0x28]
    535a:	73 05                	jae    0x5361
    535c:	be 0d 6d             	mov    si,0x6d0d
    535f:	f9                   	stc    
    5360:	c3                   	ret    
    5361:	46                   	inc    si
    5362:	fe 4d 8b             	dec    BYTE PTR [di-0x75]
    5365:	75 ed                	jne    0x5354
    5367:	4e                   	dec    si
    5368:	4e                   	dec    si
    5369:	f8                   	clc    
    536a:	c3                   	ret    
    536b:	bb 86 4b             	mov    bx,0x4b86
    536e:	ba 79 4b             	mov    dx,0x4b79
    5371:	e8 64 02             	call   0x55d8
    5374:	53                   	push   bx
    5375:	ae                   	scas   al,BYTE PTR es:[di]
    5376:	54                   	push   sp
    5377:	44                   	inc    sp
    5378:	84 54 23             	test   BYTE PTR [si+0x23],dl
    537b:	7c 23                	jl     0x53a0
    537d:	4c                   	dec    sp
    537e:	77 56                	ja     0x53d6
    5380:	51                   	push   cx
    5381:	91                   	xchg   cx,ax
    5382:	56                   	push   si
    5383:	fe                   	(bad)  
    5384:	bb 44 4b             	mov    bx,0x4b44
    5387:	e8 7d f3             	call   0x4707
    538a:	e8 6d d2             	call   0x25fa
    538d:	73 03                	jae    0x5392
    538f:	e9 e0 d3             	jmp    0x2772
    5392:	bb e1 4b             	mov    bx,0x4be1
    5395:	ba 6d 4b             	mov    dx,0x4b6d
    5398:	e8 3d 02             	call   0x55d8
    539b:	59                   	pop    cx
    539c:	a5                   	movs   WORD PTR es:[di],WORD PTR ds:[si]
    539d:	54                   	push   sp
    539e:	fe                   	(bad)  
    539f:	e8 9e 03             	call   0x5740
    53a2:	e9 b7 0d             	jmp    0x615c
    53a5:	e8 1f 0e             	call   0x61c7
    53a8:	73 03                	jae    0x53ad
    53aa:	e9 b8 d3             	jmp    0x2765
    53ad:	c3                   	ret    
    53ae:	bb 34 4b             	mov    bx,0x4b34
    53b1:	e8 53 f3             	call   0x4707
    53b4:	e8 53 d2             	call   0x260a
    53b7:	73 03                	jae    0x53bc
    53b9:	e9 b6 d3             	jmp    0x2772
    53bc:	b0 19                	mov    al,0x19
    53be:	e8 db c0             	call   0x149c
    53c1:	8a 44 30             	mov    al,BYTE PTR [si+0x30]
    53c4:	88 44 28             	mov    BYTE PTR [si+0x28],al
    53c7:	8a 44 31             	mov    al,BYTE PTR [si+0x31]
    53ca:	88 44 29             	mov    BYTE PTR [si+0x29],al
    53cd:	e8 4a ad             	call   0x11a
    53d0:	8a 06 9d 73          	mov    al,BYTE PTR ds:0x739d
    53d4:	08 c0                	or     al,al
    53d6:	79 03                	jns    0x53db
    53d8:	e9 d8 00             	jmp    0x54b3
    53db:	e8 fe 03             	call   0x57dc
    53de:	e8 b2 ef             	call   0x4393
    53e1:	8a 06 02 72          	mov    al,BYTE PTR ds:0x7202
    53e5:	3c f0                	cmp    al,0xf0
    53e7:	75 07                	jne    0x53f0
    53e9:	8a 45 9f             	mov    al,BYTE PTR [di-0x61]
    53ec:	08 c0                	or     al,al
    53ee:	74 09                	je     0x53f9
    53f0:	e8 77 01             	call   0x556a
    53f3:	e8 c5 d7             	call   0x2bbb
    53f6:	e8 cf 00             	call   0x54c8
    53f9:	e8 f6 03             	call   0x57f2
    53fc:	fe 4c 29             	dec    BYTE PTR [si+0x29]
    53ff:	75 cc                	jne    0x53cd
    5401:	fe 4c 28             	dec    BYTE PTR [si+0x28]
    5404:	75 c1                	jne    0x53c7
    5406:	e8 93 c1             	call   0x159c
    5409:	2f                   	das    
    540a:	57                   	push   di
    540b:	31 0d                	xor    WORD PTR [di],cx
    540d:	2f                   	das    
    540e:	47                   	inc    di
    540f:	4f                   	dec    di
    5410:	80 8a 45 a0 e8       	or     BYTE PTR [bp+si-0x5fbb],0xe8
    5415:	38 c1                	cmp    cl,al
    5417:	e8 82 c1             	call   0x159c
    541a:	0d 2f 47             	or     ax,0x472f
    541d:	52                   	push   dx
    541e:	80 b0 41 f6 45       	xor    BYTE PTR [bx+si-0x9bf],0x45
    5423:	a1 80 74             	mov    ax,ds:0x7480
    5426:	02 b0 4d e8          	add    dh,BYTE PTR [bx+si-0x17b3]
    542a:	23 c1                	and    ax,cx
    542c:	e8 99 00             	call   0x54c8
    542f:	8a 45 9a             	mov    al,BYTE PTR [di-0x66]
    5432:	08 c0                	or     al,al
    5434:	74 03                	je     0x5439
    5436:	e8 6a 08             	call   0x5ca3
    5439:	8a 45 99             	mov    al,BYTE PTR [di-0x67]
    543c:	08 c0                	or     al,al
    543e:	74 62                	je     0x54a2
    5440:	e8 59 c1             	call   0x159c
    5443:	2f                   	das    
    5444:	58                   	pop    ax
    5445:	80 f6 45             	xor    dh,0x45
    5448:	9b                   	fwait
    5449:	80 74 08 b5          	xor    BYTE PTR [si+0x8],0xb5
    544d:	48                   	dec    ax
    544e:	be 0d 6d             	mov    si,0x6d0d
    5451:	e9 05 00             	jmp    0x5459
    5454:	b5 56                	mov    ch,0x56
    5456:	be 0e 6d             	mov    si,0x6d0e
    5459:	8a 44 0e             	mov    al,BYTE PTR [si+0xe]
    545c:	2a 44 0c             	sub    al,BYTE PTR [si+0xc]
    545f:	be 0d 6d             	mov    si,0x6d0d
    5462:	9f                   	lahf   
    5463:	86 e0                	xchg   al,ah
    5465:	50                   	push   ax
    5466:	86 e0                	xchg   al,ah
    5468:	8a c5                	mov    al,ch
    546a:	e8 e2 c0             	call   0x154f
    546d:	58                   	pop    ax
    546e:	86 e0                	xchg   al,ah
    5470:	9e                   	sahf   
    5471:	e8 d6 d7             	call   0x2c4a
    5474:	e8 51 00             	call   0x54c8
    5477:	e8 53 00             	call   0x54cd
    547a:	b0 3b                	mov    al,0x3b
    547c:	e8 d0 c0             	call   0x154f
    547f:	e8 21 08             	call   0x5ca3
    5482:	e8 48 00             	call   0x54cd
    5485:	8a 45 9e             	mov    al,BYTE PTR [di-0x62]
    5488:	08 c0                	or     al,al
    548a:	75 05                	jne    0x5491
    548c:	b0 3b                	mov    al,0x3b
    548e:	e8 be c0             	call   0x154f
    5491:	f6 45 9d 80          	test   BYTE PTR [di-0x63],0x80
    5495:	74 08                	je     0x549f
    5497:	e8 02 c1             	call   0x159c
    549a:	2f                   	das    
    549b:	57                   	push   di
    549c:	53                   	push   bx
    549d:	0d 80 e9             	or     ax,0xe980
    54a0:	03 00                	add    ax,WORD PTR [bx+si]
    54a2:	e8 28 00             	call   0x54cd
    54a5:	e8 20 00             	call   0x54c8
    54a8:	e9 08 00             	jmp    0x54b3
    54ab:	80 26 b3 74 7f       	and    BYTE PTR ds:0x74b3,0x7f
    54b0:	e9 05 00             	jmp    0x54b8
    54b3:	80 0e b3 74 80       	or     BYTE PTR ds:0x74b3,0x80
    54b8:	e8 a1 0c             	call   0x615c
    54bb:	73 0a                	jae    0x54c7
    54bd:	f6 06 b3 74 80       	test   BYTE PTR ds:0x74b3,0x80
    54c2:	74 03                	je     0x54c7
    54c4:	e8 ab d2             	call   0x2772
    54c7:	c3                   	ret    
    54c8:	b0 0d                	mov    al,0xd
    54ca:	e9 82 c0             	jmp    0x154f
    54cd:	8a 45 95             	mov    al,BYTE PTR [di-0x6b]
    54d0:	08 c0                	or     al,al
    54d2:	74 22                	je     0x54f6
    54d4:	b5 00                	mov    ch,0x0
    54d6:	8a c8                	mov    cl,al
    54d8:	bb 54 21             	mov    bx,0x2154
    54db:	01 cb                	add    bx,cx
    54dd:	8a 07                	mov    al,BYTE PTR [bx]
    54df:	9f                   	lahf   
    54e0:	86 e0                	xchg   al,ah
    54e2:	50                   	push   ax
    54e3:	86 e0                	xchg   al,ah
    54e5:	e8 b4 c0             	call   0x159c
    54e8:	2f                   	das    
    54e9:	47                   	inc    di
    54ea:	46                   	inc    si
    54eb:	80 58 86 e0          	sbb    BYTE PTR [bx+si-0x7a],0xe0
    54ef:	9e                   	sahf   
    54f0:	e8 5c c0             	call   0x154f
    54f3:	e8 d2 ff             	call   0x54c8
    54f6:	e8 a3 c0             	call   0x159c
    54f9:	2f                   	das    
    54fa:	47                   	inc    di
    54fb:	43                   	inc    bx
    54fc:	80 8a 45 93 e8       	or     BYTE PTR [bp+si-0x6cbb],0xe8
    5501:	47                   	inc    di
    5502:	d7                   	xlat   BYTE PTR ds:[bx]
    5503:	e8 c2 ff             	call   0x54c8
    5506:	8a 44 12             	mov    al,BYTE PTR [si+0x12]
    5509:	0a 44 13             	or     al,BYTE PTR [si+0x13]
    550c:	74 40                	je     0x554e
    550e:	8b 4c 10             	mov    cx,WORD PTR [si+0x10]
    5511:	e8 49 00             	call   0x555d
    5514:	c6 45 8b 02          	mov    BYTE PTR [di-0x75],0x2
    5518:	8a 44 12             	mov    al,BYTE PTR [si+0x12]
    551b:	08 c0                	or     al,al
    551d:	74 27                	je     0x5546
    551f:	fe c8                	dec    al
    5521:	88 44 28             	mov    BYTE PTR [si+0x28],al
    5524:	56                   	push   si
    5525:	be 0d 6d             	mov    si,0x6d0d
    5528:	e8 3f 00             	call   0x556a
    552b:	e8 6e c0             	call   0x159c
    552e:	2f                   	das    
    552f:	54                   	push   sp
    5530:	80 5e f6 04          	sbb    BYTE PTR [bp-0xa],0x4
    5534:	80 75 05 b0          	xor    BYTE PTR [di+0x5],0xb0
    5538:	48                   	dec    ax
    5539:	e9 02 00             	jmp    0x553e
    553c:	b0 56                	mov    al,0x56
    553e:	56                   	push   si
    553f:	e8 0d c0             	call   0x154f
    5542:	e8 83 ff             	call   0x54c8
    5545:	5e                   	pop    si
    5546:	46                   	inc    si
    5547:	fe 4d 8b             	dec    BYTE PTR [di-0x75]
    554a:	75 cc                	jne    0x5518
    554c:	4e                   	dec    si
    554d:	4e                   	dec    si
    554e:	8b 4c 08             	mov    cx,WORD PTR [si+0x8]
    5551:	e8 09 00             	call   0x555d
    5554:	8b 4c 06             	mov    cx,WORD PTR [si+0x6]
    5557:	89 4c 28             	mov    WORD PTR [si+0x28],cx
    555a:	e9 0d 00             	jmp    0x556a
    555d:	fe c5                	inc    ch
    555f:	fe c1                	inc    cl
    5561:	89 4c 28             	mov    WORD PTR [si+0x28],cx
    5564:	e8 35 c0             	call   0x159c
    5567:	2f                   	das    
    5568:	58                   	pop    ax
    5569:	80 b0 3e e8 e0       	xor    BYTE PTR [bx+si-0x17c2],0xe0
    556e:	bf e8 94             	mov    di,0x94e8
    5571:	d5 b0                	aad    0xb0
    5573:	3a e9                	cmp    ch,cl
    5575:	d8 bf bb 15          	fdivr  DWORD PTR [bx+0x15bb]
    5579:	4b                   	dec    bx
    557a:	e8 8a f1             	call   0x4707
    557d:	e8 72 d0             	call   0x25f2
    5580:	73 03                	jae    0x5585
    5582:	e9 ed d1             	jmp    0x2772
    5585:	e8 b8 ad             	call   0x340
    5588:	b0 01                	mov    al,0x1
    558a:	88 06 b5 74          	mov    BYTE PTR ds:0x74b5,al
    558e:	e9 13 00             	jmp    0x55a4
    5591:	bb e1 4b             	mov    bx,0x4be1
    5594:	ba 81 4b             	mov    dx,0x4b81
    5597:	e8 3e 00             	call   0x55d8
    559a:	59                   	pop    cx
    559b:	9e                   	sahf   
    559c:	56                   	push   si
    559d:	fe                   	(bad)  
    559e:	e8 dd 13             	call   0x697e
    55a1:	e9 a3 15             	jmp    0x6b47
    55a4:	bb b5 74             	mov    bx,0x74b5
    55a7:	fe 0f                	dec    BYTE PTR [bx]
    55a9:	75 2c                	jne    0x55d7
    55ab:	c6 07 10             	mov    BYTE PTR [bx],0x10
    55ae:	bb b4 74             	mov    bx,0x74b4
    55b1:	f6 07 80             	test   BYTE PTR [bx],0x80
    55b4:	74 12                	je     0x55c8
    55b6:	c6 07 00             	mov    BYTE PTR [bx],0x0
    55b9:	ba 79 4b             	mov    dx,0x4b79
    55bc:	e8 34 f1             	call   0x46f3
    55bf:	bb 22 4b             	mov    bx,0x4b22
    55c2:	e8 56 f1             	call   0x471b
    55c5:	e9 0f 00             	jmp    0x55d7
    55c8:	c6 07 ff             	mov    BYTE PTR [bx],0xff
    55cb:	ba 79 4b             	mov    dx,0x4b79
    55ce:	e8 22 f1             	call   0x46f3
    55d1:	bb 2a 4b             	mov    bx,0x4b2a
    55d4:	e8 44 f1             	call   0x471b
    55d7:	c3                   	ret    
    55d8:	e8 18 f1             	call   0x46f3
    55db:	e8 29 f1             	call   0x4707
    55de:	e8 7d ab             	call   0x15e
    55e1:	80 4d 89 80          	or     BYTE PTR [di-0x77],0x80
    55e5:	5b                   	pop    bx
    55e6:	8a 07                	mov    al,BYTE PTR [bx]
    55e8:	43                   	inc    bx
    55e9:	08 c0                	or     al,al
    55eb:	79 30                	jns    0x561d
    55ed:	3c fe                	cmp    al,0xfe
    55ef:	75 03                	jne    0x55f4
    55f1:	e9 3e 01             	jmp    0x5732
    55f4:	3c fd                	cmp    al,0xfd
    55f6:	75 07                	jne    0x55ff
    55f8:	80 65 89 7f          	and    BYTE PTR [di-0x77],0x7f
    55fc:	e9 e7 ff             	jmp    0x55e6
    55ff:	3c ff                	cmp    al,0xff
    5601:	75 05                	jne    0x5608
    5603:	8a 45 a9             	mov    al,BYTE PTR [di-0x57]
    5606:	53                   	push   bx
    5607:	c3                   	ret    
    5608:	24 7f                	and    al,0x7f
    560a:	3a 45 aa             	cmp    al,BYTE PTR [di-0x56]
    560d:	75 09                	jne    0x5618
    560f:	8a 45 a9             	mov    al,BYTE PTR [di-0x57]
    5612:	e9 25 00             	jmp    0x563a
    5615:	e9 02 00             	jmp    0x561a
    5618:	43                   	inc    bx
    5619:	43                   	inc    bx
    561a:	e9 16 00             	jmp    0x5633
    561d:	3a 45 a9             	cmp    al,BYTE PTR [di-0x57]
    5620:	75 0f                	jne    0x5631
    5622:	f6 45 89 80          	test   BYTE PTR [di-0x77],0x80
    5626:	74 03                	je     0x562b
    5628:	e8 1f ab             	call   0x14a
    562b:	e9 0c 00             	jmp    0x563a
    562e:	e9 02 00             	jmp    0x5633
    5631:	43                   	inc    bx
    5632:	43                   	inc    bx
    5633:	80 4d 89 80          	or     BYTE PTR [di-0x77],0x80
    5637:	e9 ac ff             	jmp    0x55e6
    563a:	8a 17                	mov    dl,BYTE PTR [bx]
    563c:	43                   	inc    bx
    563d:	8a 37                	mov    dh,BYTE PTR [bx]
    563f:	87 d3                	xchg   bx,dx
    5641:	ff e3                	jmp    bx
    5643:	89 5d 89             	mov    WORD PTR [di-0x77],bx
    5646:	8b 55 b4             	mov    dx,WORD PTR [di-0x4c]
    5649:	89 55 8c             	mov    WORD PTR [di-0x74],dx
    564c:	b0 00                	mov    al,0x0
    564e:	88 45 8e             	mov    BYTE PTR [di-0x72],al
    5651:	e8 0a ab             	call   0x15e
    5654:	3c 1b                	cmp    al,0x1b
    5656:	75 15                	jne    0x566d
    5658:	e8 ef aa             	call   0x14a
    565b:	8a 45 8e             	mov    al,BYTE PTR [di-0x72]
    565e:	08 c0                	or     al,al
    5660:	75 02                	jne    0x5664
    5662:	f9                   	stc    
    5663:	c3                   	ret    
    5664:	e8 59 c1             	call   0x17c0
    5667:	fe 4d 8e             	dec    BYTE PTR [di-0x72]
    566a:	e9 18 00             	jmp    0x5685
    566d:	e8 18 00             	call   0x5688
    5670:	73 05                	jae    0x5677
    5672:	8a 45 a9             	mov    al,BYTE PTR [di-0x57]
    5675:	f8                   	clc    
    5676:	c3                   	ret    
    5677:	8a 45 a9             	mov    al,BYTE PTR [di-0x57]
    567a:	e8 d2 be             	call   0x154f
    567d:	72 03                	jb     0x5682
    567f:	fe 45 8e             	inc    BYTE PTR [di-0x72]
    5682:	e8 c5 aa             	call   0x14a
    5685:	e9 c9 ff             	jmp    0x5651
    5688:	8b 5d 89             	mov    bx,WORD PTR [di-0x77]
    568b:	8a 07                	mov    al,BYTE PTR [bx]
    568d:	08 c0                	or     al,al
    568f:	79 10                	jns    0x56a1
    5691:	3c ff                	cmp    al,0xff
    5693:	74 17                	je     0x56ac
    5695:	24 7f                	and    al,0x7f
    5697:	3a 45 aa             	cmp    al,BYTE PTR [di-0x56]
    569a:	75 02                	jne    0x569e
    569c:	f8                   	clc    
    569d:	c3                   	ret    
    569e:	e9 07 00             	jmp    0x56a8
    56a1:	3a 45 a9             	cmp    al,BYTE PTR [di-0x57]
    56a4:	75 02                	jne    0x56a8
    56a6:	f8                   	clc    
    56a7:	c3                   	ret    
    56a8:	43                   	inc    bx
    56a9:	e9 df ff             	jmp    0x568b
    56ac:	f9                   	stc    
    56ad:	c3                   	ret    
    56ae:	8a 45 8e             	mov    al,BYTE PTR [di-0x72]
    56b1:	08 c0                	or     al,al
    56b3:	75 02                	jne    0x56b7
    56b5:	f9                   	stc    
    56b6:	c3                   	ret    
    56b7:	8b 5d 8c             	mov    bx,WORD PTR [di-0x74]
    56ba:	8a 07                	mov    al,BYTE PTR [bx]
    56bc:	43                   	inc    bx
    56bd:	89 5d 8c             	mov    WORD PTR [di-0x74],bx
    56c0:	fe 4d 8e             	dec    BYTE PTR [di-0x72]
    56c3:	f8                   	clc    
    56c4:	c3                   	ret    
    56c5:	88 06 b6 74          	mov    BYTE PTR ds:0x74b6,al
    56c9:	5b                   	pop    bx
    56ca:	8a 07                	mov    al,BYTE PTR [bx]
    56cc:	3c 80                	cmp    al,0x80
    56ce:	75 04                	jne    0x56d4
    56d0:	43                   	inc    bx
    56d1:	f9                   	stc    
    56d2:	72 1a                	jb     0x56ee
    56d4:	8a f0                	mov    dh,al
    56d6:	8a 06 b6 74          	mov    al,BYTE PTR ds:0x74b6
    56da:	38 f0                	cmp    al,dh
    56dc:	75 0b                	jne    0x56e9
    56de:	43                   	inc    bx
    56df:	8a 17                	mov    dl,BYTE PTR [bx]
    56e1:	43                   	inc    bx
    56e2:	8a 37                	mov    dh,BYTE PTR [bx]
    56e4:	87 d3                	xchg   bx,dx
    56e6:	f8                   	clc    
    56e7:	73 05                	jae    0x56ee
    56e9:	43                   	inc    bx
    56ea:	43                   	inc    bx
    56eb:	43                   	inc    bx
    56ec:	75 dc                	jne    0x56ca
    56ee:	ff e3                	jmp    bx
    56f0:	8a c7                	mov    al,bh
    56f2:	e8 1a 00             	call   0x570f
    56f5:	73 01                	jae    0x56f8
    56f7:	c3                   	ret    
    56f8:	d0 e0                	shl    al,1
    56fa:	d0 e0                	shl    al,1
    56fc:	d0 e0                	shl    al,1
    56fe:	d0 e0                	shl    al,1
    5700:	88 06 b7 74          	mov    BYTE PTR ds:0x74b7,al
    5704:	8a c3                	mov    al,bl
    5706:	e8 06 00             	call   0x570f
    5709:	bb b7 74             	mov    bx,0x74b7
    570c:	0a 07                	or     al,BYTE PTR [bx]
    570e:	c3                   	ret    
    570f:	24 7f                	and    al,0x7f
    5711:	3c 61                	cmp    al,0x61
    5713:	72 02                	jb     0x5717
    5715:	24 df                	and    al,0xdf
    5717:	3c 30                	cmp    al,0x30
    5719:	73 02                	jae    0x571d
    571b:	f9                   	stc    
    571c:	c3                   	ret    
    571d:	3c 3a                	cmp    al,0x3a
    571f:	72 0d                	jb     0x572e
    5721:	3c 41                	cmp    al,0x41
    5723:	73 02                	jae    0x5727
    5725:	f9                   	stc    
    5726:	c3                   	ret    
    5727:	3c 47                	cmp    al,0x47
    5729:	72 01                	jb     0x572c
    572b:	c3                   	ret    
    572c:	2c 07                	sub    al,0x7
    572e:	24 0f                	and    al,0xf
    5730:	f8                   	clc    
    5731:	c3                   	ret    
    5732:	e8 0b 00             	call   0x5740
    5735:	e8 12 aa             	call   0x14a
    5738:	f9                   	stc    
    5739:	c3                   	ret    
    573a:	e8 03 00             	call   0x5740
    573d:	e9 fd ff             	jmp    0x573d
    5740:	e8 c3 13             	call   0x6b06
    5743:	f9                   	stc    
    5744:	c3                   	ret    
    5745:	8a 44 29             	mov    al,BYTE PTR [si+0x29]
    5748:	08 c0                	or     al,al
    574a:	75 03                	jne    0x574f
    574c:	b0 03                	mov    al,0x3
    574e:	c3                   	ret    
    574f:	8a 45 93             	mov    al,BYTE PTR [di-0x6d]
    5752:	c3                   	ret    
    5753:	f6 45 a2 80          	test   BYTE PTR [di-0x5e],0x80
    5757:	74 01                	je     0x575a
    5759:	5b                   	pop    bx
    575a:	c3                   	ret    
    575b:	c6 45 8b 02          	mov    BYTE PTR [di-0x75],0x2
    575f:	8a 44 04             	mov    al,BYTE PTR [si+0x4]
    5762:	08 c0                	or     al,al
    5764:	74 25                	je     0x578b
    5766:	3a 44 14             	cmp    al,BYTE PTR [si+0x14]
    5769:	76 06                	jbe    0x5771
    576b:	02 44 08             	add    al,BYTE PTR [si+0x8]
    576e:	e9 03 00             	jmp    0x5774
    5771:	02 44 10             	add    al,BYTE PTR [si+0x10]
    5774:	73 05                	jae    0x577b
    5776:	be 0d 6d             	mov    si,0x6d0d
    5779:	f9                   	stc    
    577a:	c3                   	ret    
    577b:	08 c0                	or     al,al
    577d:	75 02                	jne    0x5781
    577f:	fe c0                	inc    al
    5781:	3a 44 2a             	cmp    al,BYTE PTR [si+0x2a]
    5784:	72 05                	jb     0x578b
    5786:	be 0d 6d             	mov    si,0x6d0d
    5789:	f9                   	stc    
    578a:	c3                   	ret    
    578b:	88 44 28             	mov    BYTE PTR [si+0x28],al
    578e:	46                   	inc    si
    578f:	fe 4d 8b             	dec    BYTE PTR [di-0x75]
    5792:	75 cb                	jne    0x575f
    5794:	4e                   	dec    si
    5795:	4e                   	dec    si
    5796:	e8 71 eb             	call   0x430a
    5799:	f8                   	clc    
    579a:	c3                   	ret    
    579b:	e8 27 00             	call   0x57c5
    579e:	c6 45 8b 02          	mov    BYTE PTR [di-0x75],0x2
    57a2:	8a 44 28             	mov    al,BYTE PTR [si+0x28]
    57a5:	88 44 2e             	mov    BYTE PTR [si+0x2e],al
    57a8:	88 44 06             	mov    BYTE PTR [si+0x6],al
    57ab:	46                   	inc    si
    57ac:	fe 4d 8b             	dec    BYTE PTR [di-0x75]
    57af:	75 f1                	jne    0x57a2
    57b1:	4e                   	dec    si
    57b2:	4e                   	dec    si
    57b3:	8a 45 9a             	mov    al,BYTE PTR [di-0x66]
    57b6:	88 45 9e             	mov    BYTE PTR [di-0x62],al
    57b9:	e8 3b c0             	call   0x17f7
    57bc:	e8 aa bf             	call   0x1769
    57bf:	e8 d1 eb             	call   0x4393
    57c2:	e9 9b d3             	jmp    0x2b60
    57c5:	8a 45 9e             	mov    al,BYTE PTR [di-0x62]
    57c8:	3a 45 9a             	cmp    al,BYTE PTR [di-0x66]
    57cb:	74 06                	je     0x57d3
    57cd:	e8 d3 04             	call   0x5ca3
    57d0:	e8 ec d1             	call   0x29bf
    57d3:	8b 5c 2e             	mov    bx,WORD PTR [si+0x2e]
    57d6:	89 5c 28             	mov    WORD PTR [si+0x28],bx
    57d9:	e9 1b c0             	jmp    0x17f7
    57dc:	53                   	push   bx
    57dd:	51                   	push   cx
    57de:	8b 1e 6e 71          	mov    bx,WORD PTR ds:0x716e
    57e2:	8b 4c 28             	mov    cx,WORD PTR [si+0x28]
    57e5:	88 2f                	mov    BYTE PTR [bx],ch
    57e7:	43                   	inc    bx
    57e8:	88 0f                	mov    BYTE PTR [bx],cl
    57ea:	43                   	inc    bx
    57eb:	89 1e 6e 71          	mov    WORD PTR ds:0x716e,bx
    57ef:	59                   	pop    cx
    57f0:	5b                   	pop    bx
    57f1:	c3                   	ret    
    57f2:	53                   	push   bx
    57f3:	51                   	push   cx
    57f4:	8b 1e 6e 71          	mov    bx,WORD PTR ds:0x716e
    57f8:	4b                   	dec    bx
    57f9:	8a 0f                	mov    cl,BYTE PTR [bx]
    57fb:	4b                   	dec    bx
    57fc:	8a 2f                	mov    ch,BYTE PTR [bx]
    57fe:	89 4c 28             	mov    WORD PTR [si+0x28],cx
    5801:	89 1e 6e 71          	mov    WORD PTR ds:0x716e,bx
    5805:	59                   	pop    cx
    5806:	5b                   	pop    bx
    5807:	c3                   	ret    
    5808:	e8 0b 00             	call   0x5816
    580b:	f6 45 a2 80          	test   BYTE PTR [di-0x5e],0x80
    580f:	74 02                	je     0x5813
    5811:	f9                   	stc    
    5812:	c3                   	ret    
    5813:	e8 f9 00             	call   0x590f
    5816:	b0 ff                	mov    al,0xff
    5818:	88 45 c3             	mov    BYTE PTR [di-0x3d],al
    581b:	c6 45 8b 02          	mov    BYTE PTR [di-0x75],0x2
    581f:	8a 44 28             	mov    al,BYTE PTR [si+0x28]
    5822:	08 c0                	or     al,al
    5824:	74 22                	je     0x5848
    5826:	3a 44 12             	cmp    al,BYTE PTR [si+0x12]
    5829:	73 10                	jae    0x583b
    582b:	3a 44 10             	cmp    al,BYTE PTR [si+0x10]
    582e:	77 05                	ja     0x5835
    5830:	be 0d 6d             	mov    si,0x6d0d
    5833:	f9                   	stc    
    5834:	c3                   	ret    
    5835:	2a 44 10             	sub    al,BYTE PTR [si+0x10]
    5838:	e9 0d 00             	jmp    0x5848
    583b:	2a 44 08             	sub    al,BYTE PTR [si+0x8]
    583e:	3a 44 14             	cmp    al,BYTE PTR [si+0x14]
    5841:	77 05                	ja     0x5848
    5843:	be 0d 6d             	mov    si,0x6d0d
    5846:	f9                   	stc    
    5847:	c3                   	ret    
    5848:	3a 44 0a             	cmp    al,BYTE PTR [si+0xa]
    584b:	72 05                	jb     0x5852
    584d:	be 0d 6d             	mov    si,0x6d0d
    5850:	f9                   	stc    
    5851:	c3                   	ret    
    5852:	88 44 04             	mov    BYTE PTR [si+0x4],al
    5855:	46                   	inc    si
    5856:	fe 4d 8b             	dec    BYTE PTR [di-0x75]
    5859:	75 c4                	jne    0x581f
    585b:	4e                   	dec    si
    585c:	4e                   	dec    si
    585d:	e8 f3 fe             	call   0x5753
    5860:	e8 00 be             	call   0x1663
    5863:	8a 44 04             	mov    al,BYTE PTR [si+0x4]
    5866:	02 44 0c             	add    al,BYTE PTR [si+0xc]
    5869:	88 45 c3             	mov    BYTE PTR [di-0x3d],al
    586c:	b5 00                	mov    ch,0x0
    586e:	8a 4c 05             	mov    cl,BYTE PTR [si+0x5]
    5871:	bb 53 6d             	mov    bx,0x6d53
    5874:	01 cb                	add    bx,cx
    5876:	8a 07                	mov    al,BYTE PTR [bx]
    5878:	88 45 bf             	mov    BYTE PTR [di-0x41],al
    587b:	e8 c7 fe             	call   0x5745
    587e:	88 45 c4             	mov    BYTE PTR [di-0x3c],al
    5881:	f8                   	clc    
    5882:	c3                   	ret    
    5883:	8a 07                	mov    al,BYTE PTR [bx]
    5885:	8a e8                	mov    ch,al
    5887:	24 c0                	and    al,0xc0
    5889:	3c 80                	cmp    al,0x80
    588b:	75 10                	jne    0x589d
    588d:	8a c5                	mov    al,ch
    588f:	24 3f                	and    al,0x3f
    5891:	88 44 29             	mov    BYTE PTR [si+0x29],al
    5894:	43                   	inc    bx
    5895:	8a 07                	mov    al,BYTE PTR [bx]
    5897:	88 44 28             	mov    BYTE PTR [si+0x28],al
    589a:	4b                   	dec    bx
    589b:	f8                   	clc    
    589c:	c3                   	ret    
    589d:	b0 01                	mov    al,0x1
    589f:	88 44 28             	mov    BYTE PTR [si+0x28],al
    58a2:	88 44 29             	mov    BYTE PTR [si+0x29],al
    58a5:	f9                   	stc    
    58a6:	c3                   	ret    
    58a7:	80 0e b8 74 80       	or     BYTE PTR ds:0x74b8,0x80
    58ac:	e9 05 00             	jmp    0x58b4
    58af:	80 26 b8 74 7f       	and    BYTE PTR ds:0x74b8,0x7f
    58b4:	f6 06 b8 74 80       	test   BYTE PTR ds:0x74b8,0x80
    58b9:	74 08                	je     0x58c3
    58bb:	8a 45 df             	mov    al,BYTE PTR [di-0x21]
    58be:	3c 03                	cmp    al,0x3
    58c0:	e9 05 00             	jmp    0x58c8
    58c3:	8a 45 d1             	mov    al,BYTE PTR [di-0x2f]
    58c6:	3c 03                	cmp    al,0x3
    58c8:	73 02                	jae    0x58cc
    58ca:	f9                   	stc    
    58cb:	c3                   	ret    
    58cc:	f6 06 b8 74 80       	test   BYTE PTR ds:0x74b8,0x80
    58d1:	74 09                	je     0x58dc
    58d3:	fe 4d df             	dec    BYTE PTR [di-0x21]
    58d6:	fe 4d df             	dec    BYTE PTR [di-0x21]
    58d9:	e9 06 00             	jmp    0x58e2
    58dc:	fe 4d d1             	dec    BYTE PTR [di-0x2f]
    58df:	fe 4d d1             	dec    BYTE PTR [di-0x2f]
    58e2:	8b 4c 32             	mov    cx,WORD PTR [si+0x32]
    58e5:	8a c1                	mov    al,cl
    58e7:	08 c0                	or     al,al
    58e9:	75 02                	jne    0x58ed
    58eb:	b0 01                	mov    al,0x1
    58ed:	3c ff                	cmp    al,0xff
    58ef:	72 02                	jb     0x58f3
    58f1:	b0 fe                	mov    al,0xfe
    58f3:	43                   	inc    bx
    58f4:	88 07                	mov    BYTE PTR [bx],al
    58f6:	8a c5                	mov    al,ch
    58f8:	08 c0                	or     al,al
    58fa:	75 02                	jne    0x58fe
    58fc:	b0 01                	mov    al,0x1
    58fe:	3c 40                	cmp    al,0x40
    5900:	72 02                	jb     0x5904
    5902:	b0 3f                	mov    al,0x3f
    5904:	24 3f                	and    al,0x3f
    5906:	0c 80                	or     al,0x80
    5908:	4b                   	dec    bx
    5909:	88 07                	mov    BYTE PTR [bx],al
    590b:	43                   	inc    bx
    590c:	43                   	inc    bx
    590d:	f8                   	clc    
    590e:	c3                   	ret    
    590f:	e8 46 00             	call   0x5958
    5912:	e8 e7 00             	call   0x59fc
    5915:	f6 45 9d 80          	test   BYTE PTR [di-0x63],0x80
    5919:	74 3c                	je     0x5957
    591b:	8b 5c 1a             	mov    bx,WORD PTR [si+0x1a]
    591e:	89 5c 02             	mov    WORD PTR [si+0x2],bx
    5921:	f6 45 9c 80          	test   BYTE PTR [di-0x64],0x80
    5925:	74 06                	je     0x592d
    5927:	be 0d 6d             	mov    si,0x6d0d
    592a:	e9 03 00             	jmp    0x5930
    592d:	be 0e 6d             	mov    si,0x6d0e
    5930:	8a 44 08             	mov    al,BYTE PTR [si+0x8]
    5933:	3a 44 1a             	cmp    al,BYTE PTR [si+0x1a]
    5936:	74 1c                	je     0x5954
    5938:	88 44 1a             	mov    BYTE PTR [si+0x1a],al
    593b:	56                   	push   si
    593c:	e8 64 03             	call   0x5ca3
    593f:	5e                   	pop    si
    5940:	8a 44 08             	mov    al,BYTE PTR [si+0x8]
    5943:	3a 44 10             	cmp    al,BYTE PTR [si+0x10]
    5946:	73 03                	jae    0x594b
    5948:	e8 40 04             	call   0x5d8b
    594b:	be 0d 6d             	mov    si,0x6d0d
    594e:	e8 ab 00             	call   0x59fc
    5951:	e8 4f 03             	call   0x5ca3
    5954:	be 0d 6d             	mov    si,0x6d0d
    5957:	c3                   	ret    
    5958:	c6 45 8b 02          	mov    BYTE PTR [di-0x75],0x2
    595c:	e8 4d 00             	call   0x59ac
    595f:	8a 44 12             	mov    al,BYTE PTR [si+0x12]
    5962:	08 c0                	or     al,al
    5964:	74 10                	je     0x5976
    5966:	3a 44 28             	cmp    al,BYTE PTR [si+0x28]
    5969:	76 0b                	jbe    0x5976
    596b:	8a 44 10             	mov    al,BYTE PTR [si+0x10]
    596e:	3a 44 08             	cmp    al,BYTE PTR [si+0x8]
    5971:	73 03                	jae    0x5976
    5973:	e8 15 04             	call   0x5d8b
    5976:	8a 44 28             	mov    al,BYTE PTR [si+0x28]
    5979:	08 c0                	or     al,al
    597b:	74 26                	je     0x59a3
    597d:	3a 44 12             	cmp    al,BYTE PTR [si+0x12]
    5980:	72 21                	jb     0x59a3
    5982:	8a 44 04             	mov    al,BYTE PTR [si+0x4]
    5985:	3a 44 0a             	cmp    al,BYTE PTR [si+0xa]
    5988:	72 0c                	jb     0x5996
    598a:	e8 fe 03             	call   0x5d8b
    598d:	fe 4c 04             	dec    BYTE PTR [si+0x4]
    5990:	fe 44 08             	inc    BYTE PTR [si+0x8]
    5993:	e9 0d 00             	jmp    0x59a3
    5996:	3a 44 14             	cmp    al,BYTE PTR [si+0x14]
    5999:	77 08                	ja     0x59a3
    599b:	fe 4c 08             	dec    BYTE PTR [si+0x8]
    599e:	fe 44 04             	inc    BYTE PTR [si+0x4]
    59a1:	75 df                	jne    0x5982
    59a3:	46                   	inc    si
    59a4:	fe 4d 8b             	dec    BYTE PTR [di-0x75]
    59a7:	75 b3                	jne    0x595c
    59a9:	4e                   	dec    si
    59aa:	4e                   	dec    si
    59ab:	c3                   	ret    
    59ac:	8a 44 08             	mov    al,BYTE PTR [si+0x8]
    59af:	88 44 02             	mov    BYTE PTR [si+0x2],al
    59b2:	8a 44 28             	mov    al,BYTE PTR [si+0x28]
    59b5:	08 c0                	or     al,al
    59b7:	75 06                	jne    0x59bf
    59b9:	88 44 08             	mov    BYTE PTR [si+0x8],al
    59bc:	e9 39 00             	jmp    0x59f8
    59bf:	3a 44 12             	cmp    al,BYTE PTR [si+0x12]
    59c2:	73 06                	jae    0x59ca
    59c4:	8a 6c 10             	mov    ch,BYTE PTR [si+0x10]
    59c7:	88 6c 08             	mov    BYTE PTR [si+0x8],ch
    59ca:	3a 44 10             	cmp    al,BYTE PTR [si+0x10]
    59cd:	77 03                	ja     0x59d2
    59cf:	e8 b9 03             	call   0x5d8b
    59d2:	2a 44 08             	sub    al,BYTE PTR [si+0x8]
    59d5:	73 0b                	jae    0x59e2
    59d7:	8a 44 28             	mov    al,BYTE PTR [si+0x28]
    59da:	fe c8                	dec    al
    59dc:	88 44 08             	mov    BYTE PTR [si+0x8],al
    59df:	e9 10 00             	jmp    0x59f2
    59e2:	3a 44 0a             	cmp    al,BYTE PTR [si+0xa]
    59e5:	72 0b                	jb     0x59f2
    59e7:	8a 44 28             	mov    al,BYTE PTR [si+0x28]
    59ea:	2a 44 0a             	sub    al,BYTE PTR [si+0xa]
    59ed:	fe c0                	inc    al
    59ef:	88 44 08             	mov    BYTE PTR [si+0x8],al
    59f2:	8a 44 28             	mov    al,BYTE PTR [si+0x28]
    59f5:	2a 44 08             	sub    al,BYTE PTR [si+0x8]
    59f8:	88 44 04             	mov    BYTE PTR [si+0x4],al
    59fb:	c3                   	ret    
    59fc:	f6 45 a5 80          	test   BYTE PTR [di-0x5b],0x80
    5a00:	74 03                	je     0x5a05
    5a02:	e9 87 cf             	jmp    0x298c
    5a05:	8a 44 02             	mov    al,BYTE PTR [si+0x2]
    5a08:	2a 44 08             	sub    al,BYTE PTR [si+0x8]
    5a0b:	75 1a                	jne    0x5a27
    5a0d:	8a 44 03             	mov    al,BYTE PTR [si+0x3]
    5a10:	2a 44 09             	sub    al,BYTE PTR [si+0x9]
    5a13:	75 01                	jne    0x5a16
    5a15:	c3                   	ret    
    5a16:	3c 01                	cmp    al,0x1
    5a18:	75 03                	jne    0x5a1d
    5a1a:	e9 08 04             	jmp    0x5e25
    5a1d:	3c ff                	cmp    al,0xff
    5a1f:	75 03                	jne    0x5a24
    5a21:	e9 ed 03             	jmp    0x5e11
    5a24:	e9 1a 00             	jmp    0x5a41
    5a27:	8a e8                	mov    ch,al
    5a29:	8a 44 03             	mov    al,BYTE PTR [si+0x3]
    5a2c:	3a 44 09             	cmp    al,BYTE PTR [si+0x9]
    5a2f:	75 10                	jne    0x5a41
    5a31:	8a c5                	mov    al,ch
    5a33:	3c 01                	cmp    al,0x1
    5a35:	75 03                	jne    0x5a3a
    5a37:	e9 6b 03             	jmp    0x5da5
    5a3a:	3c ff                	cmp    al,0xff
    5a3c:	75 03                	jne    0x5a41
    5a3e:	e9 73 03             	jmp    0x5db4
    5a41:	e9 48 cf             	jmp    0x298c
    5a44:	bb c3 4a             	mov    bx,0x4ac3
    5a47:	e8 91 fb             	call   0x55db
    5a4a:	48                   	dec    ax
    5a4b:	b8 5b 56             	mov    ax,0x565b
    5a4e:	c2 5b 31             	ret    0x315b
    5a51:	73 5b                	jae    0x5aae
    5a53:	53                   	push   bx
    5a54:	5a                   	pop    dx
    5a55:	5b                   	pop    bx
    5a56:	55                   	push   bp
    5a57:	6e                   	outs   dx,BYTE PTR ds:[si]
    5a58:	5b                   	pop    bx
    5a59:	fe 8a 45 99          	dec    BYTE PTR [bp+si-0x66bb]
    5a5d:	08 c0                	or     al,al
    5a5f:	75 03                	jne    0x5a64
    5a61:	e9 dc fc             	jmp    0x5740
    5a64:	80 4d 9d 80          	or     BYTE PTR [di-0x63],0x80
    5a68:	e8 dc 01             	call   0x5c47
    5a6b:	e9 d9 01             	jmp    0x5c47
    5a6e:	80 65 9d 7f          	and    BYTE PTR [di-0x63],0x7f
    5a72:	c3                   	ret    
    5a73:	8a 45 99             	mov    al,BYTE PTR [di-0x67]
    5a76:	08 c0                	or     al,al
    5a78:	75 01                	jne    0x5a7b
    5a7a:	c3                   	ret    
    5a7b:	b0 00                	mov    al,0x0
    5a7d:	88 45 99             	mov    BYTE PTR [di-0x67],al
    5a80:	88 45 9e             	mov    BYTE PTR [di-0x62],al
    5a83:	8a 45 93             	mov    al,BYTE PTR [di-0x6d]
    5a86:	e8 03 00             	call   0x5a8c
    5a89:	e9 cb ce             	jmp    0x2957
    5a8c:	9f                   	lahf   
    5a8d:	86 e0                	xchg   al,ah
    5a8f:	50                   	push   ax
    5a90:	86 e0                	xchg   al,ah
    5a92:	c6 44 0c 03          	mov    BYTE PTR [si+0xc],0x3
    5a96:	b0 00                	mov    al,0x0
    5a98:	88 44 0d             	mov    BYTE PTR [si+0xd],al
    5a9b:	88 45 99             	mov    BYTE PTR [di-0x67],al
    5a9e:	88 45 9a             	mov    BYTE PTR [di-0x66],al
    5aa1:	80 65 9d 7f          	and    BYTE PTR [di-0x63],0x7f
    5aa5:	c6 44 0e 18          	mov    BYTE PTR [si+0xe],0x18
    5aa9:	c6 44 0f 50          	mov    BYTE PTR [si+0xf],0x50
    5aad:	c6 44 0a 16          	mov    BYTE PTR [si+0xa],0x16
    5ab1:	58                   	pop    ax
    5ab2:	86 e0                	xchg   al,ah
    5ab4:	9e                   	sahf   
    5ab5:	e9 2b 02             	jmp    0x5ce3
    5ab8:	89 36 b9 74          	mov    WORD PTR ds:0x74b9,si
    5abc:	be 0d 6d             	mov    si,0x6d0d
    5abf:	e9 07 00             	jmp    0x5ac9
    5ac2:	89 36 b9 74          	mov    WORD PTR ds:0x74b9,si
    5ac6:	be 0e 6d             	mov    si,0x6d0e
    5ac9:	8a 45 99             	mov    al,BYTE PTR [di-0x67]
    5acc:	08 c0                	or     al,al
    5ace:	74 03                	je     0x5ad3
    5ad0:	e9 68 01             	jmp    0x5c3b
    5ad3:	8a 44 04             	mov    al,BYTE PTR [si+0x4]
    5ad6:	3c 02                	cmp    al,0x2
    5ad8:	73 03                	jae    0x5add
    5ada:	e9 5e 01             	jmp    0x5c3b
    5add:	f6 04 80             	test   BYTE PTR [si],0x80
    5ae0:	75 0b                	jne    0x5aed
    5ae2:	80 65 9c 7f          	and    BYTE PTR [di-0x64],0x7f
    5ae6:	80 4d 9b 80          	or     BYTE PTR [di-0x65],0x80
    5aea:	e9 08 00             	jmp    0x5af5
    5aed:	80 4d 9c 80          	or     BYTE PTR [di-0x64],0x80
    5af1:	80 65 9b 7f          	and    BYTE PTR [di-0x65],0x7f
    5af5:	fe 45 99             	inc    BYTE PTR [di-0x67]
    5af8:	ba 7b 6c             	mov    dx,0x6c7b
    5afb:	bb 78 6c             	mov    bx,0x6c78
    5afe:	b9 03 00             	mov    cx,0x3
    5b01:	9c                   	pushf  
    5b02:	87 f3                	xchg   bx,si
    5b04:	87 fa                	xchg   dx,di
    5b06:	fc                   	cld    
    5b07:	f3 a4                	rep movs BYTE PTR es:[di],BYTE PTR ds:[si]
    5b09:	87 f3                	xchg   bx,si
    5b0b:	87 fa                	xchg   dx,di
    5b0d:	9d                   	popf   
    5b0e:	ba 23 6d             	mov    dx,0x6d23
    5b11:	bb 11 6d             	mov    bx,0x6d11
    5b14:	b9 12 00             	mov    cx,0x12
    5b17:	9c                   	pushf  
    5b18:	87 f3                	xchg   bx,si
    5b1a:	87 fa                	xchg   dx,di
    5b1c:	fc                   	cld    
    5b1d:	f3 a4                	rep movs BYTE PTR es:[di],BYTE PTR ds:[si]
    5b1f:	87 f3                	xchg   bx,si
    5b21:	87 fa                	xchg   dx,di
    5b23:	9d                   	popf   
    5b24:	ba 6d 6d             	mov    dx,0x6d6d
    5b27:	bb 53 6d             	mov    bx,0x6d53
    5b2a:	b9 1a 00             	mov    cx,0x1a
    5b2d:	9c                   	pushf  
    5b2e:	87 f3                	xchg   bx,si
    5b30:	87 fa                	xchg   dx,di
    5b32:	fc                   	cld    
    5b33:	f3 a4                	rep movs BYTE PTR es:[di],BYTE PTR ds:[si]
    5b35:	87 f3                	xchg   bx,si
    5b37:	87 fa                	xchg   dx,di
    5b39:	9d                   	popf   
    5b3a:	8a 44 08             	mov    al,BYTE PTR [si+0x8]
    5b3d:	02 44 04             	add    al,BYTE PTR [si+0x4]
    5b40:	fe c8                	dec    al
    5b42:	88 44 1a             	mov    BYTE PTR [si+0x1a],al
    5b45:	8a 44 0e             	mov    al,BYTE PTR [si+0xe]
    5b48:	88 44 20             	mov    BYTE PTR [si+0x20],al
    5b4b:	8b 1e b9 74          	mov    bx,WORD PTR ds:0x74b9
    5b4f:	89 36 b9 74          	mov    WORD PTR ds:0x74b9,si
    5b53:	53                   	push   bx
    5b54:	5e                   	pop    si
    5b55:	8b 5c 06             	mov    bx,WORD PTR [si+0x6]
    5b58:	89 5c 18             	mov    WORD PTR [si+0x18],bx
    5b5b:	8b 1e b9 74          	mov    bx,WORD PTR ds:0x74b9
    5b5f:	89 36 b9 74          	mov    WORD PTR ds:0x74b9,si
    5b63:	53                   	push   bx
    5b64:	5e                   	pop    si
    5b65:	8a 44 04             	mov    al,BYTE PTR [si+0x4]
    5b68:	88 44 0a             	mov    BYTE PTR [si+0xa],al
    5b6b:	fe 4c 2e             	dec    BYTE PTR [si+0x2e]
    5b6e:	f6 04 80             	test   BYTE PTR [si],0x80
    5b71:	74 0e                	je     0x5b81
    5b73:	b5 00                	mov    ch,0x0
    5b75:	8a c8                	mov    cl,al
    5b77:	bb 53 6d             	mov    bx,0x6d53
    5b7a:	01 cb                	add    bx,cx
    5b7c:	8a 07                	mov    al,BYTE PTR [bx]
    5b7e:	e9 03 00             	jmp    0x5b84
    5b81:	02 44 0c             	add    al,BYTE PTR [si+0xc]
    5b84:	88 44 0e             	mov    BYTE PTR [si+0xe],al
    5b87:	88 44 1e             	mov    BYTE PTR [si+0x1e],al
    5b8a:	8a 44 1c             	mov    al,BYTE PTR [si+0x1c]
    5b8d:	2a 44 0a             	sub    al,BYTE PTR [si+0xa]
    5b90:	88 44 1c             	mov    BYTE PTR [si+0x1c],al
    5b93:	8a 44 20             	mov    al,BYTE PTR [si+0x20]
    5b96:	2a 44 1e             	sub    al,BYTE PTR [si+0x1e]
    5b99:	f6 04 80             	test   BYTE PTR [si],0x80
    5b9c:	74 57                	je     0x5bf5
    5b9e:	3c 06                	cmp    al,0x6
    5ba0:	73 03                	jae    0x5ba5
    5ba2:	e9 8d 00             	jmp    0x5c32
    5ba5:	be 0d 6d             	mov    si,0x6d0d
    5ba8:	e8 f8 00             	call   0x5ca3
    5bab:	fe 44 0b             	inc    BYTE PTR [si+0xb]
    5bae:	8a 44 0b             	mov    al,BYTE PTR [si+0xb]
    5bb1:	9f                   	lahf   
    5bb2:	86 e0                	xchg   al,ah
    5bb4:	50                   	push   ax
    5bb5:	86 e0                	xchg   al,ah
    5bb7:	e8 26 01             	call   0x5ce0
    5bba:	58                   	pop    ax
    5bbb:	86 e0                	xchg   al,ah
    5bbd:	9e                   	sahf   
    5bbe:	3a 44 0b             	cmp    al,BYTE PTR [si+0xb]
    5bc1:	74 29                	je     0x5bec
    5bc3:	8a c8                	mov    cl,al
    5bc5:	8a 6d 93             	mov    ch,BYTE PTR [di-0x6d]
    5bc8:	fe cd                	dec    ch
    5bca:	8a c5                	mov    al,ch
    5bcc:	3c 03                	cmp    al,0x3
    5bce:	8a c1                	mov    al,cl
    5bd0:	72 1a                	jb     0x5bec
    5bd2:	9f                   	lahf   
    5bd3:	86 e0                	xchg   al,ah
    5bd5:	50                   	push   ax
    5bd6:	86 e0                	xchg   al,ah
    5bd8:	8a c5                	mov    al,ch
    5bda:	e8 06 01             	call   0x5ce3
    5bdd:	58                   	pop    ax
    5bde:	86 e0                	xchg   al,ah
    5be0:	9e                   	sahf   
    5be1:	3a 44 0b             	cmp    al,BYTE PTR [si+0xb]
    5be4:	74 06                	je     0x5bec
    5be6:	fe 45 93             	inc    BYTE PTR [di-0x6d]
    5be9:	e8 f4 00             	call   0x5ce0
    5bec:	e8 b4 00             	call   0x5ca3
    5bef:	e8 ee 00             	call   0x5ce0
    5bf2:	e9 0a 00             	jmp    0x5bff
    5bf5:	3c 01                	cmp    al,0x1
    5bf7:	73 03                	jae    0x5bfc
    5bf9:	e9 36 00             	jmp    0x5c32
    5bfc:	fe 4c 0e             	dec    BYTE PTR [si+0xe]
    5bff:	e8 0c 00             	call   0x5c0e
    5c02:	e8 9e 00             	call   0x5ca3
    5c05:	e8 06 00             	call   0x5c0e
    5c08:	e8 98 00             	call   0x5ca3
    5c0b:	e9 49 cd             	jmp    0x2957
    5c0e:	89 36 b9 74          	mov    WORD PTR ds:0x74b9,si
    5c12:	f6 45 9b 80          	test   BYTE PTR [di-0x65],0x80
    5c16:	74 06                	je     0x5c1e
    5c18:	be 0d 6d             	mov    si,0x6d0d
    5c1b:	e9 03 00             	jmp    0x5c21
    5c1e:	be 0e 6d             	mov    si,0x6d0e
    5c21:	8a 44 0a             	mov    al,BYTE PTR [si+0xa]
    5c24:	2a 44 14             	sub    al,BYTE PTR [si+0x14]
    5c27:	2c 02                	sub    al,0x2
    5c29:	79 03                	jns    0x5c2e
    5c2b:	e8 5d 01             	call   0x5d8b
    5c2e:	be 0d 6d             	mov    si,0x6d0d
    5c31:	c3                   	ret    
    5c32:	be 0d 6d             	mov    si,0x6d0d
    5c35:	e8 3b fe             	call   0x5a73
    5c38:	e9 05 fb             	jmp    0x5740
    5c3b:	be 0d 6d             	mov    si,0x6d0d
    5c3e:	e9 ff fa             	jmp    0x5740
    5c41:	e8 03 00             	call   0x5c47
    5c44:	e9 57 fb             	jmp    0x579e
    5c47:	8a 45 99             	mov    al,BYTE PTR [di-0x67]
    5c4a:	08 c0                	or     al,al
    5c4c:	75 03                	jne    0x5c51
    5c4e:	e9 ef fa             	jmp    0x5740
    5c51:	e8 96 cd             	call   0x29ea
    5c54:	e8 4c 00             	call   0x5ca3
    5c57:	89 36 b9 74          	mov    WORD PTR ds:0x74b9,si
    5c5b:	f6 45 9c 80          	test   BYTE PTR [di-0x64],0x80
    5c5f:	74 06                	je     0x5c67
    5c61:	be 0d 6d             	mov    si,0x6d0d
    5c64:	e9 03 00             	jmp    0x5c6a
    5c67:	be 0e 6d             	mov    si,0x6d0e
    5c6a:	8a 44 28             	mov    al,BYTE PTR [si+0x28]
    5c6d:	9f                   	lahf   
    5c6e:	86 e0                	xchg   al,ah
    5c70:	50                   	push   ax
    5c71:	86 e0                	xchg   al,ah
    5c73:	8b 1e b9 74          	mov    bx,WORD PTR ds:0x74b9
    5c77:	89 36 b9 74          	mov    WORD PTR ds:0x74b9,si
    5c7b:	53                   	push   bx
    5c7c:	5e                   	pop    si
    5c7d:	8b 5c 06             	mov    bx,WORD PTR [si+0x6]
    5c80:	89 5c 28             	mov    WORD PTR [si+0x28],bx
    5c83:	8b 1e b9 74          	mov    bx,WORD PTR ds:0x74b9
    5c87:	89 36 b9 74          	mov    WORD PTR ds:0x74b9,si
    5c8b:	53                   	push   bx
    5c8c:	5e                   	pop    si
    5c8d:	58                   	pop    ax
    5c8e:	86 e0                	xchg   al,ah
    5c90:	9e                   	sahf   
    5c91:	f6 45 9d 80          	test   BYTE PTR [di-0x63],0x80
    5c95:	74 03                	je     0x5c9a
    5c97:	88 44 28             	mov    BYTE PTR [si+0x28],al
    5c9a:	be 0d 6d             	mov    si,0x6d0d
    5c9d:	e8 1f cd             	call   0x29bf
    5ca0:	e9 54 bb             	jmp    0x17f7
    5ca3:	8a 45 9a             	mov    al,BYTE PTR [di-0x66]
    5ca6:	34 01                	xor    al,0x1
    5ca8:	88 45 9a             	mov    BYTE PTR [di-0x66],al
    5cab:	ba 7b 6c             	mov    dx,0x6c7b
    5cae:	bb 78 6c             	mov    bx,0x6c78
    5cb1:	b5 03                	mov    ch,0x3
    5cb3:	e8 13 00             	call   0x5cc9
    5cb6:	ba 23 6d             	mov    dx,0x6d23
    5cb9:	bb 11 6d             	mov    bx,0x6d11
    5cbc:	b5 12                	mov    ch,0x12
    5cbe:	e8 08 00             	call   0x5cc9
    5cc1:	ba 6d 6d             	mov    dx,0x6d6d
    5cc4:	bb 53 6d             	mov    bx,0x6d53
    5cc7:	b5 1a                	mov    ch,0x1a
    5cc9:	8b ea                	mov    bp,dx
    5ccb:	8a 46 00             	mov    al,BYTE PTR [bp+0x0]
    5cce:	8a 0f                	mov    cl,BYTE PTR [bx]
    5cd0:	88 07                	mov    BYTE PTR [bx],al
    5cd2:	8a c1                	mov    al,cl
    5cd4:	8b ea                	mov    bp,dx
    5cd6:	88 46 00             	mov    BYTE PTR [bp+0x0],al
    5cd9:	43                   	inc    bx
    5cda:	42                   	inc    dx
    5cdb:	fe cd                	dec    ch
    5cdd:	75 ea                	jne    0x5cc9
    5cdf:	c3                   	ret    
    5ce0:	8a 45 93             	mov    al,BYTE PTR [di-0x6d]
    5ce3:	3c 03                	cmp    al,0x3
    5ce5:	73 02                	jae    0x5ce9
    5ce7:	b0 03                	mov    al,0x3
    5ce9:	3c 80                	cmp    al,0x80
    5ceb:	72 02                	jb     0x5cef
    5ced:	b0 7f                	mov    al,0x7f
    5cef:	88 45 93             	mov    BYTE PTR [di-0x6d],al
    5cf2:	8a 44 0d             	mov    al,BYTE PTR [si+0xd]
    5cf5:	bb 53 6d             	mov    bx,0x6d53
    5cf8:	88 07                	mov    BYTE PTR [bx],al
    5cfa:	43                   	inc    bx
    5cfb:	04 03                	add    al,0x3
    5cfd:	b5 1a                	mov    ch,0x1a
    5cff:	b1 01                	mov    cl,0x1
    5d01:	88 07                	mov    BYTE PTR [bx],al
    5d03:	43                   	inc    bx
    5d04:	fe c1                	inc    cl
    5d06:	02 45 93             	add    al,BYTE PTR [di-0x6d]
    5d09:	3a 44 0f             	cmp    al,BYTE PTR [si+0xf]
    5d0c:	72 0c                	jb     0x5d1a
    5d0e:	74 07                	je     0x5d17
    5d10:	4b                   	dec    bx
    5d11:	fe c9                	dec    cl
    5d13:	b0 00                	mov    al,0x0
    5d15:	88 07                	mov    BYTE PTR [bx],al
    5d17:	e9 04 00             	jmp    0x5d1e
    5d1a:	fe cd                	dec    ch
    5d1c:	75 e3                	jne    0x5d01
    5d1e:	88 4c 0b             	mov    BYTE PTR [si+0xb],cl
    5d21:	fe c9                	dec    cl
    5d23:	74 02                	je     0x5d27
    5d25:	f8                   	clc    
    5d26:	c3                   	ret    
    5d27:	fe 4d 93             	dec    BYTE PTR [di-0x6d]
    5d2a:	8a 45 93             	mov    al,BYTE PTR [di-0x6d]
    5d2d:	3c 03                	cmp    al,0x3
    5d2f:	73 be                	jae    0x5cef
    5d31:	f9                   	stc    
    5d32:	c3                   	ret    
    5d33:	bb d5 4a             	mov    bx,0x4ad5
    5d36:	e8 a2 f8             	call   0x55db
    5d39:	48                   	dec    ax
    5d3a:	49                   	dec    cx
    5d3b:	5e                   	pop    si
    5d3c:	56                   	push   si
    5d3d:	53                   	push   bx
    5d3e:	5e                   	pop    si
    5d3f:	4e                   	dec    si
    5d40:	79 5e                	jns    0x5da0
    5d42:	42                   	inc    dx
    5d43:	46                   	inc    si
    5d44:	5e                   	pop    si
    5d45:	fe                   	(bad)  
    5d46:	e8 0a 00             	call   0x5d53
    5d49:	89 36 b9 74          	mov    WORD PTR ds:0x74b9,si
    5d4d:	be 0d 6d             	mov    si,0x6d0d
    5d50:	e9 07 00             	jmp    0x5d5a
    5d53:	89 36 b9 74          	mov    WORD PTR ds:0x74b9,si
    5d57:	be 0e 6d             	mov    si,0x6d0e
    5d5a:	8a 44 08             	mov    al,BYTE PTR [si+0x8]
    5d5d:	88 44 10             	mov    BYTE PTR [si+0x10],al
    5d60:	8a 44 28             	mov    al,BYTE PTR [si+0x28]
    5d63:	88 44 12             	mov    BYTE PTR [si+0x12],al
    5d66:	fe 44 12             	inc    BYTE PTR [si+0x12]
    5d69:	2a 44 10             	sub    al,BYTE PTR [si+0x10]
    5d6c:	88 44 14             	mov    BYTE PTR [si+0x14],al
    5d6f:	be 0d 6d             	mov    si,0x6d0d
    5d72:	80 4d a5 80          	or     BYTE PTR [di-0x5b],0x80
    5d76:	e9 22 fa             	jmp    0x579b
    5d79:	56                   	push   si
    5d7a:	c6 45 8b 02          	mov    BYTE PTR [di-0x75],0x2
    5d7e:	e8 0a 00             	call   0x5d8b
    5d81:	46                   	inc    si
    5d82:	fe 4d 8b             	dec    BYTE PTR [di-0x75]
    5d85:	75 f7                	jne    0x5d7e
    5d87:	4e                   	dec    si
    5d88:	4e                   	dec    si
    5d89:	5e                   	pop    si
    5d8a:	c3                   	ret    
    5d8b:	9f                   	lahf   
    5d8c:	86 e0                	xchg   al,ah
    5d8e:	50                   	push   ax
    5d8f:	86 e0                	xchg   al,ah
    5d91:	80 4d a5 80          	or     BYTE PTR [di-0x5b],0x80
    5d95:	b0 00                	mov    al,0x0
    5d97:	88 44 12             	mov    BYTE PTR [si+0x12],al
    5d9a:	88 44 10             	mov    BYTE PTR [si+0x10],al
    5d9d:	88 44 14             	mov    BYTE PTR [si+0x14],al
    5da0:	58                   	pop    ax
    5da1:	86 e0                	xchg   al,ah
    5da3:	9e                   	sahf   
    5da4:	c3                   	ret    
    5da5:	8a 44 14             	mov    al,BYTE PTR [si+0x14]
    5da8:	fe c0                	inc    al
    5daa:	88 44 04             	mov    BYTE PTR [si+0x4],al
    5dad:	b7 01                	mov    bh,0x1
    5daf:	b6 02                	mov    dh,0x2
    5db1:	e9 0c 00             	jmp    0x5dc0
    5db4:	8a 44 0a             	mov    al,BYTE PTR [si+0xa]
    5db7:	fe c8                	dec    al
    5db9:	88 44 04             	mov    BYTE PTR [si+0x4],al
    5dbc:	b7 02                	mov    bh,0x2
    5dbe:	b6 01                	mov    dh,0x1
    5dc0:	8a 44 0c             	mov    al,BYTE PTR [si+0xc]
    5dc3:	02 44 14             	add    al,BYTE PTR [si+0x14]
    5dc6:	9f                   	lahf   
    5dc7:	86 e0                	xchg   al,ah
    5dc9:	50                   	push   ax
    5dca:	86 e0                	xchg   al,ah
    5dcc:	00 f8                	add    al,bh
    5dce:	8a f8                	mov    bh,al
    5dd0:	8a 5c 0d             	mov    bl,BYTE PTR [si+0xd]
    5dd3:	58                   	pop    ax
    5dd4:	86 e0                	xchg   al,ah
    5dd6:	9e                   	sahf   
    5dd7:	00 f0                	add    al,dh
    5dd9:	8a f0                	mov    dh,al
    5ddb:	8a d3                	mov    dl,bl
    5ddd:	8a 44 0f             	mov    al,BYTE PTR [si+0xf]
    5de0:	2a 44 0d             	sub    al,BYTE PTR [si+0xd]
    5de3:	8a c8                	mov    cl,al
    5de5:	8a 44 0a             	mov    al,BYTE PTR [si+0xa]
    5de8:	2a 44 14             	sub    al,BYTE PTR [si+0x14]
    5deb:	2c 02                	sub    al,0x2
    5ded:	8a e8                	mov    ch,al
    5def:	e8 fc 0b             	call   0x69ee
    5df2:	e8 e7 f9             	call   0x57dc
    5df5:	b0 00                	mov    al,0x0
    5df7:	88 44 05             	mov    BYTE PTR [si+0x5],al
    5dfa:	9f                   	lahf   
    5dfb:	86 e0                	xchg   al,ah
    5dfd:	50                   	push   ax
    5dfe:	86 e0                	xchg   al,ah
    5e00:	e8 fb cb             	call   0x29fe
    5e03:	58                   	pop    ax
    5e04:	86 e0                	xchg   al,ah
    5e06:	9e                   	sahf   
    5e07:	fe c0                	inc    al
    5e09:	3a 44 0b             	cmp    al,BYTE PTR [si+0xb]
    5e0c:	72 e9                	jb     0x5df7
    5e0e:	e9 e1 f9             	jmp    0x57f2
    5e11:	8a 44 0b             	mov    al,BYTE PTR [si+0xb]
    5e14:	fe c8                	dec    al
    5e16:	88 44 05             	mov    BYTE PTR [si+0x5],al
    5e19:	8a 45 93             	mov    al,BYTE PTR [di-0x6d]
    5e1c:	f6 d8                	neg    al
    5e1e:	8a d0                	mov    dl,al
    5e20:	b1 02                	mov    cl,0x2
    5e22:	e9 0d 00             	jmp    0x5e32
    5e25:	8a 44 15             	mov    al,BYTE PTR [si+0x15]
    5e28:	fe c0                	inc    al
    5e2a:	88 44 05             	mov    BYTE PTR [si+0x5],al
    5e2d:	8a 55 93             	mov    dl,BYTE PTR [di-0x6d]
    5e30:	b1 01                	mov    cl,0x1
    5e32:	8a 44 15             	mov    al,BYTE PTR [si+0x15]
    5e35:	00 c8                	add    al,cl
    5e37:	8a c8                	mov    cl,al
    5e39:	b5 00                	mov    ch,0x0
    5e3b:	bb 53 6d             	mov    bx,0x6d53
    5e3e:	01 cb                	add    bx,cx
    5e40:	8a 1f                	mov    bl,BYTE PTR [bx]
    5e42:	8a 7c 0c             	mov    bh,BYTE PTR [si+0xc]
    5e45:	8a c3                	mov    al,bl
    5e47:	00 d0                	add    al,dl
    5e49:	8a d0                	mov    dl,al
    5e4b:	8a f7                	mov    dh,bh
    5e4d:	8a 44 0b             	mov    al,BYTE PTR [si+0xb]
    5e50:	2a 44 15             	sub    al,BYTE PTR [si+0x15]
    5e53:	2c 02                	sub    al,0x2
    5e55:	74 13                	je     0x5e6a
    5e57:	8a e8                	mov    ch,al
    5e59:	b0 00                	mov    al,0x0
    5e5b:	02 45 93             	add    al,BYTE PTR [di-0x6d]
    5e5e:	fe cd                	dec    ch
    5e60:	75 f9                	jne    0x5e5b
    5e62:	8a c8                	mov    cl,al
    5e64:	8a 6c 0a             	mov    ch,BYTE PTR [si+0xa]
    5e67:	e8 ae 0b             	call   0x6a18
    5e6a:	e8 6f f9             	call   0x57dc
    5e6d:	8a 44 0a             	mov    al,BYTE PTR [si+0xa]
    5e70:	fe c8                	dec    al
    5e72:	88 44 04             	mov    BYTE PTR [si+0x4],al
    5e75:	e8 86 cb             	call   0x29fe
    5e78:	fe 4c 04             	dec    BYTE PTR [si+0x4]
    5e7b:	79 f8                	jns    0x5e75
    5e7d:	e9 72 f9             	jmp    0x57f2
    5e80:	b0 1b                	mov    al,0x1b
    5e82:	ba c6 5f             	mov    dx,0x5fc6
    5e85:	b4 25                	mov    ah,0x25
    5e87:	cd 21                	int    0x21
    5e89:	b4 02                	mov    ah,0x2
    5e8b:	cd 16                	int    0x16
    5e8d:	24 10                	and    al,0x10
    5e8f:	88 06 02 75          	mov    BYTE PTR ds:0x7502,al
    5e93:	e8 51 01             	call   0x5fe7
    5e96:	e9 00 00             	jmp    0x5e99
    5e99:	1e                   	push   ds
    5e9a:	50                   	push   ax
    5e9b:	b8 00 00             	mov    ax,0x0
    5e9e:	8e d8                	mov    ds,ax
    5ea0:	58                   	pop    ax
    5ea1:	80 26 51 04 7f       	and    BYTE PTR ds:0x451,0x7f
    5ea6:	1f                   	pop    ds
    5ea7:	c3                   	ret    
    5ea8:	1e                   	push   ds
    5ea9:	50                   	push   ax
    5eaa:	b8 00 00             	mov    ax,0x0
    5ead:	8e d8                	mov    ds,ax
    5eaf:	58                   	pop    ax
    5eb0:	80 0e 51 04 80       	or     BYTE PTR ds:0x451,0x80
    5eb5:	1f                   	pop    ds
    5eb6:	c3                   	ret    
    5eb7:	1e                   	push   ds
    5eb8:	50                   	push   ax
    5eb9:	b8 00 00             	mov    ax,0x0
    5ebc:	8e d8                	mov    ds,ax
    5ebe:	58                   	pop    ax
    5ebf:	f6 06 51 04 80       	test   BYTE PTR ds:0x451,0x80
    5ec4:	1f                   	pop    ds
    5ec5:	c3                   	ret    
    5ec6:	1e                   	push   ds
    5ec7:	50                   	push   ax
    5ec8:	b8 00 00             	mov    ax,0x0
    5ecb:	8e d8                	mov    ds,ax
    5ecd:	58                   	pop    ax
    5ece:	80 0e 51 04 80       	or     BYTE PTR ds:0x451,0x80
    5ed3:	1f                   	pop    ds
    5ed4:	cf                   	iret   
    5ed5:	b4 02                	mov    ah,0x2
    5ed7:	cd 16                	int    0x16
    5ed9:	24 10                	and    al,0x10
    5edb:	3a 06 02 75          	cmp    al,BYTE PTR ds:0x7502
    5edf:	74 01                	je     0x5ee2
    5ee1:	c3                   	ret    
    5ee2:	b4 01                	mov    ah,0x1
    5ee4:	cd 16                	int    0x16
    5ee6:	c3                   	ret    
    5ee7:	b4 02                	mov    ah,0x2
    5ee9:	cd 16                	int    0x16
    5eeb:	24 10                	and    al,0x10
    5eed:	3a 06 02 75          	cmp    al,BYTE PTR ds:0x7502
    5ef1:	74 09                	je     0x5efc
    5ef3:	88 06 02 75          	mov    BYTE PTR ds:0x7502,al
    5ef7:	74 03                	je     0x5efc
    5ef9:	e9 63 00             	jmp    0x5f5f
    5efc:	b4 01                	mov    ah,0x1
    5efe:	cd 16                	int    0x16
    5f00:	75 03                	jne    0x5f05
    5f02:	e9 f4 00             	jmp    0x5ff9
    5f05:	b4 00                	mov    ah,0x0
    5f07:	cd 16                	int    0x16
    5f09:	3c 03                	cmp    al,0x3
    5f0b:	75 03                	jne    0x5f10
    5f0d:	e9 4f 00             	jmp    0x5f5f
    5f10:	8b 1e fe 74          	mov    bx,WORD PTR ds:0x74fe
    5f14:	89 1e 00 75          	mov    WORD PTR ds:0x7500,bx
    5f18:	e8 19 00             	call   0x5f34
    5f1b:	73 03                	jae    0x5f20
    5f1d:	e9 d9 00             	jmp    0x5ff9
    5f20:	88 27                	mov    BYTE PTR [bx],ah
    5f22:	e8 0f 00             	call   0x5f34
    5f25:	73 03                	jae    0x5f2a
    5f27:	e9 cf 00             	jmp    0x5ff9
    5f2a:	88 07                	mov    BYTE PTR [bx],al
    5f2c:	80 0e bb 74 80       	or     BYTE PTR ds:0x74bb,0x80
    5f31:	e9 b3 ff             	jmp    0x5ee7
    5f34:	ff 06 fe 74          	inc    WORD PTR ds:0x74fe
    5f38:	81 3e fe 74 fc 74    	cmp    WORD PTR ds:0x74fe,0x74fc
    5f3e:	75 06                	jne    0x5f46
    5f40:	c7 06 fe 74 bc 74    	mov    WORD PTR ds:0x74fe,0x74bc
    5f46:	8b 1e fe 74          	mov    bx,WORD PTR ds:0x74fe
    5f4a:	3b 1e fc 74          	cmp    bx,WORD PTR ds:0x74fc
    5f4e:	75 0d                	jne    0x5f5d
    5f50:	8b 1e 00 75          	mov    bx,WORD PTR ds:0x7500
    5f54:	89 1e fe 74          	mov    WORD PTR ds:0x74fe,bx
    5f58:	e8 ab 0b             	call   0x6b06
    5f5b:	f9                   	stc    
    5f5c:	c3                   	ret    
    5f5d:	f8                   	clc    
    5f5e:	c3                   	ret    
    5f5f:	e8 85 00             	call   0x5fe7
    5f62:	e8 43 ff             	call   0x5ea8
    5f65:	e8 7f ff             	call   0x5ee7
    5f68:	c3                   	ret    
    5f69:	e8 7b ff             	call   0x5ee7
    5f6c:	75 02                	jne    0x5f70
    5f6e:	f9                   	stc    
    5f6f:	c3                   	ret    
    5f70:	e8 15 00             	call   0x5f88
    5f73:	08 c9                	or     cl,cl
    5f75:	74 07                	je     0x5f7e
    5f77:	8a e9                	mov    ch,cl
    5f79:	b0 00                	mov    al,0x0
    5f7b:	e9 08 00             	jmp    0x5f86
    5f7e:	e8 43 00             	call   0x5fc4
    5f81:	73 03                	jae    0x5f86
    5f83:	e9 e3 ff             	jmp    0x5f69
    5f86:	f8                   	clc    
    5f87:	c3                   	ret    
    5f88:	ff 06 fc 74          	inc    WORD PTR ds:0x74fc
    5f8c:	81 3e fc 74 fc 74    	cmp    WORD PTR ds:0x74fc,0x74fc
    5f92:	75 06                	jne    0x5f9a
    5f94:	c7 06 fc 74 bc 74    	mov    WORD PTR ds:0x74fc,0x74bc
    5f9a:	8b 1e fc 74          	mov    bx,WORD PTR ds:0x74fc
    5f9e:	8a 2f                	mov    ch,BYTE PTR [bx]
    5fa0:	ff 06 fc 74          	inc    WORD PTR ds:0x74fc
    5fa4:	81 3e fc 74 fc 74    	cmp    WORD PTR ds:0x74fc,0x74fc
    5faa:	75 06                	jne    0x5fb2
    5fac:	c7 06 fc 74 bc 74    	mov    WORD PTR ds:0x74fc,0x74bc
    5fb2:	8b 1e fc 74          	mov    bx,WORD PTR ds:0x74fc
    5fb6:	8a 0f                	mov    cl,BYTE PTR [bx]
    5fb8:	3b 1e fe 74          	cmp    bx,WORD PTR ds:0x74fe
    5fbc:	75 05                	jne    0x5fc3
    5fbe:	80 26 bb 74 7f       	and    BYTE PTR ds:0x74bb,0x7f
    5fc3:	c3                   	ret    
    5fc4:	8a c5                	mov    al,ch
    5fc6:	bb ff 60             	mov    bx,0x60ff
    5fc9:	b9 06 00             	mov    cx,0x6
    5fcc:	ba 05 61             	mov    dx,0x6105
    5fcf:	f9                   	stc    
    5fd0:	3a 07                	cmp    al,BYTE PTR [bx]
    5fd2:	75 04                	jne    0x5fd8
    5fd4:	f8                   	clc    
    5fd5:	e9 05 00             	jmp    0x5fdd
    5fd8:	43                   	inc    bx
    5fd9:	42                   	inc    dx
    5fda:	42                   	inc    dx
    5fdb:	e2 f3                	loop   0x5fd0
    5fdd:	72 07                	jb     0x5fe6
    5fdf:	8b da                	mov    bx,dx
    5fe1:	8a 07                	mov    al,BYTE PTR [bx]
    5fe3:	43                   	inc    bx
    5fe4:	8a 2f                	mov    ch,BYTE PTR [bx]
    5fe6:	c3                   	ret    
    5fe7:	c7 06 fc 74 bc 74    	mov    WORD PTR ds:0x74fc,0x74bc
    5fed:	c7 06 fe 74 bc 74    	mov    WORD PTR ds:0x74fe,0x74bc
    5ff3:	80 26 bb 74 7f       	and    BYTE PTR ds:0x74bb,0x7f
    5ff8:	c3                   	ret    
    5ff9:	f6 06 bb 74 80       	test   BYTE PTR ds:0x74bb,0x80
    5ffe:	c3                   	ret    
    5fff:	4d                   	dec    bp
    6000:	4b                   	dec    bx
    6001:	48                   	dec    ax
    6002:	50                   	push   ax
    6003:	47                   	inc    di
    6004:	53                   	push   bx
    6005:	80 02 80             	add    BYTE PTR [bp+si],0x80
    6008:	01 80 03 80          	add    WORD PTR [bx+si-0x7ffd],ax
    600c:	04 80                	add    al,0x80
    600e:	06                   	push   es
    600f:	00 08                	add    BYTE PTR [bx+si],cl
    6011:	80 0e 03 75 80       	or     BYTE PTR ds:0x7503,0x80
    6016:	e8 58 01             	call   0x6171
    6019:	ba 80 00             	mov    dx,0x80
    601c:	b4 1a                	mov    ah,0x1a
    601e:	cd 21                	int    0x21
    6020:	1e                   	push   ds
    6021:	50                   	push   ax
    6022:	b8 00 00             	mov    ax,0x0
    6025:	8e d8                	mov    ds,ax
    6027:	58                   	pop    ax
    6028:	80 26 50 04 7f       	and    BYTE PTR ds:0x450,0x7f
    602d:	1f                   	pop    ds
    602e:	b0 24                	mov    al,0x24
    6030:	ba 87 62             	mov    dx,0x6287
    6033:	b4 25                	mov    ah,0x25
    6035:	cd 21                	int    0x21
    6037:	e8 05 00             	call   0x603f
    603a:	c3                   	ret    
    603b:	e8 1e 01             	call   0x615c
    603e:	c3                   	ret    
    603f:	cd 11                	int    0x11
    6041:	50                   	push   ax
    6042:	24 c0                	and    al,0xc0
    6044:	b1 06                	mov    cl,0x6
    6046:	d2 e8                	shr    al,cl
    6048:	fe c0                	inc    al
    604a:	88 06 19 75          	mov    BYTE PTR ds:0x7519,al
    604e:	80 e4 c0             	and    ah,0xc0
    6051:	b1 06                	mov    cl,0x6
    6053:	d2 ec                	shr    ah,cl
    6055:	88 26 1a 75          	mov    BYTE PTR ds:0x751a,ah
    6059:	58                   	pop    ax
    605a:	80 e4 0e             	and    ah,0xe
    605d:	d0 ec                	shr    ah,1
    605f:	88 26 1b 75          	mov    BYTE PTR ds:0x751b,ah
    6063:	c3                   	ret    
    6064:	9f                   	lahf   
    6065:	86 e0                	xchg   al,ah
    6067:	50                   	push   ax
    6068:	86 e0                	xchg   al,ah
    606a:	8a 06 0a 75          	mov    al,BYTE PTR ds:0x750a
    606e:	3c 00                	cmp    al,0x0
    6070:	74 08                	je     0x607a
    6072:	58                   	pop    ax
    6073:	86 e0                	xchg   al,ah
    6075:	9e                   	sahf   
    6076:	b0 14                	mov    al,0x14
    6078:	f9                   	stc    
    6079:	c3                   	ret    
    607a:	58                   	pop    ax
    607b:	86 e0                	xchg   al,ah
    607d:	9e                   	sahf   
    607e:	88 06 0a 75          	mov    BYTE PTR ds:0x750a,al
    6082:	e9 4e 00             	jmp    0x60d3
    6085:	50                   	push   ax
    6086:	53                   	push   bx
    6087:	51                   	push   cx
    6088:	52                   	push   dx
    6089:	e8 d0 00             	call   0x615c
    608c:	5a                   	pop    dx
    608d:	59                   	pop    cx
    608e:	5b                   	pop    bx
    608f:	58                   	pop    ax
    6090:	88 06 0a 75          	mov    BYTE PTR ds:0x750a,al
    6094:	89 16 0f 75          	mov    WORD PTR ds:0x750f,dx
    6098:	ba 2d 75             	mov    dx,0x752d
    609b:	b5 00                	mov    ch,0x0
    609d:	8a c1                	mov    al,cl
    609f:	3c 11                	cmp    al,0x11
    60a1:	76 05                	jbe    0x60a8
    60a3:	b0 07                	mov    al,0x7
    60a5:	e9 0c 01             	jmp    0x61b4
    60a8:	08 c0                	or     al,al
    60aa:	74 0d                	je     0x60b9
    60ac:	9c                   	pushf  
    60ad:	87 f3                	xchg   bx,si
    60af:	87 fa                	xchg   dx,di
    60b1:	fc                   	cld    
    60b2:	f3 a4                	rep movs BYTE PTR es:[di],BYTE PTR ds:[si]
    60b4:	87 f3                	xchg   bx,si
    60b6:	87 fa                	xchg   dx,di
    60b8:	9d                   	popf   
    60b9:	b0 0d                	mov    al,0xd
    60bb:	8b ea                	mov    bp,dx
    60bd:	88 46 00             	mov    BYTE PTR [bp+0x0],al
    60c0:	bb 2d 75             	mov    bx,0x752d
    60c3:	e8 3d 06             	call   0x6703
    60c6:	73 03                	jae    0x60cb
    60c8:	e9 e7 00             	jmp    0x61b2
    60cb:	e8 27 00             	call   0x60f5
    60ce:	73 03                	jae    0x60d3
    60d0:	e9 df 00             	jmp    0x61b2
    60d3:	8a 06 0b 75          	mov    al,BYTE PTR ds:0x750b
    60d7:	3c 44                	cmp    al,0x44
    60d9:	75 03                	jne    0x60de
    60db:	e9 51 01             	jmp    0x622f
    60de:	3c 52                	cmp    al,0x52
    60e0:	75 03                	jne    0x60e5
    60e2:	e9 a3 03             	jmp    0x6488
    60e5:	3c 50                	cmp    al,0x50
    60e7:	75 03                	jne    0x60ec
    60e9:	e9 ae 04             	jmp    0x659a
    60ec:	3c 47                	cmp    al,0x47
    60ee:	75 03                	jne    0x60f3
    60f0:	e9 97 04             	jmp    0x658a
    60f3:	f9                   	stc    
    60f4:	c3                   	ret    
    60f5:	b8 1e 75             	mov    ax,0x751e
    60f8:	bb 10 62             	mov    bx,0x6210
    60fb:	b9 03 00             	mov    cx,0x3
    60fe:	ba 30 62             	mov    dx,0x6230
    6101:	e8 2c 00             	call   0x6130
    6104:	72 09                	jb     0x610f
    6106:	88 06 0b 75          	mov    BYTE PTR ds:0x750b,al
    610a:	80 0e 0c 75 80       	or     BYTE PTR ds:0x750c,0x80
    610f:	c3                   	ret    
    6110:	20 20                	and    BYTE PTR [bx+si],ah
    6112:	20 44 41             	and    BYTE PTR [si+0x41],al
    6115:	20 20                	and    BYTE PTR [bx+si],ah
    6117:	44                   	inc    sp
    6118:	42                   	inc    dx
    6119:	20 20                	and    BYTE PTR [bx+si],ah
    611b:	44                   	inc    sp
    611c:	43                   	inc    bx
    611d:	20 20                	and    BYTE PTR [bx+si],ah
    611f:	44                   	inc    sp
    6120:	44                   	inc    sp
    6121:	20 20                	and    BYTE PTR [bx+si],ah
    6123:	44                   	inc    sp
    6124:	4c                   	dec    sp
    6125:	50                   	push   ax
    6126:	54                   	push   sp
    6127:	50                   	push   ax
    6128:	43                   	inc    bx
    6129:	4f                   	dec    di
    612a:	4d                   	dec    bp
    612b:	52                   	push   dx
    612c:	50                   	push   ax
    612d:	52                   	push   dx
    612e:	54                   	push   sp
    612f:	47                   	inc    di
    6130:	56                   	push   si
    6131:	57                   	push   di
    6132:	fc                   	cld    
    6133:	89 06 3e 75          	mov    WORD PTR ds:0x753e,ax
    6137:	89 0e 40 75          	mov    WORD PTR ds:0x7540,cx
    613b:	8b 3e 3e 75          	mov    di,WORD PTR ds:0x753e
    613f:	8b f3                	mov    si,bx
    6141:	8b 0e 40 75          	mov    cx,WORD PTR ds:0x7540
    6145:	f3 a6                	repz cmps BYTE PTR ds:[si],BYTE PTR es:[di]
    6147:	75 06                	jne    0x614f
    6149:	8a 04                	mov    al,BYTE PTR [si]
    614b:	f8                   	clc    
    614c:	5f                   	pop    di
    614d:	5e                   	pop    si
    614e:	c3                   	ret    
    614f:	03 1e 40 75          	add    bx,WORD PTR ds:0x7540
    6153:	43                   	inc    bx
    6154:	39 d3                	cmp    bx,dx
    6156:	72 e3                	jb     0x613b
    6158:	f9                   	stc    
    6159:	5f                   	pop    di
    615a:	5e                   	pop    si
    615b:	c3                   	ret    
    615c:	8a 06 0a 75          	mov    al,BYTE PTR ds:0x750a
    6160:	3c 00                	cmp    al,0x0
    6162:	75 02                	jne    0x6166
    6164:	f8                   	clc    
    6165:	c3                   	ret    
    6166:	8b 1e 08 75          	mov    bx,WORD PTR ds:0x7508
    616a:	ff e3                	jmp    bx
    616c:	e8 02 00             	call   0x6171
    616f:	f8                   	clc    
    6170:	c3                   	ret    
    6171:	b0 00                	mov    al,0x0
    6173:	88 06 0a 75          	mov    BYTE PTR ds:0x750a,al
    6177:	bb c3 62             	mov    bx,0x62c3
    617a:	89 1e 04 75          	mov    WORD PTR ds:0x7504,bx
    617e:	89 1e 06 75          	mov    WORD PTR ds:0x7506,bx
    6182:	89 1e 08 75          	mov    WORD PTR ds:0x7508,bx
    6186:	c3                   	ret    
    6187:	1e                   	push   ds
    6188:	50                   	push   ax
    6189:	b8 00 00             	mov    ax,0x0
    618c:	8e d8                	mov    ds,ax
    618e:	58                   	pop    ax
    618f:	8b c7                	mov    ax,di
    6191:	3c 02                	cmp    al,0x2
    6193:	75 05                	jne    0x619a
    6195:	b0 16                	mov    al,0x16
    6197:	e9 0b 00             	jmp    0x61a5
    619a:	3c 00                	cmp    al,0x0
    619c:	75 05                	jne    0x61a3
    619e:	b0 0e                	mov    al,0xe
    61a0:	e9 02 00             	jmp    0x61a5
    61a3:	b0 0a                	mov    al,0xa
    61a5:	88 06 50 04          	mov    BYTE PTR ds:0x450,al
    61a9:	80 0e 50 04 80       	or     BYTE PTR ds:0x450,0x80
    61ae:	b0 00                	mov    al,0x0
    61b0:	1f                   	pop    ds
    61b1:	cf                   	iret   
    61b2:	b0 07                	mov    al,0x7
    61b4:	9f                   	lahf   
    61b5:	86 e0                	xchg   al,ah
    61b7:	50                   	push   ax
    61b8:	86 e0                	xchg   al,ah
    61ba:	e8 b4 ff             	call   0x6171
    61bd:	58                   	pop    ax
    61be:	86 e0                	xchg   al,ah
    61c0:	9e                   	sahf   
    61c1:	f9                   	stc    
    61c2:	c3                   	ret    
    61c3:	b0 02                	mov    al,0x2
    61c5:	f9                   	stc    
    61c6:	c3                   	ret    
    61c7:	8a 06 0a 75          	mov    al,BYTE PTR ds:0x750a
    61cb:	3c 00                	cmp    al,0x0
    61cd:	75 03                	jne    0x61d2
    61cf:	e9 f1 ff             	jmp    0x61c3
    61d2:	8a 06 0b 75          	mov    al,BYTE PTR ds:0x750b
    61d6:	3c 44                	cmp    al,0x44
    61d8:	74 05                	je     0x61df
    61da:	b0 07                	mov    al,0x7
    61dc:	e9 d5 ff             	jmp    0x61b4
    61df:	ba 5c 00             	mov    dx,0x5c
    61e2:	b4 13                	mov    ah,0x13
    61e4:	cd 21                	int    0x21
    61e6:	e8 a7 00             	call   0x6290
    61e9:	08 c0                	or     al,al
    61eb:	74 08                	je     0x61f5
    61ed:	e8 6c ff             	call   0x615c
    61f0:	b0 01                	mov    al,0x1
    61f2:	e9 bf ff             	jmp    0x61b4
    61f5:	e8 79 ff             	call   0x6171
    61f8:	f8                   	clc    
    61f9:	c3                   	ret    
    61fa:	3c 0d                	cmp    al,0xd
    61fc:	75 1a                	jne    0x6218
    61fe:	e8 17 00             	call   0x6218
    6201:	73 01                	jae    0x6204
    6203:	c3                   	ret    
    6204:	f6 06 0c 75 80       	test   BYTE PTR ds:0x750c,0x80
    6209:	74 0b                	je     0x6216
    620b:	f6 06 03 75 80       	test   BYTE PTR ds:0x7503,0x80
    6210:	75 04                	jne    0x6216
    6212:	c3                   	ret    
    6213:	e9 02 00             	jmp    0x6218
    6216:	b0 0a                	mov    al,0xa
    6218:	8b 1e 06 75          	mov    bx,WORD PTR ds:0x7506
    621c:	ff e3                	jmp    bx
    621e:	e8 08 00             	call   0x6229
    6221:	73 01                	jae    0x6224
    6223:	c3                   	ret    
    6224:	3c 0a                	cmp    al,0xa
    6226:	74 f6                	je     0x621e
    6228:	c3                   	ret    
    6229:	8b 1e 04 75          	mov    bx,WORD PTR ds:0x7504
    622d:	ff e3                	jmp    bx
    622f:	e8 7d 00             	call   0x62af
    6232:	73 03                	jae    0x6237
    6234:	e9 7d ff             	jmp    0x61b4
    6237:	80 26 0c 75 7f       	and    BYTE PTR ds:0x750c,0x7f
    623c:	80 26 17 75 7f       	and    BYTE PTR ds:0x7517,0x7f
    6241:	80 26 18 75 7f       	and    BYTE PTR ds:0x7518,0x7f
    6246:	e8 8d 00             	call   0x62d6
    6249:	e8 9f 00             	call   0x62eb
    624c:	f6 06 18 75 80       	test   BYTE PTR ds:0x7518,0x80
    6251:	74 07                	je     0x625a
    6253:	e8 1b ff             	call   0x6171
    6256:	b0 10                	mov    al,0x10
    6258:	f9                   	stc    
    6259:	c3                   	ret    
    625a:	b0 00                	mov    al,0x0
    625c:	88 06 7c 00          	mov    BYTE PTR ds:0x7c,al
    6260:	ba 5c 00             	mov    dx,0x5c
    6263:	8a 06 0a 75          	mov    al,BYTE PTR ds:0x750a
    6267:	3c 80                	cmp    al,0x80
    6269:	75 06                	jne    0x6271
    626b:	e8 b8 00             	call   0x6326
    626e:	e9 03 00             	jmp    0x6274
    6271:	e8 d0 00             	call   0x6344
    6274:	73 03                	jae    0x6279
    6276:	e9 3b ff             	jmp    0x61b4
    6279:	88 06 16 75          	mov    BYTE PTR ds:0x7516,al
    627d:	bb 80 00             	mov    bx,0x80
    6280:	89 1e 14 75          	mov    WORD PTR ds:0x7514,bx
    6284:	bb 6c 64             	mov    bx,0x646c
    6287:	89 1e 08 75          	mov    WORD PTR ds:0x7508,bx
    628b:	e8 8c 01             	call   0x641a
    628e:	f8                   	clc    
    628f:	c3                   	ret    
    6290:	1e                   	push   ds
    6291:	50                   	push   ax
    6292:	b8 00 00             	mov    ax,0x0
    6295:	8e d8                	mov    ds,ax
    6297:	58                   	pop    ax
    6298:	f6 06 50 04 80       	test   BYTE PTR ds:0x450,0x80
    629d:	74 0e                	je     0x62ad
    629f:	80 26 50 04 7f       	and    BYTE PTR ds:0x450,0x7f
    62a4:	8a 06 50 04          	mov    al,BYTE PTR ds:0x450
    62a8:	1f                   	pop    ds
    62a9:	5b                   	pop    bx
    62aa:	e9 07 ff             	jmp    0x61b4
    62ad:	1f                   	pop    ds
    62ae:	c3                   	ret    
    62af:	8a 06 1e 75          	mov    al,BYTE PTR ds:0x751e
    62b3:	3c 20                	cmp    al,0x20
    62b5:	75 07                	jne    0x62be
    62b7:	b0 00                	mov    al,0x0
    62b9:	b4 ff                	mov    ah,0xff
    62bb:	e9 04 00             	jmp    0x62c2
    62be:	2c 40                	sub    al,0x40
    62c0:	8a e0                	mov    ah,al
    62c2:	88 06 5c 00          	mov    BYTE PTR ds:0x5c,al
    62c6:	88 26 12 75          	mov    BYTE PTR ds:0x7512,ah
    62ca:	3a 06 19 75          	cmp    al,BYTE PTR ds:0x7519
    62ce:	76 04                	jbe    0x62d4
    62d0:	b0 16                	mov    al,0x16
    62d2:	f9                   	stc    
    62d3:	c3                   	ret    
    62d4:	f8                   	clc    
    62d5:	c3                   	ret    
    62d6:	bb 22 75             	mov    bx,0x7522
    62d9:	8a 07                	mov    al,BYTE PTR [bx]
    62db:	3c 20                	cmp    al,0x20
    62dd:	75 04                	jne    0x62e3
    62df:	b0 2a                	mov    al,0x2a
    62e1:	88 07                	mov    BYTE PTR [bx],al
    62e3:	ba 5d 00             	mov    dx,0x5d
    62e6:	b5 08                	mov    ch,0x8
    62e8:	e9 1c 00             	jmp    0x6307
    62eb:	bb 2a 75             	mov    bx,0x752a
    62ee:	8a 07                	mov    al,BYTE PTR [bx]
    62f0:	3c 20                	cmp    al,0x20
    62f2:	75 0b                	jne    0x62ff
    62f4:	f6 06 11 75 80       	test   BYTE PTR ds:0x7511,0x80
    62f9:	74 04                	je     0x62ff
    62fb:	8b 1e 0f 75          	mov    bx,WORD PTR ds:0x750f
    62ff:	ba 65 00             	mov    dx,0x65
    6302:	b5 03                	mov    ch,0x3
    6304:	e9 00 00             	jmp    0x6307
    6307:	8a 07                	mov    al,BYTE PTR [bx]
    6309:	3c 2a                	cmp    al,0x2a
    630b:	75 03                	jne    0x6310
    630d:	e9 9d 04             	jmp    0x67ad
    6310:	3c 3f                	cmp    al,0x3f
    6312:	75 05                	jne    0x6319
    6314:	80 0e 18 75 80       	or     BYTE PTR ds:0x7518,0x80
    6319:	8b ea                	mov    bp,dx
    631b:	88 46 00             	mov    BYTE PTR [bp+0x0],al
    631e:	43                   	inc    bx
    631f:	42                   	inc    dx
    6320:	fe cd                	dec    ch
    6322:	75 e3                	jne    0x6307
    6324:	f8                   	clc    
    6325:	c3                   	ret    
    6326:	b4 0f                	mov    ah,0xf
    6328:	cd 21                	int    0x21
    632a:	e8 63 ff             	call   0x6290
    632d:	08 c0                	or     al,al
    632f:	79 04                	jns    0x6335
    6331:	b0 01                	mov    al,0x1
    6333:	f9                   	stc    
    6334:	c3                   	ret    
    6335:	80 26 42 75 7f       	and    BYTE PTR ds:0x7542,0x7f
    633a:	bb 2a 65             	mov    bx,0x652a
    633d:	89 1e 04 75          	mov    WORD PTR ds:0x7504,bx
    6341:	b0 01                	mov    al,0x1
    6343:	c3                   	ret    
    6344:	b4 0f                	mov    ah,0xf
    6346:	cd 21                	int    0x21
    6348:	e8 45 ff             	call   0x6290
    634b:	08 c0                	or     al,al
    634d:	75 01                	jne    0x6350
    634f:	c3                   	ret    
    6350:	ba 5c 00             	mov    dx,0x5c
    6353:	b4 16                	mov    ah,0x16
    6355:	cd 21                	int    0x21
    6357:	e8 36 ff             	call   0x6290
    635a:	08 c0                	or     al,al
    635c:	79 04                	jns    0x6362
    635e:	b0 05                	mov    al,0x5
    6360:	f9                   	stc    
    6361:	c3                   	ret    
    6362:	bb ca 64             	mov    bx,0x64ca
    6365:	89 1e 06 75          	mov    WORD PTR ds:0x7506,bx
    6369:	b0 00                	mov    al,0x0
    636b:	c3                   	ret    
    636c:	3c 80                	cmp    al,0x80
    636e:	75 06                	jne    0x6376
    6370:	e8 43 00             	call   0x63b6
    6373:	e9 3f 00             	jmp    0x63b5
    6376:	8a 06 16 75          	mov    al,BYTE PTR ds:0x7516
    637a:	08 c0                	or     al,al
    637c:	74 16                	je     0x6394
    637e:	e8 7e 00             	call   0x63ff
    6381:	73 11                	jae    0x6394
    6383:	9f                   	lahf   
    6384:	86 e0                	xchg   al,ah
    6386:	50                   	push   ax
    6387:	86 e0                	xchg   al,ah
    6389:	e8 2a 00             	call   0x63b6
    638c:	e8 e2 fd             	call   0x6171
    638f:	58                   	pop    ax
    6390:	86 e0                	xchg   al,ah
    6392:	9e                   	sahf   
    6393:	c3                   	ret    
    6394:	e8 1f 00             	call   0x63b6
    6397:	73 01                	jae    0x639a
    6399:	c3                   	ret    
    639a:	e8 d4 fd             	call   0x6171
    639d:	f6 06 17 75 80       	test   BYTE PTR ds:0x7517,0x80
    63a2:	75 11                	jne    0x63b5
    63a4:	b0 80                	mov    al,0x80
    63a6:	e8 bb fc             	call   0x6064
    63a9:	74 03                	je     0x63ae
    63ab:	e9 06 fe             	jmp    0x61b4
    63ae:	e8 16 fe             	call   0x61c7
    63b1:	73 01                	jae    0x63b4
    63b3:	c3                   	ret    
    63b4:	c3                   	ret    
    63b5:	c3                   	ret    
    63b6:	ba 5c 00             	mov    dx,0x5c
    63b9:	b4 10                	mov    ah,0x10
    63bb:	cd 21                	int    0x21
    63bd:	e8 d0 fe             	call   0x6290
    63c0:	08 c0                	or     al,al
    63c2:	79 05                	jns    0x63c9
    63c4:	b0 01                	mov    al,0x1
    63c6:	e8 eb fd             	call   0x61b4
    63c9:	c3                   	ret    
    63ca:	9f                   	lahf   
    63cb:	86 e0                	xchg   al,ah
    63cd:	50                   	push   ax
    63ce:	86 e0                	xchg   al,ah
    63d0:	80 0e 17 75 80       	or     BYTE PTR ds:0x7517,0x80
    63d5:	58                   	pop    ax
    63d6:	86 e0                	xchg   al,ah
    63d8:	9e                   	sahf   
    63d9:	8b 1e 14 75          	mov    bx,WORD PTR ds:0x7514
    63dd:	88 07                	mov    BYTE PTR [bx],al
    63df:	43                   	inc    bx
    63e0:	8a 06 16 75          	mov    al,BYTE PTR ds:0x7516
    63e4:	fe c0                	inc    al
    63e6:	3c 80                	cmp    al,0x80
    63e8:	75 0b                	jne    0x63f5
    63ea:	e8 12 00             	call   0x63ff
    63ed:	73 01                	jae    0x63f0
    63ef:	c3                   	ret    
    63f0:	bb 80 00             	mov    bx,0x80
    63f3:	b0 00                	mov    al,0x0
    63f5:	88 06 16 75          	mov    BYTE PTR ds:0x7516,al
    63f9:	89 1e 14 75          	mov    WORD PTR ds:0x7514,bx
    63fd:	f8                   	clc    
    63fe:	c3                   	ret    
    63ff:	ba 5c 00             	mov    dx,0x5c
    6402:	b4 15                	mov    ah,0x15
    6404:	cd 21                	int    0x21
    6406:	e8 87 fe             	call   0x6290
    6409:	08 c0                	or     al,al
    640b:	74 0d                	je     0x641a
    640d:	b0 00                	mov    al,0x0
    640f:	88 06 16 75          	mov    BYTE PTR ds:0x7516,al
    6413:	e8 46 fd             	call   0x615c
    6416:	b0 05                	mov    al,0x5
    6418:	f9                   	stc    
    6419:	c3                   	ret    
    641a:	b0 00                	mov    al,0x0
    641c:	bb 80 00             	mov    bx,0x80
    641f:	b5 80                	mov    ch,0x80
    6421:	88 07                	mov    BYTE PTR [bx],al
    6423:	43                   	inc    bx
    6424:	fe cd                	dec    ch
    6426:	75 f9                	jne    0x6421
    6428:	f8                   	clc    
    6429:	c3                   	ret    
    642a:	8b 1e 14 75          	mov    bx,WORD PTR ds:0x7514
    642e:	8a 06 16 75          	mov    al,BYTE PTR ds:0x7516
    6432:	fe c8                	dec    al
    6434:	75 30                	jne    0x6466
    6436:	f6 06 42 75 80       	test   BYTE PTR ds:0x7542,0x80
    643b:	74 03                	je     0x6440
    643d:	e9 3f 00             	jmp    0x647f
    6440:	ba 5c 00             	mov    dx,0x5c
    6443:	b4 14                	mov    ah,0x14
    6445:	cd 21                	int    0x21
    6447:	e8 46 fe             	call   0x6290
    644a:	08 c0                	or     al,al
    644c:	74 13                	je     0x6461
    644e:	3c 01                	cmp    al,0x1
    6450:	75 03                	jne    0x6455
    6452:	e9 2a 00             	jmp    0x647f
    6455:	3c 03                	cmp    al,0x3
    6457:	74 03                	je     0x645c
    6459:	e9 1e 00             	jmp    0x647a
    645c:	80 0e 42 75 80       	or     BYTE PTR ds:0x7542,0x80
    6461:	b0 80                	mov    al,0x80
    6463:	bb 80 00             	mov    bx,0x80
    6466:	88 06 16 75          	mov    BYTE PTR ds:0x7516,al
    646a:	8a 07                	mov    al,BYTE PTR [bx]
    646c:	43                   	inc    bx
    646d:	89 1e 14 75          	mov    WORD PTR ds:0x7514,bx
    6471:	08 c0                	or     al,al
    6473:	75 03                	jne    0x6478
    6475:	e9 07 00             	jmp    0x647f
    6478:	f8                   	clc    
    6479:	c3                   	ret    
    647a:	b0 0a                	mov    al,0xa
    647c:	e9 02 00             	jmp    0x6481
    647f:	b0 03                	mov    al,0x3
    6481:	50                   	push   ax
    6482:	e8 d7 fc             	call   0x615c
    6485:	58                   	pop    ax
    6486:	f9                   	stc    
    6487:	c3                   	ret    
    6488:	8a 06 0a 75          	mov    al,BYTE PTR ds:0x750a
    648c:	3c 80                	cmp    al,0x80
    648e:	75 02                	jne    0x6492
    6490:	f9                   	stc    
    6491:	c3                   	ret    
    6492:	bb 58 66             	mov    bx,0x6658
    6495:	89 1e 06 75          	mov    WORD PTR ds:0x7506,bx
    6499:	bb 6c 62             	mov    bx,0x626c
    649c:	89 1e 08 75          	mov    WORD PTR ds:0x7508,bx
    64a0:	e8 32 00             	call   0x64d5
    64a3:	73 03                	jae    0x64a8
    64a5:	e9 0c fd             	jmp    0x61b4
    64a8:	e8 4f 00             	call   0x64fa
    64ab:	73 03                	jae    0x64b0
    64ad:	e9 02 fd             	jmp    0x61b2
    64b0:	e8 87 00             	call   0x653a
    64b3:	73 03                	jae    0x64b8
    64b5:	e9 fc fc             	jmp    0x61b4
    64b8:	8a 06 1c 75          	mov    al,BYTE PTR ds:0x751c
    64bc:	88 06 f9 65          	mov    BYTE PTR ds:0x65f9,al
    64c0:	fe c8                	dec    al
    64c2:	b4 00                	mov    ah,0x0
    64c4:	bb 38 66             	mov    bx,0x6638
    64c7:	01 c3                	add    bx,ax
    64c9:	8a 06 1d 75          	mov    al,BYTE PTR ds:0x751d
    64cd:	88 07                	mov    BYTE PTR [bx],al
    64cf:	c6 06 89 66 52       	mov    BYTE PTR ds:0x6689,0x52
    64d4:	c3                   	ret    
    64d5:	bb 21 75             	mov    bx,0x7521
    64d8:	8a 07                	mov    al,BYTE PTR [bx]
    64da:	3c 20                	cmp    al,0x20
    64dc:	75 07                	jne    0x64e5
    64de:	8a 06 f9 65          	mov    al,BYTE PTR ds:0x65f9
    64e2:	e9 02 00             	jmp    0x64e7
    64e5:	2c 30                	sub    al,0x30
    64e7:	3a 06 1b 75          	cmp    al,BYTE PTR ds:0x751b
    64eb:	76 06                	jbe    0x64f3
    64ed:	b0 16                	mov    al,0x16
    64ef:	f9                   	stc    
    64f0:	e9 05 00             	jmp    0x64f8
    64f3:	88 06 1c 75          	mov    BYTE PTR ds:0x751c,al
    64f7:	f8                   	clc    
    64f8:	c3                   	ret    
    64f9:	01 bb 22 75          	add    WORD PTR [bp+di+0x7522],di
    64fd:	8a 07                	mov    al,BYTE PTR [bx]
    64ff:	3c 20                	cmp    al,0x20
    6501:	75 01                	jne    0x6504
    6503:	c3                   	ret    
    6504:	3c 42                	cmp    al,0x42
    6506:	74 02                	je     0x650a
    6508:	f9                   	stc    
    6509:	c3                   	ret    
    650a:	43                   	inc    bx
    650b:	8b c3                	mov    ax,bx
    650d:	bb 20 66             	mov    bx,0x6620
    6510:	b9 02 00             	mov    cx,0x2
    6513:	ba 38 66             	mov    dx,0x6638
    6516:	e8 17 fc             	call   0x6130
    6519:	72 04                	jb     0x651f
    651b:	88 06 1d 75          	mov    BYTE PTR ds:0x751d,al
    651f:	c3                   	ret    
    6520:	31 31                	xor    WORD PTR [bx+di],si
    6522:	00 31                	add    BYTE PTR [bx+di],dh
    6524:	35 01 33             	xor    ax,0x3301
    6527:	30 02                	xor    BYTE PTR [bp+si],al
    6529:	36 30 03             	xor    BYTE PTR ss:[bp+di],al
    652c:	31 32                	xor    WORD PTR [bp+si],si
    652e:	04 32                	add    al,0x32
    6530:	34 05                	xor    al,0x5
    6532:	34 38                	xor    al,0x38
    6534:	06                   	push   es
    6535:	39 36 07 02          	cmp    WORD PTR ds:0x207,si
    6539:	02 b6 00 8a          	add    dh,BYTE PTR [bp-0x7600]
    653d:	16                   	push   ss
    653e:	1c 75                	sbb    al,0x75
    6540:	fe ca                	dec    dl
    6542:	8a 06 1d 75          	mov    al,BYTE PTR ds:0x751d
    6546:	b1 05                	mov    cl,0x5
    6548:	d2 e0                	shl    al,cl
    654a:	0c 07                	or     al,0x7
    654c:	b4 00                	mov    ah,0x0
    654e:	cd 14                	int    0x14
    6550:	f8                   	clc    
    6551:	f6 c4 80             	test   ah,0x80
    6554:	74 01                	je     0x6557
    6556:	f9                   	stc    
    6557:	c3                   	ret    
    6558:	88 06 43 75          	mov    BYTE PTR ds:0x7543,al
    655c:	b4 01                	mov    ah,0x1
    655e:	b6 00                	mov    dh,0x0
    6560:	8a 16 f9 65          	mov    dl,BYTE PTR ds:0x65f9
    6564:	fe ca                	dec    dl
    6566:	cd 14                	int    0x14
    6568:	8a 06 43 75          	mov    al,BYTE PTR ds:0x7543
    656c:	e8 06 00             	call   0x6575
    656f:	e8 0c 00             	call   0x657e
    6572:	74 e8                	je     0x655c
    6574:	c3                   	ret    
    6575:	f8                   	clc    
    6576:	f6 c4 9c             	test   ah,0x9c
    6579:	75 01                	jne    0x657c
    657b:	c3                   	ret    
    657c:	f9                   	stc    
    657d:	c3                   	ret    
    657e:	72 04                	jb     0x6584
    6580:	80 cc 01             	or     ah,0x1
    6583:	c3                   	ret    
    6584:	e8 30 f9             	call   0x5eb7
    6587:	f9                   	stc    
    6588:	c3                   	ret    
    6589:	50                   	push   ax
    658a:	b0 20                	mov    al,0x20
    658c:	88 06 21 75          	mov    BYTE PTR ds:0x7521,al
    6590:	80 3e 89 66 52       	cmp    BYTE PTR ds:0x6689,0x52
    6595:	75 03                	jne    0x659a
    6597:	e9 ee fe             	jmp    0x6488
    659a:	8a 06 0a 75          	mov    al,BYTE PTR ds:0x750a
    659e:	3c 80                	cmp    al,0x80
    65a0:	75 02                	jne    0x65a4
    65a2:	f9                   	stc    
    65a3:	c3                   	ret    
    65a4:	bb 14 67             	mov    bx,0x6714
    65a7:	89 1e 06 75          	mov    WORD PTR ds:0x7506,bx
    65ab:	bb 6c 62             	mov    bx,0x626c
    65ae:	89 1e 08 75          	mov    WORD PTR ds:0x7508,bx
    65b2:	e8 1b 00             	call   0x65d0
    65b5:	73 03                	jae    0x65ba
    65b7:	e9 fa fb             	jmp    0x61b4
    65ba:	e8 38 00             	call   0x65f5
    65bd:	73 03                	jae    0x65c2
    65bf:	e9 f2 fb             	jmp    0x61b4
    65c2:	8a 06 1c 75          	mov    al,BYTE PTR ds:0x751c
    65c6:	88 06 f4 66          	mov    BYTE PTR ds:0x66f4,al
    65ca:	c6 06 89 66 50       	mov    BYTE PTR ds:0x6689,0x50
    65cf:	c3                   	ret    
    65d0:	bb 21 75             	mov    bx,0x7521
    65d3:	8a 07                	mov    al,BYTE PTR [bx]
    65d5:	3c 20                	cmp    al,0x20
    65d7:	75 07                	jne    0x65e0
    65d9:	8a 06 f4 66          	mov    al,BYTE PTR ds:0x66f4
    65dd:	e9 02 00             	jmp    0x65e2
    65e0:	2c 30                	sub    al,0x30
    65e2:	3a 06 1a 75          	cmp    al,BYTE PTR ds:0x751a
    65e6:	76 06                	jbe    0x65ee
    65e8:	b0 16                	mov    al,0x16
    65ea:	f9                   	stc    
    65eb:	e9 05 00             	jmp    0x65f3
    65ee:	88 06 1c 75          	mov    BYTE PTR ds:0x751c,al
    65f2:	f8                   	clc    
    65f3:	c3                   	ret    
    65f4:	01 b4 01 b6          	add    WORD PTR [si-0x49ff],si
    65f8:	00 8a 16 1c          	add    BYTE PTR [bp+si+0x1c16],cl
    65fc:	75 fe                	jne    0x65fc
    65fe:	ca cd 17             	retf   0x17cd
    6601:	f8                   	clc    
    6602:	f6 c4 01             	test   ah,0x1
    6605:	74 03                	je     0x660a
    6607:	b0 16                	mov    al,0x16
    6609:	f9                   	stc    
    660a:	c3                   	ret    
    660b:	f8                   	clc    
    660c:	f6 c4 a9             	test   ah,0xa9
    660f:	75 01                	jne    0x6612
    6611:	c3                   	ret    
    6612:	f9                   	stc    
    6613:	c3                   	ret    
    6614:	88 06 44 75          	mov    BYTE PTR ds:0x7544,al
    6618:	b4 00                	mov    ah,0x0
    661a:	8a f4                	mov    dh,ah
    661c:	8a 16 f4 66          	mov    dl,BYTE PTR ds:0x66f4
    6620:	fe ca                	dec    dl
    6622:	cd 17                	int    0x17
    6624:	8a 06 44 75          	mov    al,BYTE PTR ds:0x7544
    6628:	e8 e0 ff             	call   0x660b
    662b:	e8 50 ff             	call   0x657e
    662e:	74 e8                	je     0x6618
    6630:	c3                   	ret    
    6631:	89 1e 0d 75          	mov    WORD PTR ds:0x750d,bx
    6635:	e8 61 f8             	call   0x5e99
    6638:	8a 06 12 75          	mov    al,BYTE PTR ds:0x7512
    663c:	3c ff                	cmp    al,0xff
    663e:	75 06                	jne    0x6646
    6640:	b4 19                	mov    ah,0x19
    6642:	cd 21                	int    0x21
    6644:	fe c0                	inc    al
    6646:	88 06 5c 00          	mov    BYTE PTR ds:0x5c,al
    664a:	e8 01 00             	call   0x664e
    664d:	c3                   	ret    
    664e:	ba 2d 75             	mov    dx,0x752d
    6651:	e8 9f 00             	call   0x66f3
    6654:	ba 5c 00             	mov    dx,0x5c
    6657:	b4 11                	mov    ah,0x11
    6659:	cd 21                	int    0x21
    665b:	e8 32 fc             	call   0x6290
    665e:	3c ff                	cmp    al,0xff
    6660:	75 04                	jne    0x6666
    6662:	b0 01                	mov    al,0x1
    6664:	f9                   	stc    
    6665:	c3                   	ret    
    6666:	e8 4e f8             	call   0x5eb7
    6669:	74 01                	je     0x666c
    666b:	c3                   	ret    
    666c:	e8 47 00             	call   0x66b6
    666f:	72 01                	jb     0x6672
    6671:	c3                   	ret    
    6672:	e8 12 00             	call   0x6687
    6675:	ba 5c 00             	mov    dx,0x5c
    6678:	b4 12                	mov    ah,0x12
    667a:	cd 21                	int    0x21
    667c:	e8 11 fc             	call   0x6290
    667f:	3c ff                	cmp    al,0xff
    6681:	75 e3                	jne    0x6666
    6683:	b0 03                	mov    al,0x3
    6685:	f9                   	stc    
    6686:	c3                   	ret    
    6687:	3c 05                	cmp    al,0x5
    6689:	75 01                	jne    0x668c
    668b:	c3                   	ret    
    668c:	9f                   	lahf   
    668d:	86 e0                	xchg   al,ah
    668f:	50                   	push   ax
    6690:	86 e0                	xchg   al,ah
    6692:	51                   	push   cx
    6693:	e8 c6 fa             	call   0x615c
    6696:	59                   	pop    cx
    6697:	58                   	pop    ax
    6698:	86 e0                	xchg   al,ah
    669a:	9e                   	sahf   
    669b:	3c 03                	cmp    al,0x3
    669d:	75 05                	jne    0x66a4
    669f:	8a c5                	mov    al,ch
    66a1:	e9 0e 00             	jmp    0x66b2
    66a4:	3c 02                	cmp    al,0x2
    66a6:	75 05                	jne    0x66ad
    66a8:	b0 03                	mov    al,0x3
    66aa:	e9 05 00             	jmp    0x66b2
    66ad:	b0 00                	mov    al,0x0
    66af:	e9 00 00             	jmp    0x66b2
    66b2:	59                   	pop    cx
    66b3:	59                   	pop    cx
    66b4:	f9                   	stc    
    66b5:	c3                   	ret    
    66b6:	ba 2f 75             	mov    dx,0x752f
    66b9:	bb 81 00             	mov    bx,0x81
    66bc:	b5 08                	mov    ch,0x8
    66be:	e8 20 00             	call   0x66e1
    66c1:	b0 2e                	mov    al,0x2e
    66c3:	8b ea                	mov    bp,dx
    66c5:	88 46 00             	mov    BYTE PTR [bp+0x0],al
    66c8:	42                   	inc    dx
    66c9:	bb 89 00             	mov    bx,0x89
    66cc:	b5 03                	mov    ch,0x3
    66ce:	e8 10 00             	call   0x66e1
    66d1:	b0 0d                	mov    al,0xd
    66d3:	8b ea                	mov    bp,dx
    66d5:	88 46 00             	mov    BYTE PTR [bp+0x0],al
    66d8:	ba 2d 75             	mov    dx,0x752d
    66db:	8b 1e 0d 75          	mov    bx,WORD PTR ds:0x750d
    66df:	ff e3                	jmp    bx
    66e1:	8a 07                	mov    al,BYTE PTR [bx]
    66e3:	3c 20                	cmp    al,0x20
    66e5:	74 0b                	je     0x66f2
    66e7:	8b ea                	mov    bp,dx
    66e9:	88 46 00             	mov    BYTE PTR [bp+0x0],al
    66ec:	43                   	inc    bx
    66ed:	42                   	inc    dx
    66ee:	fe cd                	dec    ch
    66f0:	75 ef                	jne    0x66e1
    66f2:	c3                   	ret    
    66f3:	04 40                	add    al,0x40
    66f5:	8b ea                	mov    bp,dx
    66f7:	88 46 00             	mov    BYTE PTR [bp+0x0],al
    66fa:	42                   	inc    dx
    66fb:	b0 3a                	mov    al,0x3a
    66fd:	8b ea                	mov    bp,dx
    66ff:	88 46 00             	mov    BYTE PTR [bp+0x0],al
    6702:	c3                   	ret    
    6703:	b5 0f                	mov    ch,0xf
    6705:	ba 1e 75             	mov    dx,0x751e
    6708:	e8 8a 00             	call   0x6795
    670b:	e8 16 00             	call   0x6724
    670e:	73 01                	jae    0x6711
    6710:	c3                   	ret    
    6711:	e8 31 00             	call   0x6745
    6714:	73 01                	jae    0x6717
    6716:	c3                   	ret    
    6717:	e8 33 00             	call   0x674d
    671a:	73 01                	jae    0x671d
    671c:	c3                   	ret    
    671d:	3c 0d                	cmp    al,0xd
    671f:	74 02                	je     0x6723
    6721:	f9                   	stc    
    6722:	c3                   	ret    
    6723:	c3                   	ret    
    6724:	53                   	push   bx
    6725:	ba 1e 75             	mov    dx,0x751e
    6728:	b5 04                	mov    ch,0x4
    672a:	e8 3f 00             	call   0x676c
    672d:	73 02                	jae    0x6731
    672f:	5b                   	pop    bx
    6730:	c3                   	ret    
    6731:	3c 3a                	cmp    al,0x3a
    6733:	75 05                	jne    0x673a
    6735:	5a                   	pop    dx
    6736:	43                   	inc    bx
    6737:	e9 09 00             	jmp    0x6743
    673a:	b5 04                	mov    ch,0x4
    673c:	ba 1e 75             	mov    dx,0x751e
    673f:	e8 53 00             	call   0x6795
    6742:	5b                   	pop    bx
    6743:	f8                   	clc    
    6744:	c3                   	ret    
    6745:	ba 22 75             	mov    dx,0x7522
    6748:	b5 08                	mov    ch,0x8
    674a:	e9 1f 00             	jmp    0x676c
    674d:	3c 2e                	cmp    al,0x2e
    674f:	74 08                	je     0x6759
    6751:	80 0e 11 75 80       	or     BYTE PTR ds:0x7511,0x80
    6756:	e9 11 00             	jmp    0x676a
    6759:	43                   	inc    bx
    675a:	ba 2a 75             	mov    dx,0x752a
    675d:	b5 03                	mov    ch,0x3
    675f:	e8 0a 00             	call   0x676c
    6762:	73 01                	jae    0x6765
    6764:	c3                   	ret    
    6765:	80 26 11 75 7f       	and    BYTE PTR ds:0x7511,0x7f
    676a:	f8                   	clc    
    676b:	c3                   	ret    
    676c:	53                   	push   bx
    676d:	51                   	push   cx
    676e:	8a 07                	mov    al,BYTE PTR [bx]
    6770:	e8 2f 00             	call   0x67a2
    6773:	e8 49 00             	call   0x67bf
    6776:	75 04                	jne    0x677c
    6778:	59                   	pop    cx
    6779:	5b                   	pop    bx
    677a:	f8                   	clc    
    677b:	c3                   	ret    
    677c:	e8 52 00             	call   0x67d1
    677f:	73 03                	jae    0x6784
    6781:	59                   	pop    cx
    6782:	5b                   	pop    bx
    6783:	c3                   	ret    
    6784:	8b ea                	mov    bp,dx
    6786:	88 46 00             	mov    BYTE PTR [bp+0x0],al
    6789:	42                   	inc    dx
    678a:	59                   	pop    cx
    678b:	5b                   	pop    bx
    678c:	43                   	inc    bx
    678d:	fe cd                	dec    ch
    678f:	75 db                	jne    0x676c
    6791:	8a 07                	mov    al,BYTE PTR [bx]
    6793:	f8                   	clc    
    6794:	c3                   	ret    
    6795:	b0 20                	mov    al,0x20
    6797:	8b ea                	mov    bp,dx
    6799:	88 46 00             	mov    BYTE PTR [bp+0x0],al
    679c:	42                   	inc    dx
    679d:	fe cd                	dec    ch
    679f:	75 f6                	jne    0x6797
    67a1:	c3                   	ret    
    67a2:	3c 61                	cmp    al,0x61
    67a4:	72 06                	jb     0x67ac
    67a6:	3c 7a                	cmp    al,0x7a
    67a8:	77 02                	ja     0x67ac
    67aa:	2c 20                	sub    al,0x20
    67ac:	c3                   	ret    
    67ad:	b0 3f                	mov    al,0x3f
    67af:	8b ea                	mov    bp,dx
    67b1:	88 46 00             	mov    BYTE PTR [bp+0x0],al
    67b4:	42                   	inc    dx
    67b5:	fe cd                	dec    ch
    67b7:	75 f4                	jne    0x67ad
    67b9:	80 0e 18 75 80       	or     BYTE PTR ds:0x7518,0x80
    67be:	c3                   	ret    
    67bf:	bb cd 68             	mov    bx,0x68cd
    67c2:	b9 04 00             	mov    cx,0x4
    67c5:	3a 07                	cmp    al,BYTE PTR [bx]
    67c7:	9c                   	pushf  
    67c8:	43                   	inc    bx
    67c9:	9d                   	popf   
    67ca:	e0 f9                	loopne 0x67c5
    67cc:	c3                   	ret    
    67cd:	0d 2e 20             	or     ax,0x202e
    67d0:	3a bb e2 68          	cmp    bh,BYTE PTR [bp+di+0x68e2]
    67d4:	b9 40 00             	mov    cx,0x40
    67d7:	3a 07                	cmp    al,BYTE PTR [bx]
    67d9:	9c                   	pushf  
    67da:	43                   	inc    bx
    67db:	9d                   	popf   
    67dc:	e0 f9                	loopne 0x67d7
    67de:	74 01                	je     0x67e1
    67e0:	f9                   	stc    
    67e1:	c3                   	ret    
    67e2:	61                   	popa   
    67e3:	62 63 64             	bound  sp,DWORD PTR [bp+di+0x64]
    67e6:	65 66 67 68 69 6a 6b 	gs addr32 pushd 0x6c6b6a69
    67ed:	6c 
    67ee:	6d                   	ins    WORD PTR es:[di],dx
    67ef:	6e                   	outs   dx,BYTE PTR ds:[si]
    67f0:	6f                   	outs   dx,WORD PTR ds:[si]
    67f1:	70 71                	jo     0x6864
    67f3:	72 73                	jb     0x6868
    67f5:	74 75                	je     0x686c
    67f7:	76 77                	jbe    0x6870
    67f9:	78 79                	js     0x6874
    67fb:	7a 41                	jp     0x683e
    67fd:	42                   	inc    dx
    67fe:	43                   	inc    bx
    67ff:	44                   	inc    sp
    6800:	45                   	inc    bp
    6801:	46                   	inc    si
    6802:	47                   	inc    di
    6803:	48                   	dec    ax
    6804:	49                   	dec    cx
    6805:	4a                   	dec    dx
    6806:	4b                   	dec    bx
    6807:	4c                   	dec    sp
    6808:	4d                   	dec    bp
    6809:	4e                   	dec    si
    680a:	4f                   	dec    di
    680b:	50                   	push   ax
    680c:	51                   	push   cx
    680d:	52                   	push   dx
    680e:	53                   	push   bx
    680f:	54                   	push   sp
    6810:	55                   	push   bp
    6811:	56                   	push   si
    6812:	57                   	push   di
    6813:	58                   	pop    ax
    6814:	59                   	pop    cx
    6815:	5a                   	pop    dx
    6816:	30 31                	xor    BYTE PTR [bx+di],dh
    6818:	32 33                	xor    dh,BYTE PTR [bp+di]
    681a:	34 35                	xor    al,0x35
    681c:	36 37                	ss aaa 
    681e:	38 39                	cmp    BYTE PTR [bx+di],bh
    6820:	3f                   	aas    
    6821:	2a e8                	sub    ch,al
    6823:	0e                   	push   cs
    6824:	00 80 26 4d          	add    BYTE PTR [bx+si+0x4d26],al
    6828:	75 7f                	jne    0x68a9
    682a:	b0 02                	mov    al,0x2
    682c:	b4 00                	mov    ah,0x0
    682e:	cd 10                	int    0x10
    6830:	e9 4b 01             	jmp    0x697e
    6833:	cd 11                	int    0x11
    6835:	24 30                	and    al,0x30
    6837:	34 30                	xor    al,0x30
    6839:	75 0e                	jne    0x6849
    683b:	80 26 54 75 7f       	and    BYTE PTR ds:0x7554,0x7f
    6840:	c7 06 45 75 00 b0    	mov    WORD PTR ds:0x7545,0xb000
    6846:	e9 0b 00             	jmp    0x6854
    6849:	80 0e 54 75 80       	or     BYTE PTR ds:0x7554,0x80
    684e:	c7 06 45 75 00 b8    	mov    WORD PTR ds:0x7545,0xb800
    6854:	b7 19                	mov    bh,0x19
    6856:	b3 50                	mov    bl,0x50
    6858:	c3                   	ret    
    6859:	89 1e 49 75          	mov    WORD PTR ds:0x7549,bx
    685d:	b6 00                	mov    dh,0x0
    685f:	8a d7                	mov    dl,bh
    6861:	b1 06                	mov    cl,0x6
    6863:	d3 e2                	shl    dx,cl
    6865:	b4 00                	mov    ah,0x0
    6867:	8a c7                	mov    al,bh
    6869:	b1 04                	mov    cl,0x4
    686b:	d3 e0                	shl    ax,cl
    686d:	01 d0                	add    ax,dx
    686f:	d1 e0                	shl    ax,1
    6871:	b7 00                	mov    bh,0x0
    6873:	d0 e3                	shl    bl,1
    6875:	01 c3                	add    bx,ax
    6877:	89 1e 47 75          	mov    WORD PTR ds:0x7547,bx
    687b:	c3                   	ret    
    687c:	8b 1e 49 75          	mov    bx,WORD PTR ds:0x7549
    6880:	c3                   	ret    
    6881:	c3                   	ret    
    6882:	e8 17 00             	call   0x689c
    6885:	80 0e 4d 75 80       	or     BYTE PTR ds:0x754d,0x80
    688a:	56                   	push   si
    688b:	57                   	push   di
    688c:	8b 36 47 75          	mov    si,WORD PTR ds:0x7547
    6890:	8b fe                	mov    di,si
    6892:	89 36 4b 75          	mov    WORD PTR ds:0x754b,si
    6896:	e8 20 00             	call   0x68b9
    6899:	5f                   	pop    di
    689a:	5e                   	pop    si
    689b:	c3                   	ret    
    689c:	f6 06 4d 75 80       	test   BYTE PTR ds:0x754d,0x80
    68a1:	75 01                	jne    0x68a4
    68a3:	c3                   	ret    
    68a4:	80 26 4d 75 7f       	and    BYTE PTR ds:0x754d,0x7f
    68a9:	50                   	push   ax
    68aa:	56                   	push   si
    68ab:	57                   	push   di
    68ac:	8b 36 4b 75          	mov    si,WORD PTR ds:0x754b
    68b0:	8b fe                	mov    di,si
    68b2:	e8 04 00             	call   0x68b9
    68b5:	5f                   	pop    di
    68b6:	5e                   	pop    si
    68b7:	58                   	pop    ax
    68b8:	c3                   	ret    
    68b9:	06                   	push   es
    68ba:	8e 06 45 75          	mov    es,WORD PTR ds:0x7545
    68be:	1e                   	push   ds
    68bf:	8c c1                	mov    cx,es
    68c1:	f6 06 54 75 80       	test   BYTE PTR ds:0x7554,0x80
    68c6:	74 0e                	je     0x68d6
    68c8:	ba da 03             	mov    dx,0x3da
    68cb:	ec                   	in     al,dx
    68cc:	a8 01                	test   al,0x1
    68ce:	75 fb                	jne    0x68cb
    68d0:	fa                   	cli    
    68d1:	ec                   	in     al,dx
    68d2:	a8 01                	test   al,0x1
    68d4:	74 fb                	je     0x68d1
    68d6:	8e d9                	mov    ds,cx
    68d8:	ad                   	lods   ax,WORD PTR ds:[si]
    68d9:	fb                   	sti    
    68da:	1f                   	pop    ds
    68db:	80 fc 07             	cmp    ah,0x7
    68de:	75 05                	jne    0x68e5
    68e0:	b4 70                	mov    ah,0x70
    68e2:	e9 02 00             	jmp    0x68e7
    68e5:	b4 07                	mov    ah,0x7
    68e7:	8b c8                	mov    cx,ax
    68e9:	f6 06 54 75 80       	test   BYTE PTR ds:0x7554,0x80
    68ee:	74 0e                	je     0x68fe
    68f0:	ba da 03             	mov    dx,0x3da
    68f3:	ec                   	in     al,dx
    68f4:	a8 01                	test   al,0x1
    68f6:	75 fb                	jne    0x68f3
    68f8:	fa                   	cli    
    68f9:	ec                   	in     al,dx
    68fa:	a8 01                	test   al,0x1
    68fc:	74 fb                	je     0x68f9
    68fe:	8b c1                	mov    ax,cx
    6900:	ab                   	stos   WORD PTR es:[di],ax
    6901:	fb                   	sti    
    6902:	07                   	pop    es
    6903:	c3                   	ret    
    6904:	50                   	push   ax
    6905:	e8 51 ff             	call   0x6859
    6908:	58                   	pop    ax
    6909:	e8 90 ff             	call   0x689c
    690c:	06                   	push   es
    690d:	8e 06 45 75          	mov    es,WORD PTR ds:0x7545
    6911:	b4 07                	mov    ah,0x7
    6913:	e8 16 00             	call   0x692c
    6916:	07                   	pop    es
    6917:	c3                   	ret    
    6918:	50                   	push   ax
    6919:	e8 3d ff             	call   0x6859
    691c:	58                   	pop    ax
    691d:	e8 7c ff             	call   0x689c
    6920:	06                   	push   es
    6921:	8e 06 45 75          	mov    es,WORD PTR ds:0x7545
    6925:	b4 70                	mov    ah,0x70
    6927:	e8 02 00             	call   0x692c
    692a:	07                   	pop    es
    692b:	c3                   	ret    
    692c:	57                   	push   di
    692d:	8b 3e 47 75          	mov    di,WORD PTR ds:0x7547
    6931:	8b c8                	mov    cx,ax
    6933:	f6 06 54 75 80       	test   BYTE PTR ds:0x7554,0x80
    6938:	74 0e                	je     0x6948
    693a:	ba da 03             	mov    dx,0x3da
    693d:	ec                   	in     al,dx
    693e:	a8 01                	test   al,0x1
    6940:	75 fb                	jne    0x693d
    6942:	fa                   	cli    
    6943:	ec                   	in     al,dx
    6944:	a8 01                	test   al,0x1
    6946:	74 fb                	je     0x6943
    6948:	8b c1                	mov    ax,cx
    694a:	ab                   	stos   WORD PTR es:[di],ax
    694b:	fb                   	sti    
    694c:	ff 06 47 75          	inc    WORD PTR ds:0x7547
    6950:	ff 06 47 75          	inc    WORD PTR ds:0x7547
    6954:	ff 06 49 75          	inc    WORD PTR ds:0x7549
    6958:	5f                   	pop    di
    6959:	c3                   	ret    
    695a:	b4 07                	mov    ah,0x7
    695c:	e9 02 00             	jmp    0x6961
    695f:	b4 70                	mov    ah,0x70
    6961:	e8 38 ff             	call   0x689c
    6964:	3c 00                	cmp    al,0x0
    6966:	75 01                	jne    0x6969
    6968:	c3                   	ret    
    6969:	06                   	push   es
    696a:	8e 06 45 75          	mov    es,WORD PTR ds:0x7545
    696e:	8a e8                	mov    ch,al
    6970:	8a 07                	mov    al,BYTE PTR [bx]
    6972:	51                   	push   cx
    6973:	e8 b6 ff             	call   0x692c
    6976:	59                   	pop    cx
    6977:	43                   	inc    bx
    6978:	fe cd                	dec    ch
    697a:	75 f4                	jne    0x6970
    697c:	07                   	pop    es
    697d:	c3                   	ret    
    697e:	e8 1b ff             	call   0x689c
    6981:	b0 02                	mov    al,0x2
    6983:	b4 00                	mov    ah,0x0
    6985:	cd 10                	int    0x10
    6987:	b7 00                	mov    bh,0x0
    6989:	b6 1b                	mov    dh,0x1b
    698b:	b2 00                	mov    dl,0x0
    698d:	b4 02                	mov    ah,0x2
    698f:	cd 10                	int    0x10
    6991:	bb 00 00             	mov    bx,0x0
    6994:	e8 c2 fe             	call   0x6859
    6997:	c3                   	ret    
    6998:	e8 01 ff             	call   0x689c
    699b:	3c 00                	cmp    al,0x0
    699d:	75 01                	jne    0x69a0
    699f:	c3                   	ret    
    69a0:	8a e8                	mov    ch,al
    69a2:	b4 07                	mov    ah,0x7
    69a4:	b0 20                	mov    al,0x20
    69a6:	e9 11 00             	jmp    0x69ba
    69a9:	e8 f0 fe             	call   0x689c
    69ac:	3c 00                	cmp    al,0x0
    69ae:	75 01                	jne    0x69b1
    69b0:	c3                   	ret    
    69b1:	8a e8                	mov    ch,al
    69b3:	b4 70                	mov    ah,0x70
    69b5:	b0 20                	mov    al,0x20
    69b7:	e9 00 00             	jmp    0x69ba
    69ba:	8b 1e 49 75          	mov    bx,WORD PTR ds:0x7549
    69be:	53                   	push   bx
    69bf:	8b 1e 47 75          	mov    bx,WORD PTR ds:0x7547
    69c3:	53                   	push   bx
    69c4:	06                   	push   es
    69c5:	8e 06 45 75          	mov    es,WORD PTR ds:0x7545
    69c9:	50                   	push   ax
    69ca:	51                   	push   cx
    69cb:	e8 5e ff             	call   0x692c
    69ce:	59                   	pop    cx
    69cf:	58                   	pop    ax
    69d0:	fe cd                	dec    ch
    69d2:	75 f5                	jne    0x69c9
    69d4:	07                   	pop    es
    69d5:	5b                   	pop    bx
    69d6:	89 1e 47 75          	mov    WORD PTR ds:0x7547,bx
    69da:	5b                   	pop    bx
    69db:	89 1e 49 75          	mov    WORD PTR ds:0x7549,bx
    69df:	c3                   	ret    
    69e0:	e8 76 fe             	call   0x6859
    69e3:	8b 1e 49 75          	mov    bx,WORD PTR ds:0x7549
    69e7:	b0 50                	mov    al,0x50
    69e9:	28 d8                	sub    al,bl
    69eb:	e9 aa ff             	jmp    0x6998
    69ee:	80 fd 00             	cmp    ch,0x0
    69f1:	75 01                	jne    0x69f4
    69f3:	c3                   	ret    
    69f4:	80 f9 00             	cmp    cl,0x0
    69f7:	75 01                	jne    0x69fa
    69f9:	c3                   	ret    
    69fa:	e8 fc 00             	call   0x6af9
    69fd:	56                   	push   si
    69fe:	57                   	push   di
    69ff:	06                   	push   es
    6a00:	8e 06 45 75          	mov    es,WORD PTR ds:0x7545
    6a04:	38 fe                	cmp    dh,bh
    6a06:	76 09                	jbe    0x6a11
    6a08:	e8 b3 00             	call   0x6abe
    6a0b:	e8 72 00             	call   0x6a80
    6a0e:	e9 03 00             	jmp    0x6a14
    6a11:	e8 2e 00             	call   0x6a42
    6a14:	07                   	pop    es
    6a15:	5f                   	pop    di
    6a16:	5e                   	pop    si
    6a17:	c3                   	ret    
    6a18:	80 fd 00             	cmp    ch,0x0
    6a1b:	75 01                	jne    0x6a1e
    6a1d:	c3                   	ret    
    6a1e:	80 f9 00             	cmp    cl,0x0
    6a21:	75 01                	jne    0x6a24
    6a23:	c3                   	ret    
    6a24:	e8 d2 00             	call   0x6af9
    6a27:	56                   	push   si
    6a28:	57                   	push   di
    6a29:	06                   	push   es
    6a2a:	8e 06 45 75          	mov    es,WORD PTR ds:0x7545
    6a2e:	38 da                	cmp    dl,bl
    6a30:	76 09                	jbe    0x6a3b
    6a32:	e8 89 00             	call   0x6abe
    6a35:	e8 48 00             	call   0x6a80
    6a38:	e9 03 00             	jmp    0x6a3e
    6a3b:	e8 04 00             	call   0x6a42
    6a3e:	07                   	pop    es
    6a3f:	5f                   	pop    di
    6a40:	5e                   	pop    si
    6a41:	c3                   	ret    
    6a42:	f6 06 54 75 80       	test   BYTE PTR ds:0x7554,0x80
    6a47:	74 0e                	je     0x6a57
    6a49:	ba da 03             	mov    dx,0x3da
    6a4c:	ec                   	in     al,dx
    6a4d:	a8 08                	test   al,0x8
    6a4f:	75 fb                	jne    0x6a4c
    6a51:	b0 25                	mov    al,0x25
    6a53:	ba d8 03             	mov    dx,0x3d8
    6a56:	ee                   	out    dx,al
    6a57:	fc                   	cld    
    6a58:	89 0e 4e 75          	mov    WORD PTR ds:0x754e,cx
    6a5c:	e8 7d 00             	call   0x6adc
    6a5f:	e8 71 00             	call   0x6ad3
    6a62:	fe 06 53 75          	inc    BYTE PTR ds:0x7553
    6a66:	fe 06 51 75          	inc    BYTE PTR ds:0x7551
    6a6a:	8b 0e 4e 75          	mov    cx,WORD PTR ds:0x754e
    6a6e:	fe cd                	dec    ch
    6a70:	75 e6                	jne    0x6a58
    6a72:	f6 06 54 75 80       	test   BYTE PTR ds:0x7554,0x80
    6a77:	74 06                	je     0x6a7f
    6a79:	b0 29                	mov    al,0x29
    6a7b:	ba d8 03             	mov    dx,0x3d8
    6a7e:	ee                   	out    dx,al
    6a7f:	c3                   	ret    
    6a80:	f6 06 54 75 80       	test   BYTE PTR ds:0x7554,0x80
    6a85:	74 0e                	je     0x6a95
    6a87:	ba da 03             	mov    dx,0x3da
    6a8a:	ec                   	in     al,dx
    6a8b:	a8 08                	test   al,0x8
    6a8d:	75 fb                	jne    0x6a8a
    6a8f:	b0 25                	mov    al,0x25
    6a91:	ba d8 03             	mov    dx,0x3d8
    6a94:	ee                   	out    dx,al
    6a95:	fd                   	std    
    6a96:	89 0e 4e 75          	mov    WORD PTR ds:0x754e,cx
    6a9a:	e8 3f 00             	call   0x6adc
    6a9d:	e8 33 00             	call   0x6ad3
    6aa0:	fe 0e 53 75          	dec    BYTE PTR ds:0x7553
    6aa4:	fe 0e 51 75          	dec    BYTE PTR ds:0x7551
    6aa8:	8b 0e 4e 75          	mov    cx,WORD PTR ds:0x754e
    6aac:	fe cd                	dec    ch
    6aae:	75 e6                	jne    0x6a96
    6ab0:	f6 06 54 75 80       	test   BYTE PTR ds:0x7554,0x80
    6ab5:	74 06                	je     0x6abd
    6ab7:	b0 29                	mov    al,0x29
    6ab9:	ba d8 03             	mov    dx,0x3d8
    6abc:	ee                   	out    dx,al
    6abd:	c3                   	ret    
    6abe:	01 cb                	add    bx,cx
    6ac0:	fe cf                	dec    bh
    6ac2:	fe cb                	dec    bl
    6ac4:	89 1e 50 75          	mov    WORD PTR ds:0x7550,bx
    6ac8:	01 ca                	add    dx,cx
    6aca:	fe ce                	dec    dh
    6acc:	fe ca                	dec    dl
    6ace:	89 16 52 75          	mov    WORD PTR ds:0x7552,dx
    6ad2:	c3                   	ret    
    6ad3:	1e                   	push   ds
    6ad4:	8e 1e 45 75          	mov    ds,WORD PTR ds:0x7545
    6ad8:	f3 a5                	rep movs WORD PTR es:[di],WORD PTR ds:[si]
    6ada:	1f                   	pop    ds
    6adb:	c3                   	ret    
    6adc:	8b 1e 50 75          	mov    bx,WORD PTR ds:0x7550
    6ae0:	e8 76 fd             	call   0x6859
    6ae3:	8b 36 47 75          	mov    si,WORD PTR ds:0x7547
    6ae7:	8b 1e 52 75          	mov    bx,WORD PTR ds:0x7552
    6aeb:	e8 6b fd             	call   0x6859
    6aee:	8b 3e 47 75          	mov    di,WORD PTR ds:0x7547
    6af2:	8b 0e 4e 75          	mov    cx,WORD PTR ds:0x754e
    6af6:	b5 00                	mov    ch,0x0
    6af8:	c3                   	ret    
    6af9:	89 0e 4e 75          	mov    WORD PTR ds:0x754e,cx
    6afd:	89 1e 50 75          	mov    WORD PTR ds:0x7550,bx
    6b01:	89 16 52 75          	mov    WORD PTR ds:0x7552,dx
    6b05:	c3                   	ret    
    6b06:	c7 06 55 75 00 05    	mov    WORD PTR ds:0x7555,0x500
    6b0c:	e9 06 00             	jmp    0x6b15
    6b0f:	c7 06 55 75 00 12    	mov    WORD PTR ds:0x7555,0x1200
    6b15:	fa                   	cli    
    6b16:	b0 b6                	mov    al,0xb6
    6b18:	e6 43                	out    0x43,al
    6b1a:	8b 06 55 75          	mov    ax,WORD PTR ds:0x7555
    6b1e:	e6 42                	out    0x42,al
    6b20:	8a c4                	mov    al,ah
    6b22:	e6 42                	out    0x42,al
    6b24:	e4 61                	in     al,0x61
    6b26:	8a e0                	mov    ah,al
    6b28:	0c 03                	or     al,0x3
    6b2a:	e6 61                	out    0x61,al
    6b2c:	fb                   	sti    
    6b2d:	b3 07                	mov    bl,0x7
    6b2f:	b9 00 10             	mov    cx,0x1000
    6b32:	e2 fe                	loop   0x6b32
    6b34:	fe cb                	dec    bl
    6b36:	75 f7                	jne    0x6b2f
    6b38:	8a c4                	mov    al,ah
    6b3a:	e6 61                	out    0x61,al
    6b3c:	c3                   	ret    
    6b3d:	8b 1e 02 00          	mov    bx,WORD PTR ds:0x2
    6b41:	4b                   	dec    bx
    6b42:	89 1e 57 75          	mov    WORD PTR ds:0x7557,bx
    6b46:	c3                   	ret    
    6b47:	e8 0c 00             	call   0x6b56
    6b4a:	ba 00 00             	mov    dx,0x0
    6b4d:	b4 02                	mov    ah,0x2
    6b4f:	b7 00                	mov    bh,0x0
    6b51:	cd 10                	int    0x10
    6b53:	cd 20                	int    0x20
    6b55:	c3                   	ret    
    6b56:	b9 47 6b             	mov    cx,0x6b47
    6b59:	d1 e9                	shr    cx,1
    6b5b:	8b f1                	mov    si,cx
    6b5d:	bf 00 01             	mov    di,0x100
    6b60:	fc                   	cld    
    6b61:	f3 a4                	rep movs BYTE PTR es:[di],BYTE PTR ds:[si]
    6b63:	c3                   	ret    
	...
