
VC.com:     file format binary


Disassembly of section .data:

00000000 <.data>:
       0:	e9 09 00             	jmp    0xc
       3:	23 30                	and    si,WORD PTR [bx+si]
       5:	30 30                	xor    BYTE PTR [bx+si],dh
       7:	30 30                	xor    BYTE PTR [bx+si],dh
       9:	30 30                	xor    BYTE PTR [bx+si],dh
       b:	80 8c c8 8e d8       	or     BYTE PTR [si-0x7138],0xd8
      10:	8e d0                	mov    ss,ax
      12:	8e c0                	mov    es,ax
      14:	8c 06 90 72          	mov    WORD PTR ds:0x7290,es
      18:	e8 22 6b             	call   0x6b3d
      1b:	bc 9c 73             	mov    sp,0x739c
      1e:	89 26 8e 72          	mov    WORD PTR ds:0x728e,sp
      22:	e8 fd 67             	call   0x6822
      25:	e8 7f 00             	call   0xa7
      28:	e8 c6 00             	call   0xf1
      2b:	e8 e3 5f             	call   0x6011
      2e:	8b 26 8e 72          	mov    sp,WORD PTR ds:0x728e
      32:	e8 88 00             	call   0xbd
      35:	e8 6f 00             	call   0xa7
      38:	e8 43 69             	call   0x697e
      3b:	e8 aa 46             	call   0x46e8
      3e:	8b 1e 57 75          	mov    bx,WORD PTR ds:0x7557
      42:	d1 e3                	shl    bx,1
      44:	89 5d 8f             	mov    WORD PTR [di-0x71],bx
      47:	bb 5c 75             	mov    bx,0x755c
      4a:	83 c3 0f             	add    bx,0xf
      4d:	b1 04                	mov    cl,0x4
      4f:	d3 eb                	shr    bx,cl
      51:	8c da                	mov    dx,ds
      53:	01 d3                	add    bx,dx
      55:	d1 e3                	shl    bx,1
      57:	89 5d 91             	mov    WORD PTR [di-0x6f],bx
      5a:	e8 c6 43             	call   0x4423
      5d:	b5 01                	mov    ch,0x1
      5f:	b1 01                	mov    cl,0x1
      61:	e8 62 42             	call   0x42c6
      64:	89 5d ae             	mov    WORD PTR [di-0x52],bx
      67:	e8 b5 3e             	call   0x3f1f
      6a:	73 06                	jae    0x72
      6c:	e8 d1 56             	call   0x5740
      6f:	e9 fa ff             	jmp    0x6c
      72:	e8 95 42             	call   0x430a
      75:	8b 5d 84             	mov    bx,WORD PTR [di-0x7c]
      78:	c6 07 00             	mov    BYTE PTR [bx],0x0
      7b:	43                   	inc    bx
      7c:	c6 07 00             	mov    BYTE PTR [bx],0x0
      7f:	b0 09                	mov    al,0x9
      81:	e8 08 5a             	call   0x5a8c
      84:	b0 43                	mov    al,0x43
      86:	88 45 a0             	mov    BYTE PTR [di-0x60],al
      89:	b0 01                	mov    al,0x1
      8b:	88 44 2e             	mov    BYTE PTR [si+0x2e],al
      8e:	88 44 2f             	mov    BYTE PTR [si+0x2f],al
      91:	e8 13 00             	call   0xa7
      94:	e8 03 00             	call   0x9a
      97:	e9 44 1e             	jmp    0x1ede
      9a:	e8 54 00             	call   0xf1
      9d:	bb 70 71             	mov    bx,0x7170
      a0:	89 1e 6e 71          	mov    WORD PTR ds:0x716e,bx
      a4:	e9 b0 28             	jmp    0x2957
      a7:	be 0d 6d             	mov    si,0x6d0d
      aa:	bf e5 6c             	mov    di,0x6ce5
      ad:	c6 44 2a ff          	mov    BYTE PTR [si+0x2a],0xff
      b1:	c6 44 2b 40          	mov    BYTE PTR [si+0x2b],0x40
      b5:	c6 04 00             	mov    BYTE PTR [si],0x0
      b8:	c6 44 01 80          	mov    BYTE PTR [si+0x1],0x80
      bc:	c3                   	ret    
      bd:	b0 00                	mov    al,0x0
      bf:	bb 65 6c             	mov    bx,0x6c65
      c2:	ba a9 00             	mov    dx,0xa9
      c5:	e8 1f 00             	call   0xe7
      c8:	bb 0d 6d             	mov    bx,0x6d0d
      cb:	ba 47 00             	mov    dx,0x47
      ce:	e8 16 00             	call   0xe7
      d1:	bb 53 6d             	mov    bx,0x6d53
      d4:	ba b1 04             	mov    dx,0x4b1
      d7:	e8 0d 00             	call   0xe7
      da:	8b 1e 57 75          	mov    bx,WORD PTR ds:0x7557
      de:	ba 5c 75             	mov    dx,0x755c
      e1:	08 c0                	or     al,al
      e3:	19 d3                	sbb    bx,dx
      e5:	87 d3                	xchg   bx,dx
      e7:	88 07                	mov    BYTE PTR [bx],al
      e9:	43                   	inc    bx
      ea:	4a                   	dec    dx
      eb:	f6 c6 80             	test   dh,0x80
      ee:	74 f7                	je     0xe7
      f0:	c3                   	ret    
      f1:	b0 00                	mov    al,0x0
      f3:	88 06 9c 73          	mov    BYTE PTR ds:0x739c,al
      f7:	88 06 9d 73          	mov    BYTE PTR ds:0x739d,al
      fb:	88 06 86 74          	mov    BYTE PTR ds:0x7486,al
      ff:	e8 7e 5d             	call   0x5e80
     102:	e9 02 02             	jmp    0x307
     105:	e8 91 5d             	call   0x5e99
     108:	b0 00                	mov    al,0x0
     10a:	88 06 9d 73          	mov    BYTE PTR ds:0x739d,al
     10e:	c3                   	ret    
     10f:	89 1e a4 73          	mov    WORD PTR ds:0x73a4,bx
     113:	b0 ff                	mov    al,0xff
     115:	88 06 a3 73          	mov    BYTE PTR ds:0x73a3,al
     119:	c3                   	ret    
     11a:	9f                   	lahf   
     11b:	86 e0                	xchg   al,ah
     11d:	50                   	push   ax
     11e:	86 e0                	xchg   al,ah
     120:	e8 b2 5d             	call   0x5ed5
     123:	75 05                	jne    0x12a
     125:	58                   	pop    ax
     126:	86 e0                	xchg   al,ah
     128:	9e                   	sahf   
     129:	c3                   	ret    
     12a:	53                   	push   bx
     12b:	52                   	push   dx
     12c:	51                   	push   cx
     12d:	56                   	push   si
     12e:	57                   	push   di
     12f:	e8 b5 5d             	call   0x5ee7
     132:	e8 82 5d             	call   0x5eb7
     135:	74 03                	je     0x13a
     137:	e8 b4 01             	call   0x2ee
     13a:	5f                   	pop    di
     13b:	5e                   	pop    si
     13c:	59                   	pop    cx
     13d:	5a                   	pop    dx
     13e:	5b                   	pop    bx
     13f:	58                   	pop    ax
     140:	86 e0                	xchg   al,ah
     142:	9e                   	sahf   
     143:	c3                   	ret    
     144:	e8 03 00             	call   0x14a
     147:	e9 14 00             	jmp    0x15e
     14a:	9f                   	lahf   
     14b:	86 e0                	xchg   al,ah
     14d:	50                   	push   ax
     14e:	86 e0                	xchg   al,ah
     150:	b0 00                	mov    al,0x0
     152:	88 06 9e 73          	mov    BYTE PTR ds:0x739e,al
     156:	58                   	pop    ax
     157:	86 e0                	xchg   al,ah
     159:	9e                   	sahf   
     15a:	c3                   	ret    
     15b:	e8 a9 01             	call   0x307
     15e:	53                   	push   bx
     15f:	51                   	push   cx
     160:	e8 06 00             	call   0x169
     163:	59                   	pop    cx
     164:	5b                   	pop    bx
     165:	8a 45 a9             	mov    al,BYTE PTR [di-0x57]
     168:	c3                   	ret    
     169:	e8 ae ff             	call   0x11a
     16c:	8a 06 9d 73          	mov    al,BYTE PTR ds:0x739d
     170:	08 c0                	or     al,al
     172:	74 08                	je     0x17c
     174:	e8 77 01             	call   0x2ee
     177:	b0 1b                	mov    al,0x1b
     179:	e9 a7 00             	jmp    0x223
     17c:	8a 06 9e 73          	mov    al,BYTE PTR ds:0x739e
     180:	08 c0                	or     al,al
     182:	74 04                	je     0x188
     184:	8a 45 a9             	mov    al,BYTE PTR [di-0x57]
     187:	c3                   	ret    
     188:	8a 06 a0 73          	mov    al,BYTE PTR ds:0x73a0
     18c:	88 06 a1 73          	mov    BYTE PTR ds:0x73a1,al
     190:	08 c0                	or     al,al
     192:	74 33                	je     0x1c7
     194:	8a 06 86 74          	mov    al,BYTE PTR ds:0x7486
     198:	8a e8                	mov    ch,al
     19a:	8a 06 84 71          	mov    al,BYTE PTR ds:0x7184
     19e:	38 e8                	cmp    al,ch
     1a0:	72 0b                	jb     0x1ad
     1a2:	b0 00                	mov    al,0x0
     1a4:	88 06 a0 73          	mov    BYTE PTR ds:0x73a0,al
     1a8:	b0 0d                	mov    al,0xd
     1aa:	e9 17 00             	jmp    0x1c4
     1ad:	8a 06 84 71          	mov    al,BYTE PTR ds:0x7184
     1b1:	8a c8                	mov    cl,al
     1b3:	b5 00                	mov    ch,0x0
     1b5:	bb 85 71             	mov    bx,0x7185
     1b8:	01 cb                	add    bx,cx
     1ba:	fe c1                	inc    cl
     1bc:	8a c1                	mov    al,cl
     1be:	88 06 84 71          	mov    BYTE PTR ds:0x7184,al
     1c2:	8a 07                	mov    al,BYTE PTR [bx]
     1c4:	e9 5c 00             	jmp    0x223
     1c7:	8a 06 9c 73          	mov    al,BYTE PTR ds:0x739c
     1cb:	08 c0                	or     al,al
     1cd:	74 03                	je     0x1d2
     1cf:	e9 e4 00             	jmp    0x2b6
     1d2:	f6 45 b8 80          	test   BYTE PTR [di-0x48],0x80
     1d6:	74 03                	je     0x1db
     1d8:	e8 85 15             	call   0x1760
     1db:	bb a6 73             	mov    bx,0x73a6
     1de:	80 27 7f             	and    BYTE PTR [bx],0x7f
     1e1:	e8 d3 5c             	call   0x5eb7
     1e4:	74 08                	je     0x1ee
     1e6:	e8 05 01             	call   0x2ee
     1e9:	b0 1b                	mov    al,0x1b
     1eb:	e9 35 00             	jmp    0x223
     1ee:	e8 78 5d             	call   0x5f69
     1f1:	73 17                	jae    0x20a
     1f3:	8a 06 a2 73          	mov    al,BYTE PTR ds:0x73a2
     1f7:	08 c0                	or     al,al
     1f9:	78 0c                	js     0x207
     1fb:	e8 51 01             	call   0x34f
     1fe:	e8 18 02             	call   0x419
     201:	bb a2 73             	mov    bx,0x73a2
     204:	80 0f 80             	or     BYTE PTR [bx],0x80
     207:	e9 d7 ff             	jmp    0x1e1
     20a:	88 06 9f 73          	mov    BYTE PTR ds:0x739f,al
     20e:	8a c5                	mov    al,ch
     210:	bb a2 73             	mov    bx,0x73a2
     213:	80 27 7f             	and    BYTE PTR [bx],0x7f
     216:	9f                   	lahf   
     217:	86 e0                	xchg   al,ah
     219:	50                   	push   ax
     21a:	86 e0                	xchg   al,ah
     21c:	e8 7d 66             	call   0x689c
     21f:	58                   	pop    ax
     220:	86 e0                	xchg   al,ah
     222:	9e                   	sahf   
     223:	e8 15 00             	call   0x23b
     226:	8a 06 a3 73          	mov    al,BYTE PTR ds:0x73a3
     22a:	08 c0                	or     al,al
     22c:	74 06                	je     0x234
     22e:	8a 45 a9             	mov    al,BYTE PTR [di-0x57]
     231:	e8 01 00             	call   0x235
     234:	c3                   	ret    
     235:	8b 1e a4 73          	mov    bx,WORD PTR ds:0x73a4
     239:	ff e3                	jmp    bx
     23b:	8a e8                	mov    ch,al
     23d:	b0 80                	mov    al,0x80
     23f:	88 06 9e 73          	mov    BYTE PTR ds:0x739e,al
     243:	8a c5                	mov    al,ch
     245:	b1 ff                	mov    cl,0xff
     247:	24 7f                	and    al,0x7f
     249:	9f                   	lahf   
     24a:	86 e0                	xchg   al,ah
     24c:	50                   	push   ax
     24d:	86 e0                	xchg   al,ah
     24f:	8a 06 9f 73          	mov    al,BYTE PTR ds:0x739f
     253:	08 c0                	or     al,al
     255:	74 0a                	je     0x261
     257:	58                   	pop    ax
     258:	86 e0                	xchg   al,ah
     25a:	9e                   	sahf   
     25b:	e9 24 00             	jmp    0x282
     25e:	e9 04 00             	jmp    0x265
     261:	58                   	pop    ax
     262:	86 e0                	xchg   al,ah
     264:	9e                   	sahf   
     265:	3c 08                	cmp    al,0x8
     267:	75 02                	jne    0x26b
     269:	b0 1b                	mov    al,0x1b
     26b:	3c 41                	cmp    al,0x41
     26d:	72 06                	jb     0x275
     26f:	3c 5a                	cmp    al,0x5a
     271:	77 02                	ja     0x275
     273:	b1 01                	mov    cl,0x1
     275:	3c 30                	cmp    al,0x30
     277:	72 06                	jb     0x27f
     279:	3c 39                	cmp    al,0x39
     27b:	77 02                	ja     0x27f
     27d:	b1 02                	mov    cl,0x2
     27f:	e9 14 00             	jmp    0x296
     282:	51                   	push   cx
     283:	bb b1 03             	mov    bx,0x3b1
     286:	b5 00                	mov    ch,0x0
     288:	b1 05                	mov    cl,0x5
     28a:	3a 07                	cmp    al,BYTE PTR [bx]
     28c:	9c                   	pushf  
     28d:	43                   	inc    bx
     28e:	9d                   	popf   
     28f:	e0 f9                	loopne 0x28a
     291:	59                   	pop    cx
     292:	75 02                	jne    0x296
     294:	b1 00                	mov    cl,0x0
     296:	88 45 a8             	mov    BYTE PTR [di-0x58],al
     299:	88 45 a9             	mov    BYTE PTR [di-0x57],al
     29c:	3c 61                	cmp    al,0x61
     29e:	72 0b                	jb     0x2ab
     2a0:	3c 7a                	cmp    al,0x7a
     2a2:	77 07                	ja     0x2ab
     2a4:	b1 01                	mov    cl,0x1
     2a6:	2c 20                	sub    al,0x20
     2a8:	88 45 a9             	mov    BYTE PTR [di-0x57],al
     2ab:	8a c1                	mov    al,cl
     2ad:	88 45 aa             	mov    BYTE PTR [di-0x56],al
     2b0:	c3                   	ret    
     2b1:	02 01                	add    al,BYTE PTR [bx+di]
     2b3:	03 04                	add    ax,WORD PTR [si]
     2b5:	06                   	push   es
     2b6:	e8 fe 5b             	call   0x5eb7
     2b9:	75 29                	jne    0x2e4
     2bb:	b0 00                	mov    al,0x0
     2bd:	88 45 a7             	mov    BYTE PTR [di-0x59],al
     2c0:	88 06 9f 73          	mov    BYTE PTR ds:0x739f,al
     2c4:	e8 57 5f             	call   0x621e
     2c7:	72 09                	jb     0x2d2
     2c9:	24 7f                	and    al,0x7f
     2cb:	74 03                	je     0x2d0
     2cd:	e9 53 ff             	jmp    0x223
     2d0:	b0 03                	mov    al,0x3
     2d2:	3c 03                	cmp    al,0x3
     2d4:	75 02                	jne    0x2d8
     2d6:	b0 00                	mov    al,0x0
     2d8:	88 45 a7             	mov    BYTE PTR [di-0x59],al
     2db:	e8 ca 5b             	call   0x5ea8
     2de:	bb 9d 73             	mov    bx,0x739d
     2e1:	80 0f 80             	or     BYTE PTR [bx],0x80
     2e4:	e9 74 fe             	jmp    0x15b
     2e7:	b0 00                	mov    al,0x0
     2e9:	88 06 9e 73          	mov    BYTE PTR ds:0x739e,al
     2ed:	c3                   	ret    
     2ee:	8a 06 9d 73          	mov    al,BYTE PTR ds:0x739d
     2f2:	08 c0                	or     al,al
     2f4:	74 01                	je     0x2f7
     2f6:	c3                   	ret    
     2f7:	e8 0a 00             	call   0x304
     2fa:	e8 ab 5b             	call   0x5ea8
     2fd:	bb 9d 73             	mov    bx,0x739d
     300:	80 0f 80             	or     BYTE PTR [bx],0x80
     303:	c3                   	ret    
     304:	e8 ff 67             	call   0x6b06
     307:	e8 a7 01             	call   0x4b1
     30a:	b0 00                	mov    al,0x0
     30c:	88 45 a2             	mov    BYTE PTR [di-0x5e],al
     30f:	88 06 a3 73          	mov    BYTE PTR ds:0x73a3,al
     313:	88 06 a2 73          	mov    BYTE PTR ds:0x73a2,al
     317:	88 06 9e 73          	mov    BYTE PTR ds:0x739e,al
     31b:	e8 c9 5c             	call   0x5fe7
     31e:	8a 06 9c 73          	mov    al,BYTE PTR ds:0x739c
     322:	08 c0                	or     al,al
     324:	74 19                	je     0x33f
     326:	b0 00                	mov    al,0x0
     328:	88 06 9c 73          	mov    BYTE PTR ds:0x739c,al
     32c:	e8 2d 5e             	call   0x615c
     32f:	73 0e                	jae    0x33f
     331:	8a e8                	mov    ch,al
     333:	8a 45 a7             	mov    al,BYTE PTR [di-0x59]
     336:	08 c0                	or     al,al
     338:	75 05                	jne    0x33f
     33a:	8a c5                	mov    al,ch
     33c:	88 45 a7             	mov    BYTE PTR [di-0x59],al
     33f:	c3                   	ret    
     340:	80 4d a2 80          	or     BYTE PTR [di-0x5e],0x80
     344:	80 4d a3 80          	or     BYTE PTR [di-0x5d],0x80
     348:	bb 9c 73             	mov    bx,0x739c
     34b:	80 0f 80             	or     BYTE PTR [bx],0x80
     34e:	c3                   	ret    
     34f:	e8 4a 65             	call   0x689c
     352:	bb 00 02             	mov    bx,0x200
     355:	e8 01 65             	call   0x6859
     358:	8b 5d b4             	mov    bx,WORD PTR [di-0x4c]
     35b:	89 1e a8 73          	mov    WORD PTR ds:0x73a8,bx
     35f:	8a 45 b6             	mov    al,BYTE PTR [di-0x4a]
     362:	8a e8                	mov    ch,al
     364:	b0 7d                	mov    al,0x7d
     366:	28 e8                	sub    al,ch
     368:	88 06 ae 73          	mov    BYTE PTR ds:0x73ae,al
     36c:	3c 4f                	cmp    al,0x4f
     36e:	bb 87 6d             	mov    bx,0x6d87
     371:	73 07                	jae    0x37a
     373:	89 1e aa 73          	mov    WORD PTR ds:0x73aa,bx
     377:	e9 29 00             	jmp    0x3a3
     37a:	8a 45 ba             	mov    al,BYTE PTR [di-0x46]
     37d:	08 c0                	or     al,al
     37f:	78 0c                	js     0x38d
     381:	74 0a                	je     0x38d
     383:	8a d0                	mov    dl,al
     385:	b6 00                	mov    dh,0x0
     387:	01 d3                	add    bx,dx
     389:	89 1e a8 73          	mov    WORD PTR ds:0x73a8,bx
     38d:	b5 00                	mov    ch,0x0
     38f:	b1 4f                	mov    cl,0x4f
     391:	8b 1e a8 73          	mov    bx,WORD PTR ds:0x73a8
     395:	08 c0                	or     al,al
     397:	19 cb                	sbb    bx,cx
     399:	89 1e aa 73          	mov    WORD PTR ds:0x73aa,bx
     39d:	b0 4f                	mov    al,0x4f
     39f:	88 06 ae 73          	mov    BYTE PTR ds:0x73ae,al
     3a3:	8b 1e ac 73          	mov    bx,WORD PTR ds:0x73ac
     3a7:	8a c7                	mov    al,bh
     3a9:	3c ff                	cmp    al,0xff
     3ab:	75 0e                	jne    0x3bb
     3ad:	8b 1e aa 73          	mov    bx,WORD PTR ds:0x73aa
     3b1:	8a 06 ae 73          	mov    al,BYTE PTR ds:0x73ae
     3b5:	e8 a2 65             	call   0x695a
     3b8:	e9 29 00             	jmp    0x3e4
     3bb:	8b 1e ac 73          	mov    bx,WORD PTR ds:0x73ac
     3bf:	8b 0e aa 73          	mov    cx,WORD PTR ds:0x73aa
     3c3:	08 c0                	or     al,al
     3c5:	19 cb                	sbb    bx,cx
     3c7:	53                   	push   bx
     3c8:	8a c3                	mov    al,bl
     3ca:	8b 1e aa 73          	mov    bx,WORD PTR ds:0x73aa
     3ce:	e8 89 65             	call   0x695a
     3d1:	8a 06 ae 73          	mov    al,BYTE PTR ds:0x73ae
     3d5:	59                   	pop    cx
     3d6:	28 c8                	sub    al,cl
     3d8:	88 06 ae 73          	mov    BYTE PTR ds:0x73ae,al
     3dc:	8b 1e ac 73          	mov    bx,WORD PTR ds:0x73ac
     3e0:	e8 7c 65             	call   0x695f
     3e3:	c3                   	ret    
     3e4:	e8 95 64             	call   0x687c
     3e7:	53                   	push   bx
     3e8:	8a 06 86 74          	mov    al,BYTE PTR ds:0x7486
     3ec:	08 c0                	or     al,al
     3ee:	78 19                	js     0x409
     3f0:	74 17                	je     0x409
     3f2:	8a e8                	mov    ch,al
     3f4:	b0 50                	mov    al,0x50
     3f6:	28 d8                	sub    al,bl
     3f8:	38 e8                	cmp    al,ch
     3fa:	76 04                	jbe    0x400
     3fc:	8a 06 86 74          	mov    al,BYTE PTR ds:0x7486
     400:	bb 85 71             	mov    bx,0x7185
     403:	e8 54 65             	call   0x695a
     406:	e8 73 64             	call   0x687c
     409:	8a c7                	mov    al,bh
     40b:	3c 02                	cmp    al,0x2
     40d:	75 03                	jne    0x412
     40f:	e8 d1 65             	call   0x69e3
     412:	5b                   	pop    bx
     413:	e8 43 64             	call   0x6859
     416:	e9 68 64             	jmp    0x6881
     419:	8a 45 ab             	mov    al,BYTE PTR [di-0x55]
     41c:	08 c0                	or     al,al
     41e:	78 10                	js     0x430
     420:	8a 06 86 74          	mov    al,BYTE PTR ds:0x7486
     424:	08 c0                	or     al,al
     426:	78 05                	js     0x42d
     428:	74 03                	je     0x42d
     42a:	e8 55 64             	call   0x6882
     42d:	e9 03 00             	jmp    0x433
     430:	e8 4f 64             	call   0x6882
     433:	f8                   	clc    
     434:	c3                   	ret    
     435:	8a 45 ba             	mov    al,BYTE PTR [di-0x46]
     438:	08 c0                	or     al,al
     43a:	78 10                	js     0x44c
     43c:	74 0e                	je     0x44c
     43e:	8a d8                	mov    bl,al
     440:	b7 00                	mov    bh,0x0
     442:	ba 87 6d             	mov    dx,0x6d87
     445:	01 d3                	add    bx,dx
     447:	89 1e ac 73          	mov    WORD PTR ds:0x73ac,bx
     44b:	c3                   	ret    
     44c:	8a 45 b6             	mov    al,BYTE PTR [di-0x4a]
     44f:	3c 7d                	cmp    al,0x7d
     451:	74 08                	je     0x45b
     453:	8b 5d b4             	mov    bx,WORD PTR [di-0x4c]
     456:	89 1e ac 73          	mov    WORD PTR ds:0x73ac,bx
     45a:	c3                   	ret    
     45b:	bb ff ff             	mov    bx,0xffff
     45e:	89 1e ac 73          	mov    WORD PTR ds:0x73ac,bx
     462:	c3                   	ret    
     463:	bb 88 6d             	mov    bx,0x6d88
     466:	ba 87 6d             	mov    dx,0x6d87
     469:	b9 7c 00             	mov    cx,0x7c
     46c:	9c                   	pushf  
     46d:	87 f3                	xchg   bx,si
     46f:	87 fa                	xchg   dx,di
     471:	fc                   	cld    
     472:	f3 a4                	rep movs BYTE PTR es:[di],BYTE PTR ds:[si]
     474:	87 f3                	xchg   bx,si
     476:	87 fa                	xchg   dx,di
     478:	9d                   	popf   
     479:	fe 45 b6             	inc    BYTE PTR [di-0x4a]
     47c:	8a 45 ba             	mov    al,BYTE PTR [di-0x46]
     47f:	3c ff                	cmp    al,0xff
     481:	74 06                	je     0x489
     483:	fe 4d ba             	dec    BYTE PTR [di-0x46]
     486:	e9 05 00             	jmp    0x48e
     489:	b0 7c                	mov    al,0x7c
     48b:	88 45 ba             	mov    BYTE PTR [di-0x46],al
     48e:	8b 1e ac 73          	mov    bx,WORD PTR ds:0x73ac
     492:	8a c7                	mov    al,bh
     494:	3c ff                	cmp    al,0xff
     496:	74 05                	je     0x49d
     498:	4b                   	dec    bx
     499:	89 1e ac 73          	mov    WORD PTR ds:0x73ac,bx
     49d:	c3                   	ret    
     49e:	bb a0 73             	mov    bx,0x73a0
     4a1:	80 0f 80             	or     BYTE PTR [bx],0x80
     4a4:	bb a1 73             	mov    bx,0x73a1
     4a7:	80 0f 80             	or     BYTE PTR [bx],0x80
     4aa:	b0 00                	mov    al,0x0
     4ac:	88 06 84 71          	mov    BYTE PTR ds:0x7184,al
     4b0:	c3                   	ret    
     4b1:	b0 00                	mov    al,0x0
     4b3:	88 06 a0 73          	mov    BYTE PTR ds:0x73a0,al
     4b7:	88 06 a1 73          	mov    BYTE PTR ds:0x73a1,al
     4bb:	c3                   	ret    
     4bc:	f8                   	clc    
     4bd:	8a 06 a1 73          	mov    al,BYTE PTR ds:0x73a1
     4c1:	08 c0                	or     al,al
     4c3:	79 01                	jns    0x4c6
     4c5:	f9                   	stc    
     4c6:	c3                   	ret    
     4c7:	b5 0a                	mov    ch,0xa
     4c9:	b0 00                	mov    al,0x0
     4cb:	bb e1 73             	mov    bx,0x73e1
     4ce:	88 07                	mov    BYTE PTR [bx],al
     4d0:	43                   	inc    bx
     4d1:	fe cd                	dec    ch
     4d3:	75 f9                	jne    0x4ce
     4d5:	c3                   	ret    
     4d6:	9f                   	lahf   
     4d7:	86 e0                	xchg   al,ah
     4d9:	50                   	push   ax
     4da:	86 e0                	xchg   al,ah
     4dc:	51                   	push   cx
     4dd:	b5 0a                	mov    ch,0xa
     4df:	bb e1 73             	mov    bx,0x73e1
     4e2:	ba eb 73             	mov    dx,0x73eb
     4e5:	8a 0f                	mov    cl,BYTE PTR [bx]
     4e7:	8b ea                	mov    bp,dx
     4e9:	8a 46 00             	mov    al,BYTE PTR [bp+0x0]
     4ec:	88 07                	mov    BYTE PTR [bx],al
     4ee:	8a c1                	mov    al,cl
     4f0:	8b ea                	mov    bp,dx
     4f2:	88 46 00             	mov    BYTE PTR [bp+0x0],al
     4f5:	43                   	inc    bx
     4f6:	42                   	inc    dx
     4f7:	fe cd                	dec    ch
     4f9:	75 ea                	jne    0x4e5
     4fb:	59                   	pop    cx
     4fc:	58                   	pop    ax
     4fd:	86 e0                	xchg   al,ah
     4ff:	9e                   	sahf   
     500:	c3                   	ret    
     501:	bb e1 73             	mov    bx,0x73e1
     504:	89 1e ca 73          	mov    WORD PTR ds:0x73ca,bx
     508:	b0 0c                	mov    al,0xc
     50a:	88 06 cc 73          	mov    BYTE PTR ds:0x73cc,al
     50e:	c3                   	ret    
     50f:	e8 07 00             	call   0x519
     512:	72 04                	jb     0x518
     514:	e8 b0 ff             	call   0x4c7
     517:	f8                   	clc    
     518:	c3                   	ret    
     519:	8a 06 cc 73          	mov    al,BYTE PTR ds:0x73cc
     51d:	08 c0                	or     al,al
     51f:	75 08                	jne    0x529
     521:	b0 72                	mov    al,0x72
     523:	88 06 5e 74          	mov    BYTE PTR ds:0x745e,al
     527:	f9                   	stc    
     528:	c3                   	ret    
     529:	8b 1e ca 73          	mov    bx,WORD PTR ds:0x73ca
     52d:	b9 0a 00             	mov    cx,0xa
     530:	01 cb                	add    bx,cx
     532:	01 cb                	add    bx,cx
     534:	4b                   	dec    bx
     535:	87 d3                	xchg   bx,dx
     537:	8b 1e ca 73          	mov    bx,WORD PTR ds:0x73ca
     53b:	01 cb                	add    bx,cx
     53d:	89 1e ca 73          	mov    WORD PTR ds:0x73ca,bx
     541:	4b                   	dec    bx
     542:	8a 06 cc 73          	mov    al,BYTE PTR ds:0x73cc
     546:	2c 0d                	sub    al,0xd
     548:	f6 d8                	neg    al
     54a:	b1 0a                	mov    cl,0xa
     54c:	9c                   	pushf  
     54d:	87 f3                	xchg   bx,si
     54f:	87 fa                	xchg   dx,di
     551:	fd                   	std    
     552:	f3 a4                	rep movs BYTE PTR es:[di],BYTE PTR ds:[si]
     554:	87 f3                	xchg   bx,si
     556:	87 fa                	xchg   dx,di
     558:	9d                   	popf   
     559:	fe c8                	dec    al
     55b:	75 ed                	jne    0x54a
     55d:	8a 06 cc 73          	mov    al,BYTE PTR ds:0x73cc
     561:	fe c8                	dec    al
     563:	88 06 cc 73          	mov    BYTE PTR ds:0x73cc,al
     567:	f8                   	clc    
     568:	c3                   	ret    
     569:	e8 6a ff             	call   0x4d6
     56c:	8a 06 cc 73          	mov    al,BYTE PTR ds:0x73cc
     570:	3c 0b                	cmp    al,0xb
     572:	77 37                	ja     0x5ab
     574:	2c 0c                	sub    al,0xc
     576:	f6 d8                	neg    al
     578:	bb f5 73             	mov    bx,0x73f5
     57b:	ba eb 73             	mov    dx,0x73eb
     57e:	b9 0a 00             	mov    cx,0xa
     581:	9c                   	pushf  
     582:	87 f3                	xchg   bx,si
     584:	87 fa                	xchg   dx,di
     586:	fc                   	cld    
     587:	f3 a4                	rep movs BYTE PTR es:[di],BYTE PTR ds:[si]
     589:	87 f3                	xchg   bx,si
     58b:	87 fa                	xchg   dx,di
     58d:	9d                   	popf   
     58e:	fe c8                	dec    al
     590:	75 ec                	jne    0x57e
     592:	8b 1e ca 73          	mov    bx,WORD PTR ds:0x73ca
     596:	b9 0a 00             	mov    cx,0xa
     599:	08 c0                	or     al,al
     59b:	19 cb                	sbb    bx,cx
     59d:	89 1e ca 73          	mov    WORD PTR ds:0x73ca,bx
     5a1:	8a 06 cc 73          	mov    al,BYTE PTR ds:0x73cc
     5a5:	fe c0                	inc    al
     5a7:	88 06 cc 73          	mov    BYTE PTR ds:0x73cc,al
     5ab:	c3                   	ret    
     5ac:	8a 06 cc 73          	mov    al,BYTE PTR ds:0x73cc
     5b0:	3c 0b                	cmp    al,0xb
     5b2:	74 08                	je     0x5bc
     5b4:	b0 72                	mov    al,0x72
     5b6:	88 06 e6 73          	mov    BYTE PTR ds:0x73e6,al
     5ba:	f9                   	stc    
     5bb:	c3                   	ret    
     5bc:	f8                   	clc    
     5bd:	c3                   	ret    
     5be:	e8 4e ff             	call   0x50f
     5c1:	e9 f0 ff             	jmp    0x5b4
     5c4:	08 c0                	or     al,al
     5c6:	79 0c                	jns    0x5d4
     5c8:	f6 d8                	neg    al
     5ca:	e8 07 00             	call   0x5d4
     5cd:	b0 ff                	mov    al,0xff
     5cf:	88 06 e9 73          	mov    BYTE PTR ds:0x73e9,al
     5d3:	c3                   	ret    
     5d4:	9f                   	lahf   
     5d5:	86 e0                	xchg   al,ah
     5d7:	50                   	push   ax
     5d8:	86 e0                	xchg   al,ah
     5da:	e8 32 ff             	call   0x50f
     5dd:	58                   	pop    ax
     5de:	86 e0                	xchg   al,ah
     5e0:	9e                   	sahf   
     5e1:	9f                   	lahf   
     5e2:	86 e0                	xchg   al,ah
     5e4:	50                   	push   ax
     5e5:	86 e0                	xchg   al,ah
     5e7:	b5 00                	mov    ch,0x0
     5e9:	3c 64                	cmp    al,0x64
     5eb:	72 06                	jb     0x5f3
     5ed:	2c 64                	sub    al,0x64
     5ef:	fe c5                	inc    ch
     5f1:	75 f6                	jne    0x5e9
     5f3:	88 06 e5 73          	mov    BYTE PTR ds:0x73e5,al
     5f7:	8a c5                	mov    al,ch
     5f9:	88 06 e6 73          	mov    BYTE PTR ds:0x73e6,al
     5fd:	b0 02                	mov    al,0x2
     5ff:	88 06 ea 73          	mov    BYTE PTR ds:0x73ea,al
     603:	e8 40 02             	call   0x846
     606:	58                   	pop    ax
     607:	86 e0                	xchg   al,ah
     609:	9e                   	sahf   
     60a:	c3                   	ret    
     60b:	e8 21 00             	call   0x62f
     60e:	9f                   	lahf   
     60f:	86 e0                	xchg   al,ah
     611:	50                   	push   ax
     612:	86 e0                	xchg   al,ah
     614:	bb e9 73             	mov    bx,0x73e9
     617:	f6 07 80             	test   BYTE PTR [bx],0x80
     61a:	74 02                	je     0x61e
     61c:	f6 d8                	neg    al
     61e:	9f                   	lahf   
     61f:	86 e0                	xchg   al,ah
     621:	50                   	push   ax
     622:	86 e0                	xchg   al,ah
     624:	e8 42 ff             	call   0x569
     627:	59                   	pop    cx
     628:	58                   	pop    ax
     629:	86 e0                	xchg   al,ah
     62b:	9e                   	sahf   
     62c:	8a c5                	mov    al,ch
     62e:	c3                   	ret    
     62f:	8a 06 e6 73          	mov    al,BYTE PTR ds:0x73e6
     633:	08 c0                	or     al,al
     635:	75 02                	jne    0x639
     637:	f8                   	clc    
     638:	c3                   	ret    
     639:	8a 06 ea 73          	mov    al,BYTE PTR ds:0x73ea
     63d:	3c 01                	cmp    al,0x1
     63f:	73 04                	jae    0x645
     641:	b0 00                	mov    al,0x0
     643:	f8                   	clc    
     644:	c3                   	ret    
     645:	75 0a                	jne    0x651
     647:	8a 06 e6 73          	mov    al,BYTE PTR ds:0x73e6
     64b:	3c 64                	cmp    al,0x64
     64d:	73 02                	jae    0x651
     64f:	f8                   	clc    
     650:	c3                   	ret    
     651:	b0 64                	mov    al,0x64
     653:	f9                   	stc    
     654:	c3                   	ret    
     655:	8a 06 ea 73          	mov    al,BYTE PTR ds:0x73ea
     659:	08 c0                	or     al,al
     65b:	75 10                	jne    0x66d
     65d:	8a 06 e6 73          	mov    al,BYTE PTR ds:0x73e6
     661:	08 c0                	or     al,al
     663:	75 04                	jne    0x669
     665:	f8                   	clc    
     666:	e9 01 00             	jmp    0x66a
     669:	f9                   	stc    
     66a:	e9 2f 00             	jmp    0x69c
     66d:	3c 01                	cmp    al,0x1
     66f:	75 08                	jne    0x679
     671:	8a 06 e6 73          	mov    al,BYTE PTR ds:0x73e6
     675:	f8                   	clc    
     676:	e9 23 00             	jmp    0x69c
     679:	3c 02                	cmp    al,0x2
     67b:	75 1e                	jne    0x69b
     67d:	8a 06 e6 73          	mov    al,BYTE PTR ds:0x73e6
     681:	3c 03                	cmp    al,0x3
     683:	73 12                	jae    0x697
     685:	bb aa 07             	mov    bx,0x7aa
     688:	8a d0                	mov    dl,al
     68a:	b6 00                	mov    dh,0x0
     68c:	01 d3                	add    bx,dx
     68e:	8a 06 e5 73          	mov    al,BYTE PTR ds:0x73e5
     692:	02 07                	add    al,BYTE PTR [bx]
     694:	e9 01 00             	jmp    0x698
     697:	f9                   	stc    
     698:	e9 01 00             	jmp    0x69c
     69b:	f9                   	stc    
     69c:	9f                   	lahf   
     69d:	86 e0                	xchg   al,ah
     69f:	50                   	push   ax
     6a0:	86 e0                	xchg   al,ah
     6a2:	e8 c4 fe             	call   0x569
     6a5:	58                   	pop    ax
     6a6:	86 e0                	xchg   al,ah
     6a8:	9e                   	sahf   
     6a9:	c3                   	ret    
     6aa:	00 64 c8             	add    BYTE PTR [si-0x38],ah
     6ad:	00 ba cd 73          	add    BYTE PTR [bp+si+0x73cd],bh
     6b1:	e9 03 00             	jmp    0x6b7
     6b4:	ba d7 73             	mov    dx,0x73d7
     6b7:	bb e1 73             	mov    bx,0x73e1
     6ba:	b9 0a 00             	mov    cx,0xa
     6bd:	9c                   	pushf  
     6be:	87 f3                	xchg   bx,si
     6c0:	87 fa                	xchg   dx,di
     6c2:	fc                   	cld    
     6c3:	f3 a4                	rep movs BYTE PTR es:[di],BYTE PTR ds:[si]
     6c5:	87 f3                	xchg   bx,si
     6c7:	87 fa                	xchg   dx,di
     6c9:	9d                   	popf   
     6ca:	c3                   	ret    
     6cb:	bb cd 73             	mov    bx,0x73cd
     6ce:	e9 03 00             	jmp    0x6d4
     6d1:	bb d7 73             	mov    bx,0x73d7
     6d4:	53                   	push   bx
     6d5:	e8 37 fe             	call   0x50f
     6d8:	5b                   	pop    bx
     6d9:	ba e1 73             	mov    dx,0x73e1
     6dc:	b9 0a 00             	mov    cx,0xa
     6df:	9c                   	pushf  
     6e0:	87 f3                	xchg   bx,si
     6e2:	87 fa                	xchg   dx,di
     6e4:	fc                   	cld    
     6e5:	f3 a4                	rep movs BYTE PTR es:[di],BYTE PTR ds:[si]
     6e7:	87 f3                	xchg   bx,si
     6e9:	87 fa                	xchg   dx,di
     6eb:	9d                   	popf   
     6ec:	c3                   	ret    
     6ed:	e8 19 05             	call   0xc09
     6f0:	8a 06 e6 73          	mov    al,BYTE PTR ds:0x73e6
     6f4:	08 c0                	or     al,al
     6f6:	75 03                	jne    0x6fb
     6f8:	e9 6e fe             	jmp    0x569
     6fb:	8a 06 f0 73          	mov    al,BYTE PTR ds:0x73f0
     6ff:	08 c0                	or     al,al
     701:	75 03                	jne    0x706
     703:	e9 66 fe             	jmp    0x56c
     706:	8a 06 f4 73          	mov    al,BYTE PTR ds:0x73f4
     70a:	8a e8                	mov    ch,al
     70c:	8a 06 ea 73          	mov    al,BYTE PTR ds:0x73ea
     710:	28 e8                	sub    al,ch
     712:	71 03                	jno    0x717
     714:	e9 db 05             	jmp    0xcf2
     717:	79 05                	jns    0x71e
     719:	f6 d8                	neg    al
     71b:	e8 b8 fd             	call   0x4d6
     71e:	3c 06                	cmp    al,0x6
     720:	72 03                	jb     0x725
     722:	e9 9e 00             	jmp    0x7c3
     725:	9f                   	lahf   
     726:	86 e0                	xchg   al,ah
     728:	50                   	push   ax
     729:	86 e0                	xchg   al,ah
     72b:	bb eb 73             	mov    bx,0x73eb
     72e:	b5 00                	mov    ch,0x0
     730:	8a c8                	mov    cl,al
     732:	01 cb                	add    bx,cx
     734:	ba eb 73             	mov    dx,0x73eb
     737:	2c 06                	sub    al,0x6
     739:	f6 d8                	neg    al
     73b:	8a c8                	mov    cl,al
     73d:	b5 00                	mov    ch,0x0
     73f:	9c                   	pushf  
     740:	87 f3                	xchg   bx,si
     742:	87 fa                	xchg   dx,di
     744:	fc                   	cld    
     745:	f3 a4                	rep movs BYTE PTR es:[di],BYTE PTR ds:[si]
     747:	87 f3                	xchg   bx,si
     749:	87 fa                	xchg   dx,di
     74b:	9d                   	popf   
     74c:	58                   	pop    ax
     74d:	86 e0                	xchg   al,ah
     74f:	9e                   	sahf   
     750:	8a e8                	mov    ch,al
     752:	b0 00                	mov    al,0x0
     754:	fe cd                	dec    ch
     756:	78 09                	js     0x761
     758:	8b ea                	mov    bp,dx
     75a:	88 46 00             	mov    BYTE PTR [bp+0x0],al
     75d:	42                   	inc    dx
     75e:	e9 f3 ff             	jmp    0x754
     761:	8a 06 e9 73          	mov    al,BYTE PTR ds:0x73e9
     765:	8a c8                	mov    cl,al
     767:	8a 06 f3 73          	mov    al,BYTE PTR ds:0x73f3
     76b:	30 c8                	xor    al,cl
     76d:	f6 c0 80             	test   al,0x80
     770:	75 27                	jne    0x799
     772:	e8 5a 00             	call   0x7cf
     775:	8b ea                	mov    bp,dx
     777:	8a 46 00             	mov    al,BYTE PTR [bp+0x0]
     77a:	02 07                	add    al,BYTE PTR [bx]
     77c:	00 c8                	add    al,cl
     77e:	3c 64                	cmp    al,0x64
     780:	72 07                	jb     0x789
     782:	2c 64                	sub    al,0x64
     784:	b1 01                	mov    cl,0x1
     786:	e9 02 00             	jmp    0x78b
     789:	b1 00                	mov    cl,0x0
     78b:	8b ea                	mov    bp,dx
     78d:	88 46 00             	mov    BYTE PTR [bp+0x0],al
     790:	43                   	inc    bx
     791:	42                   	inc    dx
     792:	fe cd                	dec    ch
     794:	75 df                	jne    0x775
     796:	e9 2a 00             	jmp    0x7c3
     799:	e8 8d 00             	call   0x829
     79c:	73 03                	jae    0x7a1
     79e:	e8 35 fd             	call   0x4d6
     7a1:	e8 2b 00             	call   0x7cf
     7a4:	8b ea                	mov    bp,dx
     7a6:	8a 46 00             	mov    al,BYTE PTR [bp+0x0]
     7a9:	2a 07                	sub    al,BYTE PTR [bx]
     7ab:	28 c8                	sub    al,cl
     7ad:	79 07                	jns    0x7b6
     7af:	04 64                	add    al,0x64
     7b1:	b1 01                	mov    cl,0x1
     7b3:	e9 02 00             	jmp    0x7b8
     7b6:	b1 00                	mov    cl,0x0
     7b8:	8b ea                	mov    bp,dx
     7ba:	88 46 00             	mov    BYTE PTR [bp+0x0],al
     7bd:	43                   	inc    bx
     7be:	42                   	inc    dx
     7bf:	fe cd                	dec    ch
     7c1:	75 e1                	jne    0x7a4
     7c3:	e8 80 00             	call   0x846
     7c6:	e9 a3 fd             	jmp    0x56c
     7c9:	e8 0a 01             	call   0x8d6
     7cc:	e9 1e ff             	jmp    0x6ed
     7cf:	b5 08                	mov    ch,0x8
     7d1:	b1 00                	mov    cl,0x0
     7d3:	ba e1 73             	mov    dx,0x73e1
     7d6:	bb eb 73             	mov    bx,0x73eb
     7d9:	c3                   	ret    
     7da:	8a 06 e9 73          	mov    al,BYTE PTR ds:0x73e9
     7de:	8a e8                	mov    ch,al
     7e0:	8a 06 f3 73          	mov    al,BYTE PTR ds:0x73f3
     7e4:	38 e8                	cmp    al,ch
     7e6:	74 01                	je     0x7e9
     7e8:	c3                   	ret    
     7e9:	f6 c5 80             	test   ch,0x80
     7ec:	74 07                	je     0x7f5
     7ee:	e8 04 00             	call   0x7f5
     7f1:	74 01                	je     0x7f4
     7f3:	f5                   	cmc    
     7f4:	c3                   	ret    
     7f5:	8a 06 f0 73          	mov    al,BYTE PTR ds:0x73f0
     7f9:	8a e8                	mov    ch,al
     7fb:	8a 06 e6 73          	mov    al,BYTE PTR ds:0x73e6
     7ff:	08 c0                	or     al,al
     801:	75 06                	jne    0x809
     803:	38 e8                	cmp    al,ch
     805:	c3                   	ret    
     806:	e9 0d 00             	jmp    0x816
     809:	8a c5                	mov    al,ch
     80b:	08 c0                	or     al,al
     80d:	75 07                	jne    0x816
     80f:	8a 06 e6 73          	mov    al,BYTE PTR ds:0x73e6
     813:	38 e8                	cmp    al,ch
     815:	c3                   	ret    
     816:	8a 06 f4 73          	mov    al,BYTE PTR ds:0x73f4
     81a:	2c 80                	sub    al,0x80
     81c:	8a e8                	mov    ch,al
     81e:	8a 06 ea 73          	mov    al,BYTE PTR ds:0x73ea
     822:	2c 80                	sub    al,0x80
     824:	38 e8                	cmp    al,ch
     826:	74 01                	je     0x829
     828:	c3                   	ret    
     829:	ba e6 73             	mov    dx,0x73e6
     82c:	bb f0 73             	mov    bx,0x73f0
     82f:	b5 06                	mov    ch,0x6
     831:	fe cd                	dec    ch
     833:	79 03                	jns    0x838
     835:	38 c0                	cmp    al,al
     837:	c3                   	ret    
     838:	8b ea                	mov    bp,dx
     83a:	8a 46 00             	mov    al,BYTE PTR [bp+0x0]
     83d:	3a 07                	cmp    al,BYTE PTR [bx]
     83f:	9c                   	pushf  
     840:	4a                   	dec    dx
     841:	4b                   	dec    bx
     842:	9d                   	popf   
     843:	74 ec                	je     0x831
     845:	c3                   	ret    
     846:	8a 06 ea 73          	mov    al,BYTE PTR ds:0x73ea
     84a:	08 c0                	or     al,al
     84c:	79 0b                	jns    0x859
     84e:	f6 c0 40             	test   al,0x40
     851:	75 03                	jne    0x856
     853:	e9 8d 04             	jmp    0xce3
     856:	e9 08 00             	jmp    0x861
     859:	f6 c0 40             	test   al,0x40
     85c:	74 03                	je     0x861
     85e:	e9 53 fd             	jmp    0x5b4
     861:	bb e8 73             	mov    bx,0x73e8
     864:	b5 08                	mov    ch,0x8
     866:	8a 07                	mov    al,BYTE PTR [bx]
     868:	08 c0                	or     al,al
     86a:	74 03                	je     0x86f
     86c:	e9 08 00             	jmp    0x877
     86f:	4b                   	dec    bx
     870:	fe cd                	dec    ch
     872:	75 f2                	jne    0x866
     874:	e9 6c 04             	jmp    0xce3
     877:	8a c5                	mov    al,ch
     879:	2c 06                	sub    al,0x6
     87b:	75 01                	jne    0x87e
     87d:	c3                   	ret    
     87e:	8a e8                	mov    ch,al
     880:	8a 06 ea 73          	mov    al,BYTE PTR ds:0x73ea
     884:	00 e8                	add    al,ch
     886:	88 06 ea 73          	mov    BYTE PTR ds:0x73ea,al
     88a:	f6 c5 80             	test   ch,0x80
     88d:	75 23                	jne    0x8b2
     88f:	b9 05 00             	mov    cx,0x5
     892:	08 c0                	or     al,al
     894:	19 cb                	sbb    bx,cx
     896:	ba e1 73             	mov    dx,0x73e1
     899:	b1 08                	mov    cl,0x8
     89b:	9c                   	pushf  
     89c:	87 f3                	xchg   bx,si
     89e:	87 fa                	xchg   dx,di
     8a0:	fc                   	cld    
     8a1:	f3 a4                	rep movs BYTE PTR es:[di],BYTE PTR ds:[si]
     8a3:	87 f3                	xchg   bx,si
     8a5:	87 fa                	xchg   dx,di
     8a7:	9d                   	popf   
     8a8:	bb 00 00             	mov    bx,0x0
     8ab:	89 1e e7 73          	mov    WORD PTR ds:0x73e7,bx
     8af:	e9 23 00             	jmp    0x8d5
     8b2:	ba e6 73             	mov    dx,0x73e6
     8b5:	8a c5                	mov    al,ch
     8b7:	04 06                	add    al,0x6
     8b9:	8a c8                	mov    cl,al
     8bb:	b5 00                	mov    ch,0x0
     8bd:	9c                   	pushf  
     8be:	87 f3                	xchg   bx,si
     8c0:	87 fa                	xchg   dx,di
     8c2:	fd                   	std    
     8c3:	f3 a4                	rep movs BYTE PTR es:[di],BYTE PTR ds:[si]
     8c5:	87 f3                	xchg   bx,si
     8c7:	87 fa                	xchg   dx,di
     8c9:	9d                   	popf   
     8ca:	2c 06                	sub    al,0x6
     8cc:	87 d3                	xchg   bx,dx
     8ce:	88 2f                	mov    BYTE PTR [bx],ch
     8d0:	4b                   	dec    bx
     8d1:	fe c0                	inc    al
     8d3:	75 f9                	jne    0x8ce
     8d5:	c3                   	ret    
     8d6:	8a 06 e6 73          	mov    al,BYTE PTR ds:0x73e6
     8da:	08 c0                	or     al,al
     8dc:	74 0a                	je     0x8e8
     8de:	8a 06 e9 73          	mov    al,BYTE PTR ds:0x73e9
     8e2:	34 80                	xor    al,0x80
     8e4:	88 06 e9 73          	mov    BYTE PTR ds:0x73e9,al
     8e8:	c3                   	ret    
     8e9:	e8 1d 03             	call   0xc09
     8ec:	e8 eb fe             	call   0x7da
     8ef:	72 03                	jb     0x8f4
     8f1:	e8 e2 fb             	call   0x4d6
     8f4:	e9 75 fc             	jmp    0x56c
     8f7:	e8 0f 03             	call   0xc09
     8fa:	e8 dd fe             	call   0x7da
     8fd:	73 03                	jae    0x902
     8ff:	e8 d4 fb             	call   0x4d6
     902:	e9 67 fc             	jmp    0x56c
     905:	e8 01 03             	call   0xc09
     908:	e8 0f f8             	call   0x11a
     90b:	e8 83 02             	call   0xb91
     90e:	8a 06 ea 73          	mov    al,BYTE PTR ds:0x73ea
     912:	8a e8                	mov    ch,al
     914:	8a 06 f4 73          	mov    al,BYTE PTR ds:0x73f4
     918:	00 e8                	add    al,ch
     91a:	88 06 c9 73          	mov    BYTE PTR ds:0x73c9,al
     91e:	bb b2 73             	mov    bx,0x73b2
     921:	ba eb 73             	mov    dx,0x73eb
     924:	b5 06                	mov    ch,0x6
     926:	53                   	push   bx
     927:	52                   	push   dx
     928:	51                   	push   cx
     929:	8b ea                	mov    bp,dx
     92b:	8a 46 00             	mov    al,BYTE PTR [bp+0x0]
     92e:	08 c0                	or     al,al
     930:	74 21                	je     0x953
     932:	8a c8                	mov    cl,al
     934:	ba e1 73             	mov    dx,0x73e1
     937:	b5 06                	mov    ch,0x6
     939:	53                   	push   bx
     93a:	52                   	push   dx
     93b:	51                   	push   cx
     93c:	8b ea                	mov    bp,dx
     93e:	8a 46 00             	mov    al,BYTE PTR [bp+0x0]
     941:	8a e8                	mov    ch,al
     943:	08 c0                	or     al,al
     945:	74 03                	je     0x94a
     947:	e8 5b 00             	call   0x9a5
     94a:	59                   	pop    cx
     94b:	5a                   	pop    dx
     94c:	5b                   	pop    bx
     94d:	42                   	inc    dx
     94e:	43                   	inc    bx
     94f:	fe cd                	dec    ch
     951:	75 e6                	jne    0x939
     953:	59                   	pop    cx
     954:	5a                   	pop    dx
     955:	5b                   	pop    bx
     956:	42                   	inc    dx
     957:	43                   	inc    bx
     958:	fe cd                	dec    ch
     95a:	75 ca                	jne    0x926
     95c:	e8 0d fc             	call   0x56c
     95f:	e8 65 fb             	call   0x4c7
     962:	bb bf 73             	mov    bx,0x73bf
     965:	b5 0e                	mov    ch,0xe
     967:	8a 07                	mov    al,BYTE PTR [bx]
     969:	08 c0                	or     al,al
     96b:	74 03                	je     0x970
     96d:	e9 08 00             	jmp    0x978
     970:	4b                   	dec    bx
     971:	fe cd                	dec    ch
     973:	75 f2                	jne    0x967
     975:	e9 6b 03             	jmp    0xce3
     978:	8a 06 c9 73          	mov    al,BYTE PTR ds:0x73c9
     97c:	00 e8                	add    al,ch
     97e:	2c 0c                	sub    al,0xc
     980:	88 06 ea 73          	mov    BYTE PTR ds:0x73ea,al
     984:	ba e6 73             	mov    dx,0x73e6
     987:	b1 06                	mov    cl,0x6
     989:	9c                   	pushf  
     98a:	87 f3                	xchg   bx,si
     98c:	87 fa                	xchg   dx,di
     98e:	fd                   	std    
     98f:	a4                   	movs   BYTE PTR es:[di],BYTE PTR ds:[si]
     990:	87 f3                	xchg   bx,si
     992:	87 fa                	xchg   dx,di
     994:	49                   	dec    cx
     995:	9d                   	popf   
     996:	8a c1                	mov    al,cl
     998:	08 c0                	or     al,al
     99a:	75 ed                	jne    0x989
     99c:	8a 06 c8 73          	mov    al,BYTE PTR ds:0x73c8
     9a0:	88 06 e9 73          	mov    BYTE PTR ds:0x73e9,al
     9a4:	c3                   	ret    
     9a5:	53                   	push   bx
     9a6:	bb 00 00             	mov    bx,0x0
     9a9:	8a d5                	mov    dl,ch
     9ab:	b6 00                	mov    dh,0x0
     9ad:	d0 e9                	shr    cl,1
     9af:	73 0c                	jae    0x9bd
     9b1:	01 d3                	add    bx,dx
     9b3:	8a c3                	mov    al,bl
     9b5:	2c 64                	sub    al,0x64
     9b7:	78 04                	js     0x9bd
     9b9:	fe c7                	inc    bh
     9bb:	8a d8                	mov    bl,al
     9bd:	d0 e2                	shl    dl,1
     9bf:	d0 d6                	rcl    dh,1
     9c1:	8a c2                	mov    al,dl
     9c3:	2c 64                	sub    al,0x64
     9c5:	78 04                	js     0x9cb
     9c7:	fe c6                	inc    dh
     9c9:	8a d0                	mov    dl,al
     9cb:	8a c1                	mov    al,cl
     9cd:	08 c0                	or     al,al
     9cf:	75 dc                	jne    0x9ad
     9d1:	87 d3                	xchg   bx,dx
     9d3:	5b                   	pop    bx
     9d4:	8a 07                	mov    al,BYTE PTR [bx]
     9d6:	00 d0                	add    al,dl
     9d8:	3c 64                	cmp    al,0x64
     9da:	72 04                	jb     0x9e0
     9dc:	2c 64                	sub    al,0x64
     9de:	fe c6                	inc    dh
     9e0:	88 07                	mov    BYTE PTR [bx],al
     9e2:	43                   	inc    bx
     9e3:	8a 07                	mov    al,BYTE PTR [bx]
     9e5:	00 f0                	add    al,dh
     9e7:	3c 64                	cmp    al,0x64
     9e9:	72 07                	jb     0x9f2
     9eb:	2c 64                	sub    al,0x64
     9ed:	b6 01                	mov    dh,0x1
     9ef:	e9 02 00             	jmp    0x9f4
     9f2:	b6 00                	mov    dh,0x0
     9f4:	88 07                	mov    BYTE PTR [bx],al
     9f6:	43                   	inc    bx
     9f7:	8a c6                	mov    al,dh
     9f9:	08 c0                	or     al,al
     9fb:	75 e6                	jne    0x9e3
     9fd:	c3                   	ret    
     9fe:	e8 08 02             	call   0xc09
     a01:	e8 16 f7             	call   0x11a
     a04:	8a 06 e6 73          	mov    al,BYTE PTR ds:0x73e6
     a08:	08 c0                	or     al,al
     a0a:	75 03                	jne    0xa0f
     a0c:	e9 e3 02             	jmp    0xcf2
     a0f:	8a 06 f0 73          	mov    al,BYTE PTR ds:0x73f0
     a13:	08 c0                	or     al,al
     a15:	75 03                	jne    0xa1a
     a17:	e9 4f fb             	jmp    0x569
     a1a:	e8 74 01             	call   0xb91
     a1d:	8a 06 ea 73          	mov    al,BYTE PTR ds:0x73ea
     a21:	8a e8                	mov    ch,al
     a23:	8a 06 f4 73          	mov    al,BYTE PTR ds:0x73f4
     a27:	28 e8                	sub    al,ch
     a29:	88 06 c9 73          	mov    BYTE PTR ds:0x73c9,al
     a2d:	ba f1 73             	mov    dx,0x73f1
     a30:	bb f0 73             	mov    bx,0x73f0
     a33:	b9 06 00             	mov    cx,0x6
     a36:	9c                   	pushf  
     a37:	87 f3                	xchg   bx,si
     a39:	87 fa                	xchg   dx,di
     a3b:	fd                   	std    
     a3c:	f3 a4                	rep movs BYTE PTR es:[di],BYTE PTR ds:[si]
     a3e:	87 f3                	xchg   bx,si
     a40:	87 fa                	xchg   dx,di
     a42:	9d                   	popf   
     a43:	b0 00                	mov    al,0x0
     a45:	88 06 eb 73          	mov    BYTE PTR ds:0x73eb,al
     a49:	b1 07                	mov    cl,0x7
     a4b:	b5 08                	mov    ch,0x8
     a4d:	bb e1 73             	mov    bx,0x73e1
     a50:	b6 00                	mov    dh,0x0
     a52:	8a 07                	mov    al,BYTE PTR [bx]
     a54:	d0 e0                	shl    al,1
     a56:	00 f0                	add    al,dh
     a58:	3c 64                	cmp    al,0x64
     a5a:	72 07                	jb     0xa63
     a5c:	2c 64                	sub    al,0x64
     a5e:	b6 01                	mov    dh,0x1
     a60:	e9 02 00             	jmp    0xa65
     a63:	b6 00                	mov    dh,0x0
     a65:	88 07                	mov    BYTE PTR [bx],al
     a67:	43                   	inc    bx
     a68:	fe cd                	dec    ch
     a6a:	75 e6                	jne    0xa52
     a6c:	fe c9                	dec    cl
     a6e:	75 db                	jne    0xa4b
     a70:	8a 06 e8 73          	mov    al,BYTE PTR ds:0x73e8
     a74:	08 c0                	or     al,al
     a76:	75 24                	jne    0xa9c
     a78:	bb e7 73             	mov    bx,0x73e7
     a7b:	ba e8 73             	mov    dx,0x73e8
     a7e:	b9 07 00             	mov    cx,0x7
     a81:	9c                   	pushf  
     a82:	87 f3                	xchg   bx,si
     a84:	87 fa                	xchg   dx,di
     a86:	fd                   	std    
     a87:	f3 a4                	rep movs BYTE PTR es:[di],BYTE PTR ds:[si]
     a89:	87 f3                	xchg   bx,si
     a8b:	87 fa                	xchg   dx,di
     a8d:	9d                   	popf   
     a8e:	88 06 e1 73          	mov    BYTE PTR ds:0x73e1,al
     a92:	8a 06 c9 73          	mov    al,BYTE PTR ds:0x73c9
     a96:	fe c0                	inc    al
     a98:	88 06 c9 73          	mov    BYTE PTR ds:0x73c9,al
     a9c:	bb f2 73             	mov    bx,0x73f2
     a9f:	89 1e af 73          	mov    WORD PTR ds:0x73af,bx
     aa3:	b0 08                	mov    al,0x8
     aa5:	88 06 b1 73          	mov    BYTE PTR ds:0x73b1,al
     aa9:	bb b9 73             	mov    bx,0x73b9
     aac:	b5 08                	mov    ch,0x8
     aae:	53                   	push   bx
     aaf:	51                   	push   cx
     ab0:	bb e1 73             	mov    bx,0x73e1
     ab3:	ba ba 73             	mov    dx,0x73ba
     ab6:	b9 08 00             	mov    cx,0x8
     ab9:	9c                   	pushf  
     aba:	87 f3                	xchg   bx,si
     abc:	87 fa                	xchg   dx,di
     abe:	fc                   	cld    
     abf:	f3 a4                	rep movs BYTE PTR es:[di],BYTE PTR ds:[si]
     ac1:	87 f3                	xchg   bx,si
     ac3:	87 fa                	xchg   dx,di
     ac5:	9d                   	popf   
     ac6:	b9 80 00             	mov    cx,0x80
     ac9:	51                   	push   cx
     aca:	ba c1 73             	mov    dx,0x73c1
     acd:	8b 1e af 73          	mov    bx,WORD PTR ds:0x73af
     ad1:	8a 06 b1 73          	mov    al,BYTE PTR ds:0x73b1
     ad5:	8a e8                	mov    ch,al
     ad7:	e8 57 fd             	call   0x831
     ada:	77 0b                	ja     0xae7
     adc:	59                   	pop    cx
     add:	8a c1                	mov    al,cl
     adf:	08 e8                	or     al,ch
     ae1:	8a e8                	mov    ch,al
     ae3:	51                   	push   cx
     ae4:	e8 74 00             	call   0xb5b
     ae7:	bb c1 73             	mov    bx,0x73c1
     aea:	b5 08                	mov    ch,0x8
     aec:	b1 00                	mov    cl,0x0
     aee:	08 c0                	or     al,al
     af0:	8a 07                	mov    al,BYTE PTR [bx]
     af2:	73 02                	jae    0xaf6
     af4:	04 64                	add    al,0x64
     af6:	d0 e8                	shr    al,1
     af8:	88 07                	mov    BYTE PTR [bx],al
     afa:	4b                   	dec    bx
     afb:	fe cd                	dec    ch
     afd:	75 f1                	jne    0xaf0
     aff:	59                   	pop    cx
     b00:	8a c5                	mov    al,ch
     b02:	d0 e9                	shr    cl,1
     b04:	75 c3                	jne    0xac9
     b06:	8b 1e af 73          	mov    bx,WORD PTR ds:0x73af
     b0a:	4b                   	dec    bx
     b0b:	89 1e af 73          	mov    WORD PTR ds:0x73af,bx
     b0f:	bb b1 73             	mov    bx,0x73b1
     b12:	fe 0f                	dec    BYTE PTR [bx]
     b14:	59                   	pop    cx
     b15:	5b                   	pop    bx
     b16:	88 07                	mov    BYTE PTR [bx],al
     b18:	4b                   	dec    bx
     b19:	fe cd                	dec    ch
     b1b:	75 91                	jne    0xaae
     b1d:	bb b2 73             	mov    bx,0x73b2
     b20:	ba e1 73             	mov    dx,0x73e1
     b23:	b9 08 00             	mov    cx,0x8
     b26:	9c                   	pushf  
     b27:	87 f3                	xchg   bx,si
     b29:	87 fa                	xchg   dx,di
     b2b:	fc                   	cld    
     b2c:	f3 a4                	rep movs BYTE PTR es:[di],BYTE PTR ds:[si]
     b2e:	87 f3                	xchg   bx,si
     b30:	87 fa                	xchg   dx,di
     b32:	9d                   	popf   
     b33:	8a 06 c9 73          	mov    al,BYTE PTR ds:0x73c9
     b37:	2c 02                	sub    al,0x2
     b39:	88 06 ea 73          	mov    BYTE PTR ds:0x73ea,al
     b3d:	e8 5c fe             	call   0x99c
     b40:	e8 80 fc             	call   0x7c3
     b43:	8a 06 e6 73          	mov    al,BYTE PTR ds:0x73e6
     b47:	3c 64                	cmp    al,0x64
     b49:	72 0f                	jb     0xb5a
     b4b:	2c 64                	sub    al,0x64
     b4d:	88 06 e6 73          	mov    BYTE PTR ds:0x73e6,al
     b51:	b0 01                	mov    al,0x1
     b53:	88 06 e7 73          	mov    BYTE PTR ds:0x73e7,al
     b57:	e8 ec fc             	call   0x846
     b5a:	c3                   	ret    
     b5b:	ba eb 73             	mov    dx,0x73eb
     b5e:	bb c2 73             	mov    bx,0x73c2
     b61:	8a 06 b1 73          	mov    al,BYTE PTR ds:0x73b1
     b65:	b5 00                	mov    ch,0x0
     b67:	8a c8                	mov    cl,al
     b69:	08 c0                	or     al,al
     b6b:	19 cb                	sbb    bx,cx
     b6d:	8a e8                	mov    ch,al
     b6f:	b1 00                	mov    cl,0x0
     b71:	8b ea                	mov    bp,dx
     b73:	8a 46 00             	mov    al,BYTE PTR [bp+0x0]
     b76:	2a 07                	sub    al,BYTE PTR [bx]
     b78:	28 c8                	sub    al,cl
     b7a:	79 07                	jns    0xb83
     b7c:	04 64                	add    al,0x64
     b7e:	b1 01                	mov    cl,0x1
     b80:	e9 02 00             	jmp    0xb85
     b83:	b1 00                	mov    cl,0x0
     b85:	8b ea                	mov    bp,dx
     b87:	88 46 00             	mov    BYTE PTR [bp+0x0],al
     b8a:	43                   	inc    bx
     b8b:	42                   	inc    dx
     b8c:	fe cd                	dec    ch
     b8e:	75 e1                	jne    0xb71
     b90:	c3                   	ret    
     b91:	8a 06 e9 73          	mov    al,BYTE PTR ds:0x73e9
     b95:	8a e8                	mov    ch,al
     b97:	8a 06 f3 73          	mov    al,BYTE PTR ds:0x73f3
     b9b:	30 e8                	xor    al,ch
     b9d:	88 06 c8 73          	mov    BYTE PTR ds:0x73c8,al
     ba1:	bb b2 73             	mov    bx,0x73b2
     ba4:	b5 16                	mov    ch,0x16
     ba6:	b0 00                	mov    al,0x0
     ba8:	88 07                	mov    BYTE PTR [bx],al
     baa:	43                   	inc    bx
     bab:	fe cd                	dec    ch
     bad:	75 f9                	jne    0xba8
     baf:	c3                   	ret    
     bb0:	00 0a                	add    BYTE PTR [bp+si],cl
     bb2:	14 1e                	adc    al,0x1e
     bb4:	28 32                	sub    BYTE PTR [bp+si],dh
     bb6:	3c 46                	cmp    al,0x46
     bb8:	50                   	push   ax
     bb9:	5a                   	pop    dx
     bba:	64 8a 06 cc 73       	mov    al,BYTE PTR fs:0x73cc
     bbf:	3c 0c                	cmp    al,0xc
     bc1:	72 05                	jb     0xbc8
     bc3:	e8 f8 f9             	call   0x5be
     bc6:	f9                   	stc    
     bc7:	c3                   	ret    
     bc8:	f8                   	clc    
     bc9:	c3                   	ret    
     bca:	8a 06 cc 73          	mov    al,BYTE PTR ds:0x73cc
     bce:	3c 0c                	cmp    al,0xc
     bd0:	72 06                	jb     0xbd8
     bd2:	e8 e9 f9             	call   0x5be
     bd5:	e9 0f 00             	jmp    0xbe7
     bd8:	8a 06 e6 73          	mov    al,BYTE PTR ds:0x73e6
     bdc:	e8 e8 00             	call   0xcc7
     bdf:	73 02                	jae    0xbe3
     be1:	f8                   	clc    
     be2:	c3                   	ret    
     be3:	88 06 e6 73          	mov    BYTE PTR ds:0x73e6,al
     be7:	5b                   	pop    bx
     be8:	f9                   	stc    
     be9:	c3                   	ret    
     bea:	8a 06 cc 73          	mov    al,BYTE PTR ds:0x73cc
     bee:	3c 0c                	cmp    al,0xc
     bf0:	72 06                	jb     0xbf8
     bf2:	e8 c9 f9             	call   0x5be
     bf5:	e9 0e 00             	jmp    0xc06
     bf8:	8a 06 e6 73          	mov    al,BYTE PTR ds:0x73e6
     bfc:	e8 ae 00             	call   0xcad
     bff:	72 01                	jb     0xc02
     c01:	c3                   	ret    
     c02:	88 06 e6 73          	mov    BYTE PTR ds:0x73e6,al
     c06:	5b                   	pop    bx
     c07:	f9                   	stc    
     c08:	c3                   	ret    
     c09:	8a 06 cc 73          	mov    al,BYTE PTR ds:0x73cc
     c0d:	3c 0b                	cmp    al,0xb
     c0f:	72 10                	jb     0xc21
     c11:	3c 0c                	cmp    al,0xc
     c13:	72 03                	jb     0xc18
     c15:	e8 a6 f9             	call   0x5be
     c18:	b0 72                	mov    al,0x72
     c1a:	88 06 e6 73          	mov    BYTE PTR ds:0x73e6,al
     c1e:	e9 35 00             	jmp    0xc56
     c21:	e8 97 00             	call   0xcbb
     c24:	73 0d                	jae    0xc33
     c26:	8a 06 f0 73          	mov    al,BYTE PTR ds:0x73f0
     c2a:	e8 9a 00             	call   0xcc7
     c2d:	73 01                	jae    0xc30
     c2f:	c3                   	ret    
     c30:	e9 1c 00             	jmp    0xc4f
     c33:	88 06 e6 73          	mov    BYTE PTR ds:0x73e6,al
     c37:	8a 06 f0 73          	mov    al,BYTE PTR ds:0x73f0
     c3b:	e8 89 00             	call   0xcc7
     c3e:	73 07                	jae    0xc47
     c40:	8a 06 e6 73          	mov    al,BYTE PTR ds:0x73e6
     c44:	e9 08 00             	jmp    0xc4f
     c47:	3c 71                	cmp    al,0x71
     c49:	75 04                	jne    0xc4f
     c4b:	8a 06 e6 73          	mov    al,BYTE PTR ds:0x73e6
     c4f:	88 06 f0 73          	mov    BYTE PTR ds:0x73f0,al
     c53:	e8 13 f9             	call   0x569
     c56:	5b                   	pop    bx
     c57:	f9                   	stc    
     c58:	c3                   	ret    
     c59:	8a 06 cc 73          	mov    al,BYTE PTR ds:0x73cc
     c5d:	3c 0b                	cmp    al,0xb
     c5f:	72 10                	jb     0xc71
     c61:	3c 0c                	cmp    al,0xc
     c63:	72 03                	jb     0xc68
     c65:	e8 56 f9             	call   0x5be
     c68:	b0 72                	mov    al,0x72
     c6a:	88 06 e6 73          	mov    BYTE PTR ds:0x73e6,al
     c6e:	e9 39 00             	jmp    0xcaa
     c71:	8a 06 e6 73          	mov    al,BYTE PTR ds:0x73e6
     c75:	e8 35 00             	call   0xcad
     c78:	72 0d                	jb     0xc87
     c7a:	8a 06 f0 73          	mov    al,BYTE PTR ds:0x73f0
     c7e:	e8 2c 00             	call   0xcad
     c81:	72 01                	jb     0xc84
     c83:	c3                   	ret    
     c84:	e9 1c 00             	jmp    0xca3
     c87:	88 06 e6 73          	mov    BYTE PTR ds:0x73e6,al
     c8b:	8a 06 f0 73          	mov    al,BYTE PTR ds:0x73f0
     c8f:	e8 1b 00             	call   0xcad
     c92:	72 07                	jb     0xc9b
     c94:	8a 06 e6 73          	mov    al,BYTE PTR ds:0x73e6
     c98:	e9 08 00             	jmp    0xca3
     c9b:	3c 71                	cmp    al,0x71
     c9d:	75 04                	jne    0xca3
     c9f:	8a 06 e6 73          	mov    al,BYTE PTR ds:0x73e6
     ca3:	88 06 f0 73          	mov    BYTE PTR ds:0x73f0,al
     ca7:	e8 bf f8             	call   0x569
     caa:	5b                   	pop    bx
     cab:	f9                   	stc    
     cac:	c3                   	ret    
     cad:	3c 73                	cmp    al,0x73
     caf:	72 02                	jb     0xcb3
     cb1:	f8                   	clc    
     cb2:	c3                   	ret    
     cb3:	3c 70                	cmp    al,0x70
     cb5:	73 02                	jae    0xcb9
     cb7:	b0 72                	mov    al,0x72
     cb9:	f9                   	stc    
     cba:	c3                   	ret    
     cbb:	8a 06 e6 73          	mov    al,BYTE PTR ds:0x73e6
     cbf:	e8 05 00             	call   0xcc7
     cc2:	88 06 e6 73          	mov    BYTE PTR ds:0x73e6,al
     cc6:	c3                   	ret    
     cc7:	3c 70                	cmp    al,0x70
     cc9:	72 17                	jb     0xce2
     ccb:	9f                   	lahf   
     ccc:	86 e0                	xchg   al,ah
     cce:	50                   	push   ax
     ccf:	86 e0                	xchg   al,ah
     cd1:	3c 73                	cmp    al,0x73
     cd3:	72 09                	jb     0xcde
     cd5:	58                   	pop    ax
     cd6:	86 e0                	xchg   al,ah
     cd8:	9e                   	sahf   
     cd9:	b0 72                	mov    al,0x72
     cdb:	e9 04 00             	jmp    0xce2
     cde:	58                   	pop    ax
     cdf:	86 e0                	xchg   al,ah
     ce1:	9e                   	sahf   
     ce2:	c3                   	ret    
     ce3:	b0 00                	mov    al,0x0
     ce5:	b5 0a                	mov    ch,0xa
     ce7:	bb e1 73             	mov    bx,0x73e1
     cea:	88 07                	mov    BYTE PTR [bx],al
     cec:	43                   	inc    bx
     ced:	fe cd                	dec    ch
     cef:	75 f9                	jne    0xcea
     cf1:	c3                   	ret    
     cf2:	e8 bf f8             	call   0x5b4
     cf5:	e9 74 f8             	jmp    0x56c
     cf8:	e8 cf fe             	call   0xbca
     cfb:	8a 06 ea 73          	mov    al,BYTE PTR ds:0x73ea
     cff:	2c 05                	sub    al,0x5
     d01:	f6 d8                	neg    al
     d03:	79 01                	jns    0xd06
     d05:	c3                   	ret    
     d06:	3c 06                	cmp    al,0x6
     d08:	72 03                	jb     0xd0d
     d0a:	e9 ba f7             	jmp    0x4c7
     d0d:	b5 00                	mov    ch,0x0
     d0f:	8a c8                	mov    cl,al
     d11:	bb e1 73             	mov    bx,0x73e1
     d14:	01 cb                	add    bx,cx
     d16:	b0 00                	mov    al,0x0
     d18:	88 07                	mov    BYTE PTR [bx],al
     d1a:	4b                   	dec    bx
     d1b:	fe c9                	dec    cl
     d1d:	79 f9                	jns    0xd18
     d1f:	e9 24 fb             	jmp    0x846
     d22:	b0 00                	mov    al,0x0
     d24:	88 06 e9 73          	mov    BYTE PTR ds:0x73e9,al
     d28:	c3                   	ret    
     d29:	e8 dd fe             	call   0xc09
     d2c:	e8 7f f9             	call   0x6ae
     d2f:	e8 37 f8             	call   0x569
     d32:	e8 7f f9             	call   0x6b4
     d35:	e8 93 f9             	call   0x6cb
     d38:	e8 c3 fc             	call   0x9fe
     d3b:	e8 ba ff             	call   0xcf8
     d3e:	e8 8a f9             	call   0x6cb
     d41:	e8 c1 fb             	call   0x905
     d44:	e8 8f fb             	call   0x8d6
     d47:	e8 87 f9             	call   0x6d1
     d4a:	e8 a0 f9             	call   0x6ed
     d4d:	8a 06 e9 73          	mov    al,BYTE PTR ds:0x73e9
     d51:	08 c0                	or     al,al
     d53:	79 06                	jns    0xd5b
     d55:	e8 73 f9             	call   0x6cb
     d58:	e8 92 f9             	call   0x6ed
     d5b:	c3                   	ret    
     d5c:	53                   	push   bx
     d5d:	e8 4e f9             	call   0x6ae
     d60:	e8 64 f7             	call   0x4c7
     d63:	b0 01                	mov    al,0x1
     d65:	e8 6c f8             	call   0x5d4
     d68:	5b                   	pop    bx
     d69:	8a 07                	mov    al,BYTE PTR [bx]
     d6b:	08 c0                	or     al,al
     d6d:	78 1b                	js     0xd8a
     d6f:	53                   	push   bx
     d70:	e8 41 f9             	call   0x6b4
     d73:	5b                   	pop    bx
     d74:	e8 1c 00             	call   0xd93
     d77:	53                   	push   bx
     d78:	e8 8a fb             	call   0x905
     d7b:	e8 6f f9             	call   0x6ed
     d7e:	e8 50 f9             	call   0x6d1
     d81:	e8 47 f9             	call   0x6cb
     d84:	e8 7e fb             	call   0x905
     d87:	e9 de ff             	jmp    0xd68
     d8a:	e9 dc f7             	jmp    0x569
     d8d:	5b                   	pop    bx
     d8e:	e8 02 00             	call   0xd93
     d91:	ff e3                	jmp    bx
     d93:	53                   	push   bx
     d94:	e8 78 f7             	call   0x50f
     d97:	b9 06 00             	mov    cx,0x6
     d9a:	5b                   	pop    bx
     d9b:	ba e1 73             	mov    dx,0x73e1
     d9e:	9c                   	pushf  
     d9f:	87 f3                	xchg   bx,si
     da1:	87 fa                	xchg   dx,di
     da3:	fc                   	cld    
     da4:	f3 a4                	rep movs BYTE PTR es:[di],BYTE PTR ds:[si]
     da6:	87 f3                	xchg   bx,si
     da8:	87 fa                	xchg   dx,di
     daa:	9d                   	popf   
     dab:	8a 07                	mov    al,BYTE PTR [bx]
     dad:	88 06 ea 73          	mov    BYTE PTR ds:0x73ea,al
     db1:	43                   	inc    bx
     db2:	8a 07                	mov    al,BYTE PTR [bx]
     db4:	88 06 e9 73          	mov    BYTE PTR ds:0x73e9,al
     db8:	43                   	inc    bx
     db9:	c3                   	ret    
     dba:	e8 d0 ff             	call   0xd8d
     dbd:	03 13                	add    dx,WORD PTR [bp+di]
     dbf:	30 5e 2a             	xor    BYTE PTR [bp+0x2a],bl
     dc2:	2b 00                	sub    ax,WORD PTR [bx+si]
     dc4:	00 c3                	add    bl,al
     dc6:	e8 c4 ff             	call   0xd8d
     dc9:	1e                   	push   ds
     dca:	09 55 19             	or     WORD PTR [di+0x19],dx
     dcd:	1e                   	push   ds
     dce:	02 01                	add    al,BYTE PTR [bx+di]
     dd0:	00 c3                	add    bl,al
     dd2:	e8 b8 ff             	call   0xd8d
     dd5:	24 41                	and    al,0x41
     dd7:	5c                   	pop    sp
     dd8:	0f 0e                	femms  
     dda:	03 01                	add    ax,WORD PTR [bx+di]
     ddc:	00 c3                	add    bl,al
     dde:	e8 ac ff             	call   0xd8d
     de1:	44                   	inc    sp
     de2:	20 60 07             	and    BYTE PTR [bx+si+0x7],ah
     de5:	39 01                	cmp    WORD PTR [bx+di],ax
     de7:	01 00                	add    WORD PTR [bx+si],ax
     de9:	c3                   	ret    
     dea:	8a 06 ea 73          	mov    al,BYTE PTR ds:0x73ea
     dee:	d0 e0                	shl    al,1
     df0:	88 06 63 74          	mov    BYTE PTR ds:0x7463,al
     df4:	8a 06 e6 73          	mov    al,BYTE PTR ds:0x73e6
     df8:	3c 0a                	cmp    al,0xa
     dfa:	73 0d                	jae    0xe09
     dfc:	b0 0a                	mov    al,0xa
     dfe:	e8 d3 f7             	call   0x5d4
     e01:	e8 01 fb             	call   0x905
     e04:	bb 63 74             	mov    bx,0x7463
     e07:	fe 0f                	dec    BYTE PTR [bx]
     e09:	b0 00                	mov    al,0x0
     e0b:	88 06 ea 73          	mov    BYTE PTR ds:0x73ea,al
     e0f:	c3                   	ret    
     e10:	e8 06 f7             	call   0x519
     e13:	e9 ef fa             	jmp    0x905
     e16:	e8 b1 fd             	call   0xbca
     e19:	8a 06 e9 73          	mov    al,BYTE PTR ds:0x73e9
     e1d:	08 c0                	or     al,al
     e1f:	79 03                	jns    0xe24
     e21:	e9 90 f7             	jmp    0x5b4
     e24:	8a 06 e6 73          	mov    al,BYTE PTR ds:0x73e6
     e28:	08 c0                	or     al,al
     e2a:	75 03                	jne    0xe2f
     e2c:	e9 85 f7             	jmp    0x5b4
     e2f:	e8 b8 ff             	call   0xdea
     e32:	e8 58 ff             	call   0xd8d
     e35:	02 42 4d             	add    al,BYTE PTR [bp+si+0x4d]
     e38:	16                   	push   ss
     e39:	10 03                	adc    BYTE PTR [bp+di],al
     e3b:	01 00                	add    WORD PTR [bx+si],ax
     e3d:	e8 c5 fa             	call   0x905
     e40:	e8 6b f8             	call   0x6ae
     e43:	b0 01                	mov    al,0x1
     e45:	e8 8c f7             	call   0x5d4
     e48:	e8 7e f9             	call   0x7c9
     e4b:	e8 7d f8             	call   0x6cb
     e4e:	b0 01                	mov    al,0x1
     e50:	e8 81 f7             	call   0x5d4
     e53:	e8 97 f8             	call   0x6ed
     e56:	e8 a5 fb             	call   0x9fe
     e59:	e8 bd f6             	call   0x519
     e5c:	e8 ba f6             	call   0x519
     e5f:	e8 a3 fa             	call   0x905
     e62:	e8 b4 f6             	call   0x519
     e65:	bb 32 13             	mov    bx,0x1332
     e68:	e8 f1 fe             	call   0xd5c
     e6b:	e8 68 f6             	call   0x4d6
     e6e:	bb 53 13             	mov    bx,0x1353
     e71:	e8 e8 fe             	call   0xd5c
     e74:	e8 87 fb             	call   0x9fe
     e77:	e8 8b fa             	call   0x905
     e7a:	8a 06 63 74          	mov    al,BYTE PTR ds:0x7463
     e7e:	e8 43 f7             	call   0x5c4
     e81:	e8 69 f8             	call   0x6ed
     e84:	e8 06 ff             	call   0xd8d
     e87:	00 00                	add    BYTE PTR [bx+si],al
     e89:	00 00                	add    BYTE PTR [bx+si],al
     e8b:	00 32                	add    BYTE PTR [bp+si],dh
     e8d:	00 00                	add    BYTE PTR [bx+si],al
     e8f:	e9 37 f9             	jmp    0x7c9
     e92:	e8 81 ff             	call   0xe16
     e95:	e8 2e ff             	call   0xdc6
     e98:	e9 6a fa             	jmp    0x905
     e9b:	e8 2c fd             	call   0xbca
     e9e:	e8 19 ff             	call   0xdba
     ea1:	e8 61 fa             	call   0x905
     ea4:	8a 06 e9 73          	mov    al,BYTE PTR ds:0x73e9
     ea8:	88 06 68 74          	mov    BYTE PTR ds:0x7468,al
     eac:	e8 6a f6             	call   0x519
     eaf:	e8 46 fe             	call   0xcf8
     eb2:	8a 06 68 74          	mov    al,BYTE PTR ds:0x7468
     eb6:	08 c0                	or     al,al
     eb8:	79 08                	jns    0xec2
     eba:	b0 ff                	mov    al,0xff
     ebc:	e8 05 f7             	call   0x5c4
     ebf:	e8 2b f8             	call   0x6ed
     ec2:	e8 ef f7             	call   0x6b4
     ec5:	e8 0e fa             	call   0x8d6
     ec8:	e8 22 f8             	call   0x6ed
     ecb:	e8 f8 fe             	call   0xdc6
     ece:	e8 34 fa             	call   0x905
     ed1:	b0 02                	mov    al,0x2
     ed3:	e8 fe f6             	call   0x5d4
     ed6:	e8 25 fb             	call   0x9fe
     ed9:	e8 3d f6             	call   0x519
     edc:	e8 31 ff             	call   0xe10
     edf:	e8 cc f7             	call   0x6ae
     ee2:	b0 0b                	mov    al,0xb
     ee4:	e8 ed f6             	call   0x5d4
     ee7:	9f                   	lahf   
     ee8:	86 e0                	xchg   al,ah
     eea:	50                   	push   ax
     eeb:	86 e0                	xchg   al,ah
     eed:	e8 0e fb             	call   0x9fe
     ef0:	58                   	pop    ax
     ef1:	86 e0                	xchg   al,ah
     ef3:	9e                   	sahf   
     ef4:	2c 02                	sub    al,0x2
     ef6:	9f                   	lahf   
     ef7:	86 e0                	xchg   al,ah
     ef9:	50                   	push   ax
     efa:	86 e0                	xchg   al,ah
     efc:	e8 d5 f6             	call   0x5d4
     eff:	e8 eb f7             	call   0x6ed
     f02:	58                   	pop    ax
     f03:	86 e0                	xchg   al,ah
     f05:	9e                   	sahf   
     f06:	3c 01                	cmp    al,0x1
     f08:	74 0f                	je     0xf19
     f0a:	9f                   	lahf   
     f0b:	86 e0                	xchg   al,ah
     f0d:	50                   	push   ax
     f0e:	86 e0                	xchg   al,ah
     f10:	e8 b8 f7             	call   0x6cb
     f13:	e8 c0 f5             	call   0x4d6
     f16:	e9 d4 ff             	jmp    0xeed
     f19:	e8 e2 fa             	call   0x9fe
     f1c:	e8 fa f5             	call   0x519
     f1f:	b0 01                	mov    al,0x1
     f21:	e8 b0 f6             	call   0x5d4
     f24:	e8 c6 f7             	call   0x6ed
     f27:	e8 ac f5             	call   0x4d6
     f2a:	e8 a9 f9             	call   0x8d6
     f2d:	b0 01                	mov    al,0x1
     f2f:	e8 a2 f6             	call   0x5d4
     f32:	e8 b8 f7             	call   0x6ed
     f35:	e8 c6 fa             	call   0x9fe
     f38:	8a 06 ea 73          	mov    al,BYTE PTR ds:0x73ea
     f3c:	d0 e0                	shl    al,1
     f3e:	e8 83 f6             	call   0x5c4
     f41:	e8 8d f7             	call   0x6d1
     f44:	e8 a6 f7             	call   0x6ed
     f47:	8a 06 ea 73          	mov    al,BYTE PTR ds:0x73ea
     f4b:	3c 01                	cmp    al,0x1
     f4d:	74 0b                	je     0xf5a
     f4f:	8a 06 e6 73          	mov    al,BYTE PTR ds:0x73e6
     f53:	08 c0                	or     al,al
     f55:	74 03                	je     0xf5a
     f57:	e9 5a f6             	jmp    0x5b4
     f5a:	8a 06 e6 73          	mov    al,BYTE PTR ds:0x73e6
     f5e:	bb e9 73             	mov    bx,0x73e9
     f61:	f6 07 80             	test   BYTE PTR [bx],0x80
     f64:	74 02                	je     0xf68
     f66:	f6 d8                	neg    al
     f68:	9f                   	lahf   
     f69:	86 e0                	xchg   al,ah
     f6b:	50                   	push   ax
     f6c:	86 e0                	xchg   al,ah
     f6e:	e8 f8 f5             	call   0x569
     f71:	58                   	pop    ax
     f72:	86 e0                	xchg   al,ah
     f74:	9e                   	sahf   
     f75:	d0 f8                	sar    al,1
     f77:	88 06 ea 73          	mov    BYTE PTR ds:0x73ea,al
     f7b:	73 08                	jae    0xf85
     f7d:	b0 0a                	mov    al,0xa
     f7f:	e8 52 f6             	call   0x5d4
     f82:	e8 80 f9             	call   0x905
     f85:	c3                   	ret    
     f86:	e8 80 fc             	call   0xc09
     f89:	8a 06 e6 73          	mov    al,BYTE PTR ds:0x73e6
     f8d:	88 06 67 74          	mov    BYTE PTR ds:0x7467,al
     f91:	8a 06 e9 73          	mov    al,BYTE PTR ds:0x73e9
     f95:	88 06 66 74          	mov    BYTE PTR ds:0x7466,al
     f99:	e8 3a f5             	call   0x4d6
     f9c:	8a 06 e6 73          	mov    al,BYTE PTR ds:0x73e6
     fa0:	88 06 65 74          	mov    BYTE PTR ds:0x7465,al
     fa4:	8a 06 e9 73          	mov    al,BYTE PTR ds:0x73e9
     fa8:	88 06 64 74          	mov    BYTE PTR ds:0x7464,al
     fac:	8a 06 64 74          	mov    al,BYTE PTR ds:0x7464
     fb0:	08 c0                	or     al,al
     fb2:	79 5c                	jns    0x1010
     fb4:	8a 06 67 74          	mov    al,BYTE PTR ds:0x7467
     fb8:	08 c0                	or     al,al
     fba:	75 0c                	jne    0xfc8
     fbc:	e8 aa f5             	call   0x569
     fbf:	e8 a7 f5             	call   0x569
     fc2:	b0 01                	mov    al,0x1
     fc4:	e8 0d f6             	call   0x5d4
     fc7:	c3                   	ret    
     fc8:	e8 0b f5             	call   0x4d6
     fcb:	e8 4b f5             	call   0x519
     fce:	e8 27 fd             	call   0xcf8
     fd1:	e8 06 f8             	call   0x7da
     fd4:	74 09                	je     0xfdf
     fd6:	e8 90 f5             	call   0x569
     fd9:	e8 8d f5             	call   0x569
     fdc:	e9 d5 f5             	jmp    0x5b4
     fdf:	e8 87 f5             	call   0x569
     fe2:	8a 06 ea 73          	mov    al,BYTE PTR ds:0x73ea
     fe6:	2c 06                	sub    al,0x6
     fe8:	f6 d8                	neg    al
     fea:	79 05                	jns    0xff1
     fec:	b0 00                	mov    al,0x0
     fee:	e9 0f 00             	jmp    0x1000
     ff1:	8a c8                	mov    cl,al
     ff3:	b5 00                	mov    ch,0x0
     ff5:	bb e1 73             	mov    bx,0x73e1
     ff8:	01 cb                	add    bx,cx
     ffa:	8a 07                	mov    al,BYTE PTR [bx]
     ffc:	d0 f8                	sar    al,1
     ffe:	d0 d8                	rcr    al,1
    1000:	88 06 64 74          	mov    BYTE PTR ds:0x7464,al
    1004:	e8 cf f4             	call   0x4d6
    1007:	b0 00                	mov    al,0x0
    1009:	88 06 e9 73          	mov    BYTE PTR ds:0x73e9,al
    100d:	e9 24 00             	jmp    0x1034
    1010:	8a 06 65 74          	mov    al,BYTE PTR ds:0x7465
    1014:	08 c0                	or     al,al
    1016:	75 1c                	jne    0x1034
    1018:	8a 06 66 74          	mov    al,BYTE PTR ds:0x7466
    101c:	08 c0                	or     al,al
    101e:	78 0e                	js     0x102e
    1020:	8a 06 67 74          	mov    al,BYTE PTR ds:0x7467
    1024:	08 c0                	or     al,al
    1026:	74 06                	je     0x102e
    1028:	e8 3e f5             	call   0x569
    102b:	e9 99 f4             	jmp    0x4c7
    102e:	e8 38 f5             	call   0x569
    1031:	e9 80 f5             	jmp    0x5b4
    1034:	e8 5b fe             	call   0xe92
    1037:	e8 cb f8             	call   0x905
    103a:	e8 5e fe             	call   0xe9b
    103d:	8a 06 64 74          	mov    al,BYTE PTR ds:0x7464
    1041:	24 80                	and    al,0x80
    1043:	88 06 e9 73          	mov    BYTE PTR ds:0x73e9,al
    1047:	c3                   	ret    
    1048:	e8 7f fb             	call   0xbca
    104b:	8a 06 e9 73          	mov    al,BYTE PTR ds:0x73e9
    104f:	88 06 68 74          	mov    BYTE PTR ds:0x7468,al
    1053:	e8 cc fc             	call   0xd22
    1056:	e8 c0 f4             	call   0x519
    1059:	e8 82 fd             	call   0xdde
    105c:	e8 ca fc             	call   0xd29
    105f:	e8 74 f4             	call   0x4d6
    1062:	e8 79 fd             	call   0xdde
    1065:	e8 96 f9             	call   0x9fe
    1068:	b0 04                	mov    al,0x4
    106a:	e8 67 f5             	call   0x5d4
    106d:	e8 b9 fc             	call   0xd29
    1070:	e8 85 fc             	call   0xcf8
    1073:	8a 06 e6 73          	mov    al,BYTE PTR ds:0x73e6
    1077:	9f                   	lahf   
    1078:	86 e0                	xchg   al,ah
    107a:	50                   	push   ax
    107b:	86 e0                	xchg   al,ah
    107d:	e8 e9 f4             	call   0x569
    1080:	58                   	pop    ax
    1081:	86 e0                	xchg   al,ah
    1083:	9e                   	sahf   
    1084:	d0 d8                	rcr    al,1
    1086:	73 1a                	jae    0x10a2
    1088:	9f                   	lahf   
    1089:	86 e0                	xchg   al,ah
    108b:	50                   	push   ax
    108c:	86 e0                	xchg   al,ah
    108e:	e8 4d fd             	call   0xdde
    1091:	58                   	pop    ax
    1092:	86 e0                	xchg   al,ah
    1094:	9e                   	sahf   
    1095:	d0 d8                	rcr    al,1
    1097:	72 03                	jb     0x109c
    1099:	e8 3a f4             	call   0x4d6
    109c:	e8 2a f7             	call   0x7c9
    109f:	e9 07 00             	jmp    0x10a9
    10a2:	d0 d8                	rcr    al,1
    10a4:	73 03                	jae    0x10a9
    10a6:	e8 2d f8             	call   0x8d6
    10a9:	8a 06 ea 73          	mov    al,BYTE PTR ds:0x73ea
    10ad:	08 c0                	or     al,al
    10af:	79 07                	jns    0x10b8
    10b1:	3c ff                	cmp    al,0xff
    10b3:	73 03                	jae    0x10b8
    10b5:	e9 31 00             	jmp    0x10e9
    10b8:	e8 5e f4             	call   0x519
    10bb:	e8 52 fd             	call   0xe10
    10be:	bb 74 13             	mov    bx,0x1374
    10c1:	e8 98 fc             	call   0xd5c
    10c4:	e8 3e f8             	call   0x905
    10c7:	8a 06 ea 73          	mov    al,BYTE PTR ds:0x73ea
    10cb:	08 c0                	or     al,al
    10cd:	7e 1a                	jle    0x10e9
    10cf:	8a 06 e9 73          	mov    al,BYTE PTR ds:0x73e9
    10d3:	9f                   	lahf   
    10d4:	86 e0                	xchg   al,ah
    10d6:	50                   	push   ax
    10d7:	86 e0                	xchg   al,ah
    10d9:	e8 8d f4             	call   0x569
    10dc:	b0 01                	mov    al,0x1
    10de:	e8 f3 f4             	call   0x5d4
    10e1:	58                   	pop    ax
    10e2:	86 e0                	xchg   al,ah
    10e4:	9e                   	sahf   
    10e5:	88 06 e9 73          	mov    BYTE PTR ds:0x73e9,al
    10e9:	8a 06 68 74          	mov    al,BYTE PTR ds:0x7468
    10ed:	8a e8                	mov    ch,al
    10ef:	8a 06 e9 73          	mov    al,BYTE PTR ds:0x73e9
    10f3:	30 e8                	xor    al,ch
    10f5:	88 06 e9 73          	mov    BYTE PTR ds:0x73e9,al
    10f9:	c3                   	ret    
    10fa:	e8 e1 fc             	call   0xdde
    10fd:	e8 ed f5             	call   0x6ed
    1100:	e9 45 ff             	jmp    0x1048
    1103:	e8 13 f4             	call   0x519
    1106:	e8 3f ff             	call   0x1048
    1109:	e8 ca f3             	call   0x4d6
    110c:	e8 eb ff             	call   0x10fa
    110f:	e9 ec f8             	jmp    0x9fe
    1112:	e8 78 fc             	call   0xd8d
    1115:	00 00                	add    BYTE PTR [bx+si],al
    1117:	00 00                	add    BYTE PTR [bx+si],al
    1119:	00 32                	add    BYTE PTR [bp+si],dh
    111b:	00 00                	add    BYTE PTR [bx+si],al
    111d:	e9 66 fe             	jmp    0xf86
    1120:	e8 a7 fa             	call   0xbca
    1123:	8a 06 e9 73          	mov    al,BYTE PTR ds:0x73e9
    1127:	24 80                	and    al,0x80
    1129:	88 06 69 74          	mov    BYTE PTR ds:0x7469,al
    112d:	b0 00                	mov    al,0x0
    112f:	88 06 e9 73          	mov    BYTE PTR ds:0x73e9,al
    1133:	e8 57 fc             	call   0xd8d
    1136:	57                   	push   di
    1137:	0b 4e 06             	or     cx,WORD PTR [bp+0x6]
    113a:	47                   	inc    di
    113b:	46                   	inc    si
    113c:	00 00                	add    BYTE PTR [bx+si],al
    113e:	e8 99 f6             	call   0x7da
    1141:	73 2f                	jae    0x1172
    1143:	e8 23 f4             	call   0x569
    1146:	b0 01                	mov    al,0x1
    1148:	e8 89 f4             	call   0x5d4
    114b:	e8 8c f6             	call   0x7da
    114e:	73 06                	jae    0x1156
    1150:	e8 16 f4             	call   0x569
    1153:	e9 5e f4             	jmp    0x5b4
    1156:	e8 7d f3             	call   0x4d6
    1159:	e8 b4 fc             	call   0xe10
    115c:	e8 77 f7             	call   0x8d6
    115f:	e8 8b f5             	call   0x6ed
    1162:	e8 ad ff             	call   0x1112
    1165:	8a 06 69 74          	mov    al,BYTE PTR ds:0x7469
    1169:	0c 40                	or     al,0x40
    116b:	88 06 69 74          	mov    BYTE PTR ds:0x7469,al
    116f:	e9 03 00             	jmp    0x1175
    1172:	e8 f4 f3             	call   0x569
    1175:	8a 06 ea 73          	mov    al,BYTE PTR ds:0x73ea
    1179:	08 c0                	or     al,al
    117b:	79 04                	jns    0x1181
    117d:	3c ff                	cmp    al,0xff
    117f:	72 1e                	jb     0x119f
    1181:	e8 95 f3             	call   0x519
    1184:	e8 89 fc             	call   0xe10
    1187:	e8 8f f3             	call   0x519
    118a:	bb b5 13             	mov    bx,0x13b5
    118d:	e8 cc fb             	call   0xd5c
    1190:	e8 43 f3             	call   0x4d6
    1193:	bb de 13             	mov    bx,0x13de
    1196:	e8 c3 fb             	call   0xd5c
    1199:	e8 62 f8             	call   0x9fe
    119c:	e8 66 f7             	call   0x905
    119f:	bb 69 74             	mov    bx,0x7469
    11a2:	f6 07 40             	test   BYTE PTR [bx],0x40
    11a5:	74 09                	je     0x11b0
    11a7:	e8 2c f7             	call   0x8d6
    11aa:	e8 31 fc             	call   0xdde
    11ad:	e8 3d f5             	call   0x6ed
    11b0:	8a 06 69 74          	mov    al,BYTE PTR ds:0x7469
    11b4:	24 80                	and    al,0x80
    11b6:	8a e8                	mov    ch,al
    11b8:	8a 06 e9 73          	mov    al,BYTE PTR ds:0x73e9
    11bc:	30 e8                	xor    al,ch
    11be:	88 06 e9 73          	mov    BYTE PTR ds:0x73e9,al
    11c2:	c3                   	ret    
    11c3:	e8 5a ff             	call   0x1120
    11c6:	e8 0d f7             	call   0x8d6
    11c9:	e8 12 fc             	call   0xdde
    11cc:	e9 1e f5             	jmp    0x6ed
    11cf:	e8 f8 f9             	call   0xbca
    11d2:	8a 06 e9 73          	mov    al,BYTE PTR ds:0x73e9
    11d6:	24 80                	and    al,0x80
    11d8:	88 06 69 74          	mov    BYTE PTR ds:0x7469,al
    11dc:	b0 00                	mov    al,0x0
    11de:	88 06 e9 73          	mov    BYTE PTR ds:0x73e9,al
    11e2:	b0 01                	mov    al,0x1
    11e4:	e8 ed f3             	call   0x5d4
    11e7:	e8 f0 f5             	call   0x7da
    11ea:	73 13                	jae    0x11ff
    11ec:	8a 06 69 74          	mov    al,BYTE PTR ds:0x7469
    11f0:	0c 40                	or     al,0x40
    11f2:	88 06 69 74          	mov    BYTE PTR ds:0x7469,al
    11f6:	e8 dd f2             	call   0x4d6
    11f9:	e8 02 f8             	call   0x9fe
    11fc:	e9 03 00             	jmp    0x1202
    11ff:	e8 67 f3             	call   0x569
    1202:	8a 06 ea 73          	mov    al,BYTE PTR ds:0x73ea
    1206:	08 c0                	or     al,al
    1208:	79 07                	jns    0x1211
    120a:	3c ff                	cmp    al,0xff
    120c:	73 03                	jae    0x1211
    120e:	e9 8e ff             	jmp    0x119f
    1211:	e8 05 f3             	call   0x519
    1214:	e8 f9 fb             	call   0xe10
    1217:	e8 ff f2             	call   0x519
    121a:	bb 07 14             	mov    bx,0x1407
    121d:	e8 3c fb             	call   0xd5c
    1220:	e8 b3 f2             	call   0x4d6
    1223:	bb 30 14             	mov    bx,0x1430
    1226:	e8 33 fb             	call   0xd5c
    1229:	e8 d2 f7             	call   0x9fe
    122c:	e8 d6 f6             	call   0x905
    122f:	e9 6d ff             	jmp    0x119f
    1232:	61                   	popa   
    1233:	1f                   	pop    ds
    1234:	46                   	inc    si
    1235:	33 3e 08 01          	xor    di,WORD PTR ds:0x108
    1239:	ff 5e 0d             	call   DWORD PTR [bp+0xd]
    123c:	0f 03 46 0b          	lsl    ax,WORD PTR [bp+0xb]
    1240:	01 00                	add    WORD PTR [bx+si],ax
    1242:	28 56 12             	sub    BYTE PTR [bp+0x12],dl
    1245:	1d 5d 03             	sbb    ax,0x35d
    1248:	01 ff                	add    di,di
    124a:	19 32                	sbb    WORD PTR [bp+si],si
    124c:	11 3f                	adc    WORD PTR [bx],di
    124e:	3c 13                	cmp    al,0x13
    1250:	00 00                	add    BYTE PTR [bx+si],al
    1252:	ff 0b                	dec    WORD PTR [bp+di]
    1254:	1e                   	push   ds
    1255:	5e                   	pop    si
    1256:	00 5d 09             	add    BYTE PTR [di+0x9],bl
    1259:	01 ff                	add    di,di
    125b:	2f                   	das    
    125c:	01 11                	add    WORD PTR [bx+di],dx
    125e:	05 4e 10             	add    ax,0x104e
    1261:	01 00                	add    WORD PTR [bx+si],ax
    1263:	34 5b                	xor    al,0x5b
    1265:	19 36 0d 08          	sbb    WORD PTR ds:0x80d,si
    1269:	01 ff                	add    di,di
    126b:	00 00                	add    BYTE PTR [bx+si],al
    126d:	00 00                	add    BYTE PTR [bx+si],al
    126f:	00 01                	add    BYTE PTR [bx+di],al
    1271:	01 00                	add    WORD PTR [bx+si],ax
    1273:	ff 00                	inc    WORD PTR [bx+si]
    1275:	00 00                	add    BYTE PTR [bx+si],al
    1277:	00 00                	add    BYTE PTR [bx+si],al
    1279:	01 01                	add    WORD PTR [bx+di],ax
    127b:	00 43 42             	add    BYTE PTR [bp+di+0x42],al
    127e:	42                   	inc    dx
    127f:	42                   	inc    dx
    1280:	42                   	inc    dx
    1281:	10 00                	adc    BYTE PTR [bx+si],al
    1283:	ff 21                	jmp    WORD PTR [bx+di]
    1285:	21 21                	and    WORD PTR [bx+di],sp
    1287:	21 21                	and    WORD PTR [bx+di],sp
    1289:	53                   	push   bx
    128a:	ff 00                	inc    WORD PTR [bx+si]
    128c:	29 62 1a             	sub    WORD PTR [bp+si+0x1a],sp
    128f:	29 62 01             	sub    WORD PTR [bp+si+0x1],sp
    1292:	ff                   	(bad)  
    1293:	ff 17                	call   WORD PTR [bx]
    1295:	5c                   	pop    sp
    1296:	1f                   	pop    ds
    1297:	39 4b 02             	cmp    WORD PTR [bp+di+0x2],cx
    129a:	fe 00                	inc    BYTE PTR [bx+si]
    129c:	55                   	push   bp
    129d:	53                   	push   bx
    129e:	0a 34                	or     dh,BYTE PTR [si]
    12a0:	32 02                	xor    al,BYTE PTR [bp+si]
    12a2:	fd                   	std    
    12a3:	ff 24                	jmp    WORD PTR [si]
    12a5:	26 04 3b             	es add al,0x3b
    12a8:	3c 01                	cmp    al,0x1
    12aa:	fc                   	cld    
    12ab:	00 51 1f             	add    BYTE PTR [bx+di+0x1f],dl
    12ae:	25 10 2f             	and    ax,0x2f10
    12b1:	4c                   	dec    sp
    12b2:	fa                   	cli    
    12b3:	ff                   	(bad)  
    12b4:	ff 53 40             	call   WORD PTR [bp+di+0x40]
    12b7:	5f                   	pop    di
    12b8:	05 2a 24             	add    ax,0x242a
    12bb:	01 00                	add    WORD PTR [bx+si],ax
    12bd:	10 48 0d             	adc    BYTE PTR [bx+si+0xd],cl
    12c0:	58                   	pop    ax
    12c1:	45                   	inc    bp
    12c2:	47                   	inc    di
    12c3:	01 ff                	add    di,di
    12c5:	14 61                	adc    al,0x61
    12c7:	3d 20 00             	cmp    ax,0x20
    12ca:	2d 01 00             	sub    ax,0x1
    12cd:	1f                   	pop    ds
    12ce:	21 42 5d             	and    WORD PTR [bp+si+0x5d],ax
    12d1:	2d 09 01             	sub    ax,0x109
    12d4:	ff 31                	push   WORD PTR [bx+di]
    12d6:	1c 47                	sbb    al,0x47
    12d8:	1c 4b                	sbb    al,0x4b
    12da:	24 00                	and    al,0x0
    12dc:	00 ff                	add    bh,bh
    12de:	52                   	push   dx
    12df:	40                   	inc    ax
    12e0:	5f                   	pop    di
    12e1:	05 2a 24             	add    ax,0x242a
    12e4:	01 00                	add    WORD PTR [bx+si],ax
    12e6:	04 63                	add    al,0x63
    12e8:	0c 59                	or     al,0x59
    12ea:	4c                   	dec    sp
    12eb:	4d                   	dec    bp
    12ec:	01 ff                	add    di,di
    12ee:	63 37                	arpl   WORD PTR [bx],si
    12f0:	02 20                	add    ah,BYTE PTR [bx+si]
    12f2:	17                   	pop    ss
    12f3:	37                   	aaa    
    12f4:	01 00                	add    WORD PTR [bx+si],ax
    12f6:	57                   	push   di
    12f7:	27                   	daa    
    12f8:	2f                   	das    
    12f9:	51                   	push   cx
    12fa:	2d 0e 01             	sub    ax,0x10e
    12fd:	ff 00                	inc    WORD PTR [bx+si]
    12ff:	00 00                	add    BYTE PTR [bx+si],al
    1301:	00 00                	add    BYTE PTR [bx+si],al
    1303:	01 01                	add    WORD PTR [bx+di],ax
    1305:	00 ff                	add    bh,bh
    1307:	58                   	pop    ax
    1308:	08 56 2c             	or     BYTE PTR [bp+0x2c],dl
    130b:	50                   	push   ax
    130c:	4a                   	dec    dx
    130d:	01 00                	add    WORD PTR [bx+si],ax
    130f:	5f                   	pop    di
    1310:	17                   	pop    ss
    1311:	55                   	push   bp
    1312:	54                   	push   sp
    1313:	12 01                	adc    al,BYTE PTR [bx+di]
    1315:	02 00                	add    al,BYTE PTR [bx+si]
    1317:	38 1f                	cmp    BYTE PTR [bx],bl
    1319:	43                   	inc    bx
    131a:	13 31                	adc    si,WORD PTR [bx+di]
    131c:	37                   	aaa    
    131d:	01 00                	add    WORD PTR [bx+si],ax
    131f:	52                   	push   dx
    1320:	3f                   	aas    
    1321:	32 36 37 07          	xor    dh,BYTE PTR ds:0x737
    1325:	01 00                	add    WORD PTR [bx+si],ax
    1327:	35 20 3a             	xor    ax,0x3a20
    132a:	56                   	push   si
    132b:	59                   	pop    cx
    132c:	0d 00 00             	or     ax,0x0
    132f:	ff 5a 08             	call   DWORD PTR [bp+si+0x8]
    1332:	56                   	push   si
    1333:	2c 50                	sub    al,0x50
    1335:	4a                   	dec    dx
    1336:	01 00                	add    WORD PTR [bx+si],ax
    1338:	3e 34 21             	ds xor al,0x21
    133b:	4e                   	dec    si
    133c:	2b 01                	sub    ax,WORD PTR [bx+di]
    133e:	02 00                	add    al,BYTE PTR [bx+si]
    1340:	41                   	inc    cx
    1341:	23 37                	and    si,WORD PTR [bx]
    1343:	58                   	pop    ax
    1344:	2d 58 01             	sub    ax,0x158
    1347:	00 05                	add    BYTE PTR [di],al
    1349:	16                   	push   ss
    134a:	05 0e 61             	add    ax,0x610e
    134d:	12 01                	adc    al,BYTE PTR [bx+di]
    134f:	00 00                	add    BYTE PTR [bx+si],al
    1351:	00 00                	add    BYTE PTR [bx+si],al
    1353:	00 00                	add    BYTE PTR [bx+si],al
    1355:	01 01                	add    WORD PTR [bx+di],ax
    1357:	00 ff                	add    bh,bh
    1359:	e8 b3 f1             	call   0x50f
    135c:	b0 73                	mov    al,0x73
    135e:	88 06 e6 73          	mov    BYTE PTR ds:0x73e6,al
    1362:	c3                   	ret    
    1363:	e8 a9 f1             	call   0x50f
    1366:	b0 74                	mov    al,0x74
    1368:	88 06 e6 73          	mov    BYTE PTR ds:0x73e6,al
    136c:	c3                   	ret    
    136d:	e8 7a f8             	call   0xbea
    1370:	8a 06 e6 73          	mov    al,BYTE PTR ds:0x73e6
    1374:	3c 73                	cmp    al,0x73
    1376:	75 05                	jne    0x137d
    1378:	b0 74                	mov    al,0x74
    137a:	e9 02 00             	jmp    0x137f
    137d:	b0 73                	mov    al,0x73
    137f:	88 06 e6 73          	mov    BYTE PTR ds:0x73e6,al
    1383:	08 c0                	or     al,al
    1385:	c3                   	ret    
    1386:	e8 d0 f8             	call   0xc59
    1389:	8a 06 e6 73          	mov    al,BYTE PTR ds:0x73e6
    138d:	3c 73                	cmp    al,0x73
    138f:	74 04                	je     0x1395
    1391:	8a 06 f0 73          	mov    al,BYTE PTR ds:0x73f0
    1395:	9f                   	lahf   
    1396:	86 e0                	xchg   al,ah
    1398:	50                   	push   ax
    1399:	86 e0                	xchg   al,ah
    139b:	e8 cb f1             	call   0x569
    139e:	58                   	pop    ax
    139f:	86 e0                	xchg   al,ah
    13a1:	9e                   	sahf   
    13a2:	88 06 e6 73          	mov    BYTE PTR ds:0x73e6,al
    13a6:	08 c0                	or     al,al
    13a8:	c3                   	ret    
    13a9:	e8 ad f8             	call   0xc59
    13ac:	8a 06 e6 73          	mov    al,BYTE PTR ds:0x73e6
    13b0:	3c 74                	cmp    al,0x74
    13b2:	74 04                	je     0x13b8
    13b4:	8a 06 f0 73          	mov    al,BYTE PTR ds:0x73f0
    13b8:	9f                   	lahf   
    13b9:	86 e0                	xchg   al,ah
    13bb:	50                   	push   ax
    13bc:	86 e0                	xchg   al,ah
    13be:	e8 a8 f1             	call   0x569
    13c1:	58                   	pop    ax
    13c2:	86 e0                	xchg   al,ah
    13c4:	9e                   	sahf   
    13c5:	88 06 e6 73          	mov    BYTE PTR ds:0x73e6,al
    13c9:	08 c0                	or     al,al
    13cb:	c3                   	ret    
    13cc:	e8 0b f4             	call   0x7da
    13cf:	9f                   	lahf   
    13d0:	86 e0                	xchg   al,ah
    13d2:	50                   	push   ax
    13d3:	86 e0                	xchg   al,ah
    13d5:	e8 91 f1             	call   0x569
    13d8:	58                   	pop    ax
    13d9:	86 e0                	xchg   al,ah
    13db:	9e                   	sahf   
    13dc:	c3                   	ret    
    13dd:	e8 db f7             	call   0xbbb
    13e0:	73 01                	jae    0x13e3
    13e2:	c3                   	ret    
    13e3:	8a 06 e6 73          	mov    al,BYTE PTR ds:0x73e6
    13e7:	e8 c3 f8             	call   0xcad
    13ea:	73 12                	jae    0x13fe
    13ec:	8a 06 f0 73          	mov    al,BYTE PTR ds:0x73f0
    13f0:	e8 ba f8             	call   0xcad
    13f3:	73 09                	jae    0x13fe
    13f5:	e8 11 f8             	call   0xc09
    13f8:	e8 d1 ff             	call   0x13cc
    13fb:	e9 19 00             	jmp    0x1417
    13fe:	e8 58 f8             	call   0xc59
    1401:	8a 06 e6 73          	mov    al,BYTE PTR ds:0x73e6
    1405:	bb f0 73             	mov    bx,0x73f0
    1408:	3a 07                	cmp    al,BYTE PTR [bx]
    140a:	9f                   	lahf   
    140b:	86 e0                	xchg   al,ah
    140d:	50                   	push   ax
    140e:	86 e0                	xchg   al,ah
    1410:	e8 56 f1             	call   0x569
    1413:	58                   	pop    ax
    1414:	86 e0                	xchg   al,ah
    1416:	9e                   	sahf   
    1417:	75 06                	jne    0x141f
    1419:	e8 40 ff             	call   0x135c
    141c:	e9 03 00             	jmp    0x1422
    141f:	e8 44 ff             	call   0x1366
    1422:	08 c0                	or     al,al
    1424:	c3                   	ret    
    1425:	e8 b5 ff             	call   0x13dd
    1428:	72 03                	jb     0x142d
    142a:	e8 40 ff             	call   0x136d
    142d:	c3                   	ret    
    142e:	e8 d8 f7             	call   0xc09
    1431:	e8 98 ff             	call   0x13cc
    1434:	73 06                	jae    0x143c
    1436:	e8 23 ff             	call   0x135c
    1439:	e9 03 00             	jmp    0x143f
    143c:	e8 27 ff             	call   0x1366
    143f:	08 c0                	or     al,al
    1441:	c3                   	ret    
    1442:	e8 e9 ff             	call   0x142e
    1445:	72 03                	jb     0x144a
    1447:	e8 23 ff             	call   0x136d
    144a:	c3                   	ret    
    144b:	e8 bb f7             	call   0xc09
    144e:	e8 7b ff             	call   0x13cc
    1451:	76 06                	jbe    0x1459
    1453:	e8 06 ff             	call   0x135c
    1456:	e9 03 00             	jmp    0x145c
    1459:	e8 0a ff             	call   0x1366
    145c:	08 c0                	or     al,al
    145e:	c3                   	ret    
    145f:	e8 e9 ff             	call   0x144b
    1462:	72 03                	jb     0x1467
    1464:	e8 06 ff             	call   0x136d
    1467:	c3                   	ret    
    1468:	e8 50 f7             	call   0xbbb
    146b:	73 01                	jae    0x146e
    146d:	c3                   	ret    
    146e:	8a 06 e6 73          	mov    al,BYTE PTR ds:0x73e6
    1472:	3c 71                	cmp    al,0x71
    1474:	75 06                	jne    0x147c
    1476:	e8 e3 fe             	call   0x135c
    1479:	e9 03 00             	jmp    0x147f
    147c:	e8 e7 fe             	call   0x1366
    147f:	08 c0                	or     al,al
    1481:	c3                   	ret    
    1482:	e8 36 f7             	call   0xbbb
    1485:	73 01                	jae    0x1488
    1487:	c3                   	ret    
    1488:	8a 06 e6 73          	mov    al,BYTE PTR ds:0x73e6
    148c:	3c 72                	cmp    al,0x72
    148e:	75 06                	jne    0x1496
    1490:	e8 c9 fe             	call   0x135c
    1493:	e9 03 00             	jmp    0x1499
    1496:	e8 cd fe             	call   0x1366
    1499:	08 c0                	or     al,al
    149b:	c3                   	ret    
    149c:	3c 00                	cmp    al,0x0
    149e:	75 04                	jne    0x14a4
    14a0:	80 65 c1 7f          	and    BYTE PTR [di-0x3f],0x7f
    14a4:	e8 72 00             	call   0x1519
    14a7:	80 65 b3 7f          	and    BYTE PTR [di-0x4d],0x7f
    14ab:	80 65 c0 7f          	and    BYTE PTR [di-0x40],0x7f
    14af:	80 65 c1 7f          	and    BYTE PTR [di-0x3f],0x7f
    14b3:	80 65 c5 7f          	and    BYTE PTR [di-0x3b],0x7f
    14b7:	8a 2f                	mov    ch,BYTE PTR [bx]
    14b9:	43                   	inc    bx
    14ba:	8a 0f                	mov    cl,BYTE PTR [bx]
    14bc:	43                   	inc    bx
    14bd:	8a 37                	mov    dh,BYTE PTR [bx]
    14bf:	f6 c5 80             	test   ch,0x80
    14c2:	74 06                	je     0x14ca
    14c4:	e8 7e 42             	call   0x5745
    14c7:	e9 02 00             	jmp    0x14cc
    14ca:	8a c1                	mov    al,cl
    14cc:	88 45 c4             	mov    BYTE PTR [di-0x3c],al
    14cf:	88 45 be             	mov    BYTE PTR [di-0x42],al
    14d2:	f6 c5 40             	test   ch,0x40
    14d5:	74 35                	je     0x150c
    14d7:	80 4d c1 80          	or     BYTE PTR [di-0x3f],0x80
    14db:	f6 c5 20             	test   ch,0x20
    14de:	74 04                	je     0x14e4
    14e0:	80 4d c0 80          	or     BYTE PTR [di-0x40],0x80
    14e4:	f6 c5 10             	test   ch,0x10
    14e7:	74 04                	je     0x14ed
    14e9:	80 4d b3 80          	or     BYTE PTR [di-0x4d],0x80
    14ed:	f6 c5 08             	test   ch,0x8
    14f0:	74 0a                	je     0x14fc
    14f2:	80 4d c5 80          	or     BYTE PTR [di-0x3b],0x80
    14f6:	f6 c5 10             	test   ch,0x10
    14f9:	74 01                	je     0x14fc
    14fb:	c3                   	ret    
    14fc:	8a 45 c5             	mov    al,BYTE PTR [di-0x3b]
    14ff:	22 45 c1             	and    al,BYTE PTR [di-0x3f]
    1502:	88 45 c1             	mov    BYTE PTR [di-0x3f],al
    1505:	c6 45 bf 00          	mov    BYTE PTR [di-0x41],0x0
    1509:	88 75 c3             	mov    BYTE PTR [di-0x3d],dh
    150c:	bb 04 6e             	mov    bx,0x6e04
    150f:	89 5d bc             	mov    WORD PTR [di-0x44],bx
    1512:	8a 45 c4             	mov    al,BYTE PTR [di-0x3c]
    1515:	88 45 be             	mov    BYTE PTR [di-0x42],al
    1518:	c3                   	ret    
    1519:	9f                   	lahf   
    151a:	86 e0                	xchg   al,ah
    151c:	50                   	push   ax
    151d:	86 e0                	xchg   al,ah
    151f:	e8 41 01             	call   0x1663
    1522:	58                   	pop    ax
    1523:	86 e0                	xchg   al,ah
    1525:	9e                   	sahf   
    1526:	88 45 bb             	mov    BYTE PTR [di-0x45],al
    1529:	b5 00                	mov    ch,0x0
    152b:	8a c8                	mov    cl,al
    152d:	bb 74 16             	mov    bx,0x1674
    1530:	01 cb                	add    bx,cx
    1532:	8a 0f                	mov    cl,BYTE PTR [bx]
    1534:	43                   	inc    bx
    1535:	8a 2f                	mov    ch,BYTE PTR [bx]
    1537:	43                   	inc    bx
    1538:	89 0e 96 72          	mov    WORD PTR ds:0x7296,cx
    153c:	8a 2f                	mov    ch,BYTE PTR [bx]
    153e:	f6 c5 10             	test   ch,0x10
    1541:	75 07                	jne    0x154a
    1543:	80 65 b3 7f          	and    BYTE PTR [di-0x4d],0x7f
    1547:	e9 04 00             	jmp    0x154e
    154a:	80 4d b3 80          	or     BYTE PTR [di-0x4d],0x80
    154e:	c3                   	ret    
    154f:	9f                   	lahf   
    1550:	86 e0                	xchg   al,ah
    1552:	50                   	push   ax
    1553:	86 e0                	xchg   al,ah
    1555:	51                   	push   cx
    1556:	52                   	push   dx
    1557:	53                   	push   bx
    1558:	8b 1e 96 72          	mov    bx,WORD PTR ds:0x7296
    155c:	e8 13 00             	call   0x1572
    155f:	5b                   	pop    bx
    1560:	5a                   	pop    dx
    1561:	59                   	pop    cx
    1562:	73 08                	jae    0x156c
    1564:	58                   	pop    ax
    1565:	86 e0                	xchg   al,ah
    1567:	9e                   	sahf   
    1568:	f9                   	stc    
    1569:	e9 05 00             	jmp    0x1571
    156c:	58                   	pop    ax
    156d:	86 e0                	xchg   al,ah
    156f:	9e                   	sahf   
    1570:	f8                   	clc    
    1571:	c3                   	ret    
    1572:	ff e3                	jmp    bx
    1574:	38 58 00             	cmp    BYTE PTR [bx+si+0x0],bl
    1577:	00 00                	add    BYTE PTR [bx+si],al
    1579:	08 17                	or     BYTE PTR [bx],dl
    157b:	68 4e 00             	push   0x4e
    157e:	13 18                	adc    bx,WORD PTR [bx+si]
    1580:	00 00                	add    BYTE PTR [bx+si],al
    1582:	00 08                	add    BYTE PTR [bx+si],cl
    1584:	17                   	pop    ss
    1585:	d8 00                	fadd   DWORD PTR [bx+si]
    1587:	ff 25                	jmp    WORD PTR [di]
    1589:	19 00                	sbb    WORD PTR [bx+si],ax
    158b:	00 00                	add    BYTE PTR [bx+si],al
    158d:	86 29                	xchg   BYTE PTR [bx+di],ch
    158f:	00 00                	add    BYTE PTR [bx+si],al
    1591:	00 fc                	add    ah,bh
    1593:	16                   	push   ss
    1594:	d0 00                	rol    BYTE PTR [bx+si],1
    1596:	00 08                	add    BYTE PTR [bx+si],cl
    1598:	17                   	pop    ss
    1599:	68 4e 01             	push   0x14e
    159c:	5b                   	pop    bx
    159d:	8a 07                	mov    al,BYTE PTR [bx]
    159f:	43                   	inc    bx
    15a0:	08 c0                	or     al,al
    15a2:	79 02                	jns    0x15a6
    15a4:	ff e3                	jmp    bx
    15a6:	e8 a6 ff             	call   0x154f
    15a9:	e9 f1 ff             	jmp    0x159d
    15ac:	8a 07                	mov    al,BYTE PTR [bx]
    15ae:	08 c0                	or     al,al
    15b0:	79 01                	jns    0x15b3
    15b2:	c3                   	ret    
    15b3:	e8 99 ff             	call   0x154f
    15b6:	43                   	inc    bx
    15b7:	e9 f2 ff             	jmp    0x15ac
    15ba:	0c 30                	or     al,0x30
    15bc:	e9 90 ff             	jmp    0x154f
    15bf:	9f                   	lahf   
    15c0:	86 e0                	xchg   al,ah
    15c2:	50                   	push   ax
    15c3:	86 e0                	xchg   al,ah
    15c5:	e8 7d 41             	call   0x5745
    15c8:	8a e8                	mov    ch,al
    15ca:	58                   	pop    ax
    15cb:	86 e0                	xchg   al,ah
    15cd:	9e                   	sahf   
    15ce:	e9 0b 00             	jmp    0x15dc
    15d1:	8a e8                	mov    ch,al
    15d3:	e8 6f 41             	call   0x5745
    15d6:	28 e8                	sub    al,ch
    15d8:	8a e8                	mov    ch,al
    15da:	b0 20                	mov    al,0x20
    15dc:	fe cd                	dec    ch
    15de:	79 01                	jns    0x15e1
    15e0:	c3                   	ret    
    15e1:	e8 6b ff             	call   0x154f
    15e4:	e9 f5 ff             	jmp    0x15dc
    15e7:	8a 45 bb             	mov    al,BYTE PTR [di-0x45]
    15ea:	3c 0a                	cmp    al,0xa
    15ec:	75 03                	jne    0x15f1
    15ee:	e9 cf 01             	jmp    0x17c0
    15f1:	3c 14                	cmp    al,0x14
    15f3:	75 03                	jne    0x15f8
    15f5:	e9 4a 02             	jmp    0x1842
    15f8:	e8 3f 41             	call   0x573a
    15fb:	c3                   	ret    
    15fc:	3c 0d                	cmp    al,0xd
    15fe:	75 08                	jne    0x1608
    1600:	e8 60 00             	call   0x1663
    1603:	b0 0d                	mov    al,0xd
    1605:	e9 7e 12             	jmp    0x2886
    1608:	9f                   	lahf   
    1609:	86 e0                	xchg   al,ah
    160b:	50                   	push   ax
    160c:	86 e0                	xchg   al,ah
    160e:	e8 a6 00             	call   0x16b7
    1611:	8a 45 be             	mov    al,BYTE PTR [di-0x42]
    1614:	08 c0                	or     al,al
    1616:	75 06                	jne    0x161e
    1618:	58                   	pop    ax
    1619:	86 e0                	xchg   al,ah
    161b:	9e                   	sahf   
    161c:	f9                   	stc    
    161d:	c3                   	ret    
    161e:	fe c8                	dec    al
    1620:	88 45 be             	mov    BYTE PTR [di-0x42],al
    1623:	8b 5d bc             	mov    bx,WORD PTR [di-0x44]
    1626:	58                   	pop    ax
    1627:	86 e0                	xchg   al,ah
    1629:	9e                   	sahf   
    162a:	88 07                	mov    BYTE PTR [bx],al
    162c:	43                   	inc    bx
    162d:	89 5d bc             	mov    WORD PTR [di-0x44],bx
    1630:	f8                   	clc    
    1631:	c3                   	ret    
    1632:	8a 45 c4             	mov    al,BYTE PTR [di-0x3c]
    1635:	2a 45 be             	sub    al,BYTE PTR [di-0x42]
    1638:	8a e8                	mov    ch,al
    163a:	bb 04 6e             	mov    bx,0x6e04
    163d:	fe cd                	dec    ch
    163f:	78 08                	js     0x1649
    1641:	8a 07                	mov    al,BYTE PTR [bx]
    1643:	e8 15 00             	call   0x165b
    1646:	43                   	inc    bx
    1647:	73 f4                	jae    0x163d
    1649:	72 0f                	jb     0x165a
    164b:	8a 6d be             	mov    ch,BYTE PTR [di-0x42]
    164e:	fe cd                	dec    ch
    1650:	79 01                	jns    0x1653
    1652:	c3                   	ret    
    1653:	b0 20                	mov    al,0x20
    1655:	e8 03 00             	call   0x165b
    1658:	73 f4                	jae    0x164e
    165a:	c3                   	ret    
    165b:	53                   	push   bx
    165c:	51                   	push   cx
    165d:	e8 26 12             	call   0x2886
    1660:	59                   	pop    cx
    1661:	5b                   	pop    bx
    1662:	c3                   	ret    
    1663:	f6 45 c1 80          	test   BYTE PTR [di-0x3f],0x80
    1667:	75 01                	jne    0x166a
    1669:	c3                   	ret    
    166a:	80 65 c1 7f          	and    BYTE PTR [di-0x3f],0x7f
    166e:	f6 45 c5 80          	test   BYTE PTR [di-0x3b],0x80
    1672:	75 03                	jne    0x1677
    1674:	e9 bb ff             	jmp    0x1632
    1677:	8a 45 c3             	mov    al,BYTE PTR [di-0x3d]
    167a:	3c ff                	cmp    al,0xff
    167c:	75 01                	jne    0x167f
    167e:	c3                   	ret    
    167f:	8a 7d c3             	mov    bh,BYTE PTR [di-0x3d]
    1682:	8a 5d bf             	mov    bl,BYTE PTR [di-0x41]
    1685:	e8 d1 51             	call   0x6859
    1688:	bb 04 6e             	mov    bx,0x6e04
    168b:	8a 45 c4             	mov    al,BYTE PTR [di-0x3c]
    168e:	2a 45 be             	sub    al,BYTE PTR [di-0x42]
    1691:	f6 45 c0 80          	test   BYTE PTR [di-0x40],0x80
    1695:	74 06                	je     0x169d
    1697:	e8 c5 52             	call   0x695f
    169a:	e9 03 00             	jmp    0x16a0
    169d:	e8 ba 52             	call   0x695a
    16a0:	8a 45 be             	mov    al,BYTE PTR [di-0x42]
    16a3:	f6 45 c0 80          	test   BYTE PTR [di-0x40],0x80
    16a7:	74 06                	je     0x16af
    16a9:	e8 fd 52             	call   0x69a9
    16ac:	e9 03 00             	jmp    0x16b2
    16af:	e8 e6 52             	call   0x6998
    16b2:	c3                   	ret    
    16b3:	80 4d c0 80          	or     BYTE PTR [di-0x40],0x80
    16b7:	80 4d c1 80          	or     BYTE PTR [di-0x3f],0x80
    16bb:	c3                   	ret    
    16bc:	80 65 c0 7f          	and    BYTE PTR [di-0x40],0x7f
    16c0:	e9 f4 ff             	jmp    0x16b7
    16c3:	b7 02                	mov    bh,0x2
    16c5:	9f                   	lahf   
    16c6:	86 e0                	xchg   al,ah
    16c8:	50                   	push   ax
    16c9:	86 e0                	xchg   al,ah
    16cb:	51                   	push   cx
    16cc:	52                   	push   dx
    16cd:	53                   	push   bx
    16ce:	e8 33 52             	call   0x6904
    16d1:	5b                   	pop    bx
    16d2:	5a                   	pop    dx
    16d3:	59                   	pop    cx
    16d4:	58                   	pop    ax
    16d5:	86 e0                	xchg   al,ah
    16d7:	9e                   	sahf   
    16d8:	c3                   	ret    
    16d9:	b7 01                	mov    bh,0x1
    16db:	9f                   	lahf   
    16dc:	86 e0                	xchg   al,ah
    16de:	50                   	push   ax
    16df:	86 e0                	xchg   al,ah
    16e1:	51                   	push   cx
    16e2:	52                   	push   dx
    16e3:	53                   	push   bx
    16e4:	e8 1d 52             	call   0x6904
    16e7:	5b                   	pop    bx
    16e8:	5a                   	pop    dx
    16e9:	59                   	pop    cx
    16ea:	58                   	pop    ax
    16eb:	86 e0                	xchg   al,ah
    16ed:	9e                   	sahf   
    16ee:	c3                   	ret    
    16ef:	51                   	push   cx
    16f0:	8a e8                	mov    ch,al
    16f2:	b0 7d                	mov    al,0x7d
    16f4:	2a 45 b6             	sub    al,BYTE PTR [di-0x4a]
    16f7:	8a c8                	mov    cl,al
    16f9:	e8 49 40             	call   0x5745
    16fc:	38 c8                	cmp    al,cl
    16fe:	76 11                	jbe    0x1711
    1700:	53                   	push   bx
    1701:	8a c1                	mov    al,cl
    1703:	02 45 bf             	add    al,BYTE PTR [di-0x41]
    1706:	8a d8                	mov    bl,al
    1708:	8a 7d c3             	mov    bh,BYTE PTR [di-0x3d]
    170b:	8a c5                	mov    al,ch
    170d:	e8 08 52             	call   0x6918
    1710:	5b                   	pop    bx
    1711:	59                   	pop    cx
    1712:	c3                   	ret    
    1713:	9f                   	lahf   
    1714:	86 e0                	xchg   al,ah
    1716:	50                   	push   ax
    1717:	86 e0                	xchg   al,ah
    1719:	8b 5d b4             	mov    bx,WORD PTR [di-0x4c]
    171c:	8a 45 ba             	mov    al,BYTE PTR [di-0x46]
    171f:	08 c0                	or     al,al
    1721:	3c ff                	cmp    al,0xff
    1723:	74 17                	je     0x173c
    1725:	3c 7d                	cmp    al,0x7d
    1727:	72 03                	jb     0x172c
    1729:	e8 37 ed             	call   0x463
    172c:	8a 4d ba             	mov    cl,BYTE PTR [di-0x46]
    172f:	b5 00                	mov    ch,0x0
    1731:	bb 87 6d             	mov    bx,0x6d87
    1734:	01 cb                	add    bx,cx
    1736:	fe 45 ba             	inc    BYTE PTR [di-0x46]
    1739:	e9 13 00             	jmp    0x174f
    173c:	8a 45 b6             	mov    al,BYTE PTR [di-0x4a]
    173f:	08 c0                	or     al,al
    1741:	75 0c                	jne    0x174f
    1743:	f6 45 b9 80          	test   BYTE PTR [di-0x47],0x80
    1747:	75 06                	jne    0x174f
    1749:	58                   	pop    ax
    174a:	86 e0                	xchg   al,ah
    174c:	9e                   	sahf   
    174d:	f9                   	stc    
    174e:	c3                   	ret    
    174f:	58                   	pop    ax
    1750:	86 e0                	xchg   al,ah
    1752:	9e                   	sahf   
    1753:	88 07                	mov    BYTE PTR [bx],al
    1755:	8b 5d b4             	mov    bx,WORD PTR [di-0x4c]
    1758:	43                   	inc    bx
    1759:	89 5d b4             	mov    WORD PTR [di-0x4c],bx
    175c:	fe 4d b6             	dec    BYTE PTR [di-0x4a]
    175f:	f8                   	clc    
    1760:	8a 45 b8             	mov    al,BYTE PTR [di-0x48]
    1763:	34 ff                	xor    al,0xff
    1765:	88 45 ab             	mov    BYTE PTR [di-0x55],al
    1768:	c3                   	ret    
    1769:	80 65 ab 7f          	and    BYTE PTR [di-0x55],0x7f
    176d:	bb ff ff             	mov    bx,0xffff
    1770:	89 1e ac 73          	mov    WORD PTR ds:0x73ac,bx
    1774:	b0 0a                	mov    al,0xa
    1776:	e8 23 fd             	call   0x149c
    1779:	80 65 b8 7f          	and    BYTE PTR [di-0x48],0x7f
    177d:	80 65 b9 7f          	and    BYTE PTR [di-0x47],0x7f
    1781:	80 65 b7 7f          	and    BYTE PTR [di-0x49],0x7f
    1785:	c6 45 88 00          	mov    BYTE PTR [di-0x78],0x0
    1789:	bb 87 6d             	mov    bx,0x6d87
    178c:	89 5d b4             	mov    WORD PTR [di-0x4c],bx
    178f:	b5 7d                	mov    ch,0x7d
    1791:	88 6d b6             	mov    BYTE PTR [di-0x4a],ch
    1794:	c6 45 ba ff          	mov    BYTE PTR [di-0x46],0xff
    1798:	c3                   	ret    
    1799:	e8 cd ff             	call   0x1769
    179c:	e9 c1 ff             	jmp    0x1760
    179f:	8a 45 bb             	mov    al,BYTE PTR [di-0x45]
    17a2:	3c 0a                	cmp    al,0xa
    17a4:	74 03                	je     0x17a9
    17a6:	e8 91 3f             	call   0x573a
    17a9:	8a c3                	mov    al,bl
    17ab:	3a 45 b4             	cmp    al,BYTE PTR [di-0x4c]
    17ae:	75 08                	jne    0x17b8
    17b0:	8a c7                	mov    al,bh
    17b2:	3a 45 b5             	cmp    al,BYTE PTR [di-0x4b]
    17b5:	75 01                	jne    0x17b8
    17b7:	c3                   	ret    
    17b8:	53                   	push   bx
    17b9:	e8 04 00             	call   0x17c0
    17bc:	5b                   	pop    bx
    17bd:	73 ea                	jae    0x17a9
    17bf:	c3                   	ret    
    17c0:	8a 45 b6             	mov    al,BYTE PTR [di-0x4a]
    17c3:	3c 7d                	cmp    al,0x7d
    17c5:	74 14                	je     0x17db
    17c7:	8b 5d b4             	mov    bx,WORD PTR [di-0x4c]
    17ca:	08 c0                	or     al,al
    17cc:	74 04                	je     0x17d2
    17ce:	b0 20                	mov    al,0x20
    17d0:	88 07                	mov    BYTE PTR [bx],al
    17d2:	4b                   	dec    bx
    17d3:	89 5d b4             	mov    WORD PTR [di-0x4c],bx
    17d6:	fe 45 b6             	inc    BYTE PTR [di-0x4a]
    17d9:	f8                   	clc    
    17da:	c3                   	ret    
    17db:	f9                   	stc    
    17dc:	c3                   	ret    
    17dd:	e8 bc fc             	call   0x149c
    17e0:	e8 d4 fe             	call   0x16b7
    17e3:	e9 26 fd             	jmp    0x150c
    17e6:	e8 2d 40             	call   0x5816
    17e9:	72 0b                	jb     0x17f6
    17eb:	b0 0f                	mov    al,0xf
    17ed:	e8 ed ff             	call   0x17dd
    17f0:	e8 c0 fe             	call   0x16b3
    17f3:	e8 6d fe             	call   0x1663
    17f6:	c3                   	ret    
    17f7:	e8 0e 40             	call   0x5808
    17fa:	73 01                	jae    0x17fd
    17fc:	c3                   	ret    
    17fd:	8b 5c 28             	mov    bx,WORD PTR [si+0x28]
    1800:	89 5c 06             	mov    WORD PTR [si+0x6],bx
    1803:	8a 45 bb             	mov    al,BYTE PTR [di-0x45]
    1806:	9f                   	lahf   
    1807:	86 e0                	xchg   al,ah
    1809:	50                   	push   ax
    180a:	86 e0                	xchg   al,ah
    180c:	e8 51 40             	call   0x5860
    180f:	72 0b                	jb     0x181c
    1811:	b0 0f                	mov    al,0xf
    1813:	e8 86 fc             	call   0x149c
    1816:	e8 9a fe             	call   0x16b3
    1819:	e8 2b 12             	call   0x2a47
    181c:	58                   	pop    ax
    181d:	86 e0                	xchg   al,ah
    181f:	9e                   	sahf   
    1820:	e8 f6 fc             	call   0x1519
    1823:	f8                   	clc    
    1824:	c3                   	ret    
    1825:	9f                   	lahf   
    1826:	86 e0                	xchg   al,ah
    1828:	50                   	push   ax
    1829:	86 e0                	xchg   al,ah
    182b:	e8 c1 fe             	call   0x16ef
    182e:	58                   	pop    ax
    182f:	86 e0                	xchg   al,ah
    1831:	9e                   	sahf   
    1832:	e9 de fe             	jmp    0x1713
    1835:	b0 20                	mov    al,0x20
    1837:	fe 45 b6             	inc    BYTE PTR [di-0x4a]
    183a:	e8 b2 fe             	call   0x16ef
    183d:	fe 4d b6             	dec    BYTE PTR [di-0x4a]
    1840:	f8                   	clc    
    1841:	c3                   	ret    
    1842:	e8 f0 ff             	call   0x1835
    1845:	e8 78 ff             	call   0x17c0
    1848:	c3                   	ret    
    1849:	e8 70 ec             	call   0x4bc
    184c:	72 06                	jb     0x1854
    184e:	bb 39 1a             	mov    bx,0x1a39
    1851:	e8 bb e8             	call   0x10f
    1854:	b0 00                	mov    al,0x0
    1856:	88 06 6c 74          	mov    BYTE PTR ds:0x746c,al
    185a:	e8 27 00             	call   0x1884
    185d:	9f                   	lahf   
    185e:	86 e0                	xchg   al,ah
    1860:	50                   	push   ax
    1861:	86 e0                	xchg   al,ah
    1863:	b0 00                	mov    al,0x0
    1865:	88 06 a3 73          	mov    BYTE PTR ds:0x73a3,al
    1869:	8a 06 6c 74          	mov    al,BYTE PTR ds:0x746c
    186d:	08 c0                	or     al,al
    186f:	79 0e                	jns    0x187f
    1871:	58                   	pop    ax
    1872:	86 e0                	xchg   al,ah
    1874:	9e                   	sahf   
    1875:	b0 00                	mov    al,0x0
    1877:	e8 22 fc             	call   0x149c
    187a:	b0 00                	mov    al,0x0
    187c:	e9 04 19             	jmp    0x3183
    187f:	58                   	pop    ax
    1880:	86 e0                	xchg   al,ah
    1882:	9e                   	sahf   
    1883:	c3                   	ret    
    1884:	89 26 6a 74          	mov    WORD PTR ds:0x746a,sp
    1888:	b0 0a                	mov    al,0xa
    188a:	e8 0f fc             	call   0x149c
    188d:	e8 09 ff             	call   0x1799
    1890:	e8 c3 00             	call   0x1956
    1893:	80 26 6e 74 7f       	and    BYTE PTR ds:0x746e,0x7f
    1898:	80 65 d2 7f          	and    BYTE PTR [di-0x2e],0x7f
    189c:	e8 6d 05             	call   0x1e0c
    189f:	74 39                	je     0x18da
    18a1:	8a 07                	mov    al,BYTE PTR [bx]
    18a3:	f6 c0 80             	test   al,0x80
    18a6:	74 2e                	je     0x18d6
    18a8:	3c f0                	cmp    al,0xf0
    18aa:	75 06                	jne    0x18b2
    18ac:	e8 1e 04             	call   0x1ccd
    18af:	e9 68 00             	jmp    0x191a
    18b2:	3c e9                	cmp    al,0xe9
    18b4:	74 20                	je     0x18d6
    18b6:	f6 c0 40             	test   al,0x40
    18b9:	74 1b                	je     0x18d6
    18bb:	8a e8                	mov    ch,al
    18bd:	24 e0                	and    al,0xe0
    18bf:	3c c0                	cmp    al,0xc0
    18c1:	75 17                	jne    0x18da
    18c3:	8a c5                	mov    al,ch
    18c5:	24 1f                	and    al,0x1f
    18c7:	b5 00                	mov    ch,0x0
    18c9:	8a c8                	mov    cl,al
    18cb:	bb 9a 4d             	mov    bx,0x4d9a
    18ce:	01 cb                	add    bx,cx
    18d0:	8a 07                	mov    al,BYTE PTR [bx]
    18d2:	24 80                	and    al,0x80
    18d4:	75 04                	jne    0x18da
    18d6:	80 4d d2 80          	or     BYTE PTR [di-0x2e],0x80
    18da:	bb d7 49             	mov    bx,0x49d7
    18dd:	e8 27 2e             	call   0x4707
    18e0:	e8 bc 03             	call   0x1c9f
    18e3:	f6 45 d2 80          	test   BYTE PTR [di-0x2e],0x80
    18e7:	74 0e                	je     0x18f7
    18e9:	e8 f2 3c             	call   0x55de
    18ec:	80 e3 1a             	and    bl,0x1a
    18ef:	0d e6 1a             	or     ax,0x1ae6
    18f2:	fd                   	std    
    18f3:	3b e3                	cmp    sp,bx
    18f5:	1a ff                	sbb    bh,bh
    18f7:	e8 64 e8             	call   0x15e
    18fa:	3c 1b                	cmp    al,0x1b
    18fc:	75 0e                	jne    0x190c
    18fe:	e8 49 e8             	call   0x14a
    1901:	e8 c9 03             	call   0x1ccd
    1904:	73 03                	jae    0x1909
    1906:	e9 60 fe             	jmp    0x1769
    1909:	e9 87 ff             	jmp    0x1893
    190c:	e8 86 02             	call   0x1b95
    190f:	73 09                	jae    0x191a
    1911:	e8 f8 04             	call   0x1e0c
    1914:	75 04                	jne    0x191a
    1916:	e8 04 00             	call   0x191d
    1919:	c3                   	ret    
    191a:	e9 76 ff             	jmp    0x1893
    191d:	9f                   	lahf   
    191e:	86 e0                	xchg   al,ah
    1920:	50                   	push   ax
    1921:	86 e0                	xchg   al,ah
    1923:	e8 96 eb             	call   0x4bc
    1926:	72 05                	jb     0x192d
    1928:	58                   	pop    ax
    1929:	86 e0                	xchg   al,ah
    192b:	9e                   	sahf   
    192c:	c3                   	ret    
    192d:	b0 ff                	mov    al,0xff
    192f:	88 06 83 74          	mov    BYTE PTR ds:0x7483,al
    1933:	8b 26 6a 74          	mov    sp,WORD PTR ds:0x746a
    1937:	f9                   	stc    
    1938:	c3                   	ret    
    1939:	9f                   	lahf   
    193a:	86 e0                	xchg   al,ah
    193c:	50                   	push   ax
    193d:	86 e0                	xchg   al,ah
    193f:	3c 05                	cmp    al,0x5
    1941:	75 0e                	jne    0x1951
    1943:	e8 04 e8             	call   0x14a
    1946:	b0 ff                	mov    al,0xff
    1948:	88 06 6c 74          	mov    BYTE PTR ds:0x746c,al
    194c:	8b 26 6a 74          	mov    sp,WORD PTR ds:0x746a
    1950:	c3                   	ret    
    1951:	58                   	pop    ax
    1952:	86 e0                	xchg   al,ah
    1954:	9e                   	sahf   
    1955:	c3                   	ret    
    1956:	80 26 6e 74 7f       	and    BYTE PTR ds:0x746e,0x7f
    195b:	e8 a3 eb             	call   0x501
    195e:	b5 7d                	mov    ch,0x7d
    1960:	88 6d d1             	mov    BYTE PTR [di-0x2f],ch
    1963:	b5 7f                	mov    ch,0x7f
    1965:	bb cf 70             	mov    bx,0x70cf
    1968:	89 5d cf             	mov    WORD PTR [di-0x31],bx
    196b:	b0 ff                	mov    al,0xff
    196d:	88 07                	mov    BYTE PTR [bx],al
    196f:	43                   	inc    bx
    1970:	fe cd                	dec    ch
    1972:	75 f9                	jne    0x196d
    1974:	bb 54 6e             	mov    bx,0x6e54
    1977:	89 5d cd             	mov    WORD PTR [di-0x33],bx
    197a:	b0 00                	mov    al,0x0
    197c:	b5 fe                	mov    ch,0xfe
    197e:	bb 54 6e             	mov    bx,0x6e54
    1981:	ba 52 6f             	mov    dx,0x6f52
    1984:	88 07                	mov    BYTE PTR [bx],al
    1986:	43                   	inc    bx
    1987:	8b ea                	mov    bp,dx
    1989:	88 46 00             	mov    BYTE PTR [bp+0x0],al
    198c:	42                   	inc    dx
    198d:	fe cd                	dec    ch
    198f:	75 f3                	jne    0x1984
    1991:	8b 5d b4             	mov    bx,WORD PTR [di-0x4c]
    1994:	89 1e 52 6f          	mov    WORD PTR ds:0x6f52,bx
    1998:	bb cf 70             	mov    bx,0x70cf
    199b:	89 1e 54 6e          	mov    WORD PTR ds:0x6e54,bx
    199f:	c3                   	ret    
    19a0:	53                   	push   bx
    19a1:	9f                   	lahf   
    19a2:	86 e0                	xchg   al,ah
    19a4:	50                   	push   ax
    19a5:	86 e0                	xchg   al,ah
    19a7:	8a 45 d1             	mov    al,BYTE PTR [di-0x2f]
    19aa:	08 c0                	or     al,al
    19ac:	75 12                	jne    0x19c0
    19ae:	80 0e 6e 74 80       	or     BYTE PTR ds:0x746e,0x80
    19b3:	e8 67 ff             	call   0x191d
    19b6:	e8 87 3d             	call   0x5740
    19b9:	58                   	pop    ax
    19ba:	86 e0                	xchg   al,ah
    19bc:	9e                   	sahf   
    19bd:	e9 10 00             	jmp    0x19d0
    19c0:	8b 5d cf             	mov    bx,WORD PTR [di-0x31]
    19c3:	58                   	pop    ax
    19c4:	86 e0                	xchg   al,ah
    19c6:	9e                   	sahf   
    19c7:	88 07                	mov    BYTE PTR [bx],al
    19c9:	43                   	inc    bx
    19ca:	89 5d cf             	mov    WORD PTR [di-0x31],bx
    19cd:	fe 4d d1             	dec    BYTE PTR [di-0x2f]
    19d0:	5b                   	pop    bx
    19d1:	c3                   	ret    
    19d2:	52                   	push   dx
    19d3:	8b 5d cd             	mov    bx,WORD PTR [di-0x33]
    19d6:	8a 17                	mov    dl,BYTE PTR [bx]
    19d8:	43                   	inc    bx
    19d9:	8a 37                	mov    dh,BYTE PTR [bx]
    19db:	4b                   	dec    bx
    19dc:	8b ea                	mov    bp,dx
    19de:	8a 46 00             	mov    al,BYTE PTR [bp+0x0]
    19e1:	5a                   	pop    dx
    19e2:	c3                   	ret    
    19e3:	e8 37 ff             	call   0x191d
    19e6:	e8 aa 16             	call   0x3093
    19e9:	e8 d9 3d             	call   0x57c5
    19ec:	e8 1c 00             	call   0x1a0b
    19ef:	e8 a9 3d             	call   0x579b
    19f2:	e9 f4 1f             	jmp    0x39e9
    19f5:	9f                   	lahf   
    19f6:	86 e0                	xchg   al,ah
    19f8:	50                   	push   ax
    19f9:	86 e0                	xchg   al,ah
    19fb:	b0 ff                	mov    al,0xff
    19fd:	88 06 6d 74          	mov    BYTE PTR ds:0x746d,al
    1a01:	58                   	pop    ax
    1a02:	86 e0                	xchg   al,ah
    1a04:	9e                   	sahf   
    1a05:	e8 13 00             	call   0x1a1b
    1a08:	e8 c7 2b             	call   0x45d2
    1a0b:	9f                   	lahf   
    1a0c:	86 e0                	xchg   al,ah
    1a0e:	50                   	push   ax
    1a0f:	86 e0                	xchg   al,ah
    1a11:	b0 00                	mov    al,0x0
    1a13:	88 06 6d 74          	mov    BYTE PTR ds:0x746d,al
    1a17:	58                   	pop    ax
    1a18:	86 e0                	xchg   al,ah
    1a1a:	9e                   	sahf   
    1a1b:	e8 fe 19             	call   0x341c
    1a1e:	e8 12 00             	call   0x1a33
    1a21:	b0 00                	mov    al,0x0
    1a23:	88 06 02 72          	mov    BYTE PTR ds:0x7202,al
    1a27:	e8 60 00             	call   0x1a8a
    1a2a:	e9 0d 2a             	jmp    0x443a
    1a2d:	e8 03 00             	call   0x1a33
    1a30:	e9 07 2a             	jmp    0x443a
    1a33:	e8 76 eb             	call   0x5ac
    1a36:	e8 ea 29             	call   0x4423
    1a39:	b0 10                	mov    al,0x10
    1a3b:	88 06 02 72          	mov    BYTE PTR ds:0x7202,al
    1a3f:	e8 35 2e             	call   0x4877
    1a42:	bb 03 72             	mov    bx,0x7203
    1a45:	88 07                	mov    BYTE PTR [bx],al
    1a47:	fe 4d df             	dec    BYTE PTR [di-0x21]
    1a4a:	43                   	inc    bx
    1a4b:	b5 06                	mov    ch,0x6
    1a4d:	ba e1 73             	mov    dx,0x73e1
    1a50:	8b ea                	mov    bp,dx
    1a52:	8a 46 00             	mov    al,BYTE PTR [bp+0x0]
    1a55:	08 c0                	or     al,al
    1a57:	75 05                	jne    0x1a5e
    1a59:	42                   	inc    dx
    1a5a:	fe cd                	dec    ch
    1a5c:	75 f2                	jne    0x1a50
    1a5e:	ba e6 73             	mov    dx,0x73e6
    1a61:	8b ea                	mov    bp,dx
    1a63:	8a 46 00             	mov    al,BYTE PTR [bp+0x0]
    1a66:	3c 70                	cmp    al,0x70
    1a68:	72 02                	jb     0x1a6c
    1a6a:	b5 01                	mov    ch,0x1
    1a6c:	fe cd                	dec    ch
    1a6e:	78 0f                	js     0x1a7f
    1a70:	8b ea                	mov    bp,dx
    1a72:	8a 46 00             	mov    al,BYTE PTR [bp+0x0]
    1a75:	88 07                	mov    BYTE PTR [bx],al
    1a77:	43                   	inc    bx
    1a78:	4a                   	dec    dx
    1a79:	fe 4d df             	dec    BYTE PTR [di-0x21]
    1a7c:	e9 ed ff             	jmp    0x1a6c
    1a7f:	89 5d dd             	mov    WORD PTR [di-0x23],bx
    1a82:	c6 07 ff             	mov    BYTE PTR [bx],0xff
    1a85:	4b                   	dec    bx
    1a86:	80 0f 80             	or     BYTE PTR [bx],0x80
    1a89:	c3                   	ret    
    1a8a:	bb 54 6e             	mov    bx,0x6e54
    1a8d:	8a 17                	mov    dl,BYTE PTR [bx]
    1a8f:	43                   	inc    bx
    1a90:	8a 37                	mov    dh,BYTE PTR [bx]
    1a92:	43                   	inc    bx
    1a93:	8b ea                	mov    bp,dx
    1a95:	8a 46 00             	mov    al,BYTE PTR [bp+0x0]
    1a98:	3c e0                	cmp    al,0xe0
    1a9a:	74 f1                	je     0x1a8d
    1a9c:	53                   	push   bx
    1a9d:	f6 c0 80             	test   al,0x80
    1aa0:	75 16                	jne    0x1ab8
    1aa2:	8a 17                	mov    dl,BYTE PTR [bx]
    1aa4:	43                   	inc    bx
    1aa5:	8a 37                	mov    dh,BYTE PTR [bx]
    1aa7:	8b ea                	mov    bp,dx
    1aa9:	8a 46 00             	mov    al,BYTE PTR [bp+0x0]
    1aac:	3c ff                	cmp    al,0xff
    1aae:	75 08                	jne    0x1ab8
    1ab0:	b0 10                	mov    al,0x10
    1ab2:	88 06 02 72          	mov    BYTE PTR ds:0x7202,al
    1ab6:	5b                   	pop    bx
    1ab7:	c3                   	ret    
    1ab8:	e8 21 3d             	call   0x57dc
    1abb:	8b 5d dd             	mov    bx,WORD PTR [di-0x23]
    1abe:	89 1e 6f 74          	mov    WORD PTR ds:0x746f,bx
    1ac2:	5b                   	pop    bx
    1ac3:	4b                   	dec    bx
    1ac4:	4b                   	dec    bx
    1ac5:	b9 4f 70             	mov    cx,0x704f
    1ac8:	53                   	push   bx
    1ac9:	51                   	push   cx
    1aca:	e8 6d 00             	call   0x1b3a
    1acd:	59                   	pop    cx
    1ace:	5b                   	pop    bx
    1acf:	8a 17                	mov    dl,BYTE PTR [bx]
    1ad1:	43                   	inc    bx
    1ad2:	8a 37                	mov    dh,BYTE PTR [bx]
    1ad4:	43                   	inc    bx
    1ad5:	41                   	inc    cx
    1ad6:	53                   	push   bx
    1ad7:	51                   	push   cx
    1ad8:	8b ea                	mov    bp,dx
    1ada:	8a 46 00             	mov    al,BYTE PTR [bp+0x0]
    1add:	24 c0                	and    al,0xc0
    1adf:	3c 80                	cmp    al,0x80
    1ae1:	75 1d                	jne    0x1b00
    1ae3:	8a 06 6d 74          	mov    al,BYTE PTR ds:0x746d
    1ae7:	f6 c0 80             	test   al,0x80
    1aea:	74 14                	je     0x1b00
    1aec:	59                   	pop    cx
    1aed:	51                   	push   cx
    1aee:	8b e9                	mov    bp,cx
    1af0:	8a 46 00             	mov    al,BYTE PTR [bp+0x0]
    1af3:	f6 c0 80             	test   al,0x80
    1af6:	74 08                	je     0x1b00
    1af8:	87 d3                	xchg   bx,dx
    1afa:	e8 4e 00             	call   0x1b4b
    1afd:	e9 31 00             	jmp    0x1b31
    1b00:	52                   	push   dx
    1b01:	8a 17                	mov    dl,BYTE PTR [bx]
    1b03:	43                   	inc    bx
    1b04:	8a 37                	mov    dh,BYTE PTR [bx]
    1b06:	89 16 72 74          	mov    WORD PTR ds:0x7472,dx
    1b0a:	5a                   	pop    dx
    1b0b:	8b 1e 6f 74          	mov    bx,WORD PTR ds:0x746f
    1b0f:	53                   	push   bx
    1b10:	5b                   	pop    bx
    1b11:	8b ea                	mov    bp,dx
    1b13:	8a 46 00             	mov    al,BYTE PTR [bp+0x0]
    1b16:	88 07                	mov    BYTE PTR [bx],al
    1b18:	3c ff                	cmp    al,0xff
    1b1a:	75 03                	jne    0x1b1f
    1b1c:	e9 15 00             	jmp    0x1b34
    1b1f:	42                   	inc    dx
    1b20:	43                   	inc    bx
    1b21:	53                   	push   bx
    1b22:	8b 1e 72 74          	mov    bx,WORD PTR ds:0x7472
    1b26:	08 c0                	or     al,al
    1b28:	19 d3                	sbb    bx,dx
    1b2a:	77 e4                	ja     0x1b10
    1b2c:	5b                   	pop    bx
    1b2d:	89 1e 6f 74          	mov    WORD PTR ds:0x746f,bx
    1b31:	e9 96 ff             	jmp    0x1aca
    1b34:	59                   	pop    cx
    1b35:	5b                   	pop    bx
    1b36:	e8 b9 3c             	call   0x57f2
    1b39:	c3                   	ret    
    1b3a:	8b 1e 6f 74          	mov    bx,WORD PTR ds:0x746f
    1b3e:	ba 8e 72             	mov    dx,0x728e
    1b41:	08 c0                	or     al,al
    1b43:	19 d3                	sbb    bx,dx
    1b45:	72 03                	jb     0x1b4a
    1b47:	e8 f0 3b             	call   0x573a
    1b4a:	c3                   	ret    
    1b4b:	e8 35 3d             	call   0x5883
    1b4e:	8b 4c 44             	mov    cx,WORD PTR [si+0x44]
    1b51:	8b 5c 28             	mov    bx,WORD PTR [si+0x28]
    1b54:	8a c7                	mov    al,bh
    1b56:	00 e8                	add    al,ch
    1b58:	8a f0                	mov    dh,al
    1b5a:	8a c3                	mov    al,bl
    1b5c:	00 c8                	add    al,cl
    1b5e:	8a d0                	mov    dl,al
    1b60:	89 54 32             	mov    WORD PTR [si+0x32],dx
    1b63:	8a 44 32             	mov    al,BYTE PTR [si+0x32]
    1b66:	08 c0                	or     al,al
    1b68:	74 1d                	je     0x1b87
    1b6a:	3c ff                	cmp    al,0xff
    1b6c:	73 19                	jae    0x1b87
    1b6e:	8a 44 33             	mov    al,BYTE PTR [si+0x33]
    1b71:	08 c0                	or     al,al
    1b73:	74 12                	je     0x1b87
    1b75:	3c 40                	cmp    al,0x40
    1b77:	73 0e                	jae    0x1b87
    1b79:	8b 1e 6f 74          	mov    bx,WORD PTR ds:0x746f
    1b7d:	e8 27 3d             	call   0x58a7
    1b80:	89 1e 6f 74          	mov    WORD PTR ds:0x746f,bx
    1b84:	e9 0d 00             	jmp    0x1b94
    1b87:	b0 c1                	mov    al,0xc1
    1b89:	8b 1e 6f 74          	mov    bx,WORD PTR ds:0x746f
    1b8d:	88 07                	mov    BYTE PTR [bx],al
    1b8f:	43                   	inc    bx
    1b90:	89 1e 6f 74          	mov    WORD PTR ds:0x746f,bx
    1b94:	c3                   	ret    
    1b95:	f6 45 d2 80          	test   BYTE PTR [di-0x2e],0x80
    1b99:	75 1b                	jne    0x1bb6
    1b9b:	e8 40 3a             	call   0x55de
    1b9e:	23 d0                	and    dx,ax
    1ba0:	1e                   	push   ds
    1ba1:	81 89 1e 80 89 1e    	or     WORD PTR [bx+di-0x7fe2],0x1e89
    1ba7:	82 ff 1d             	cmp    bh,0x1d
    1baa:	fd                   	std    
    1bab:	3b 89 1e fd          	cmp    cx,WORD PTR [bx+di-0x2e2]
    1baf:	2e ff 1d             	call   DWORD PTR cs:[di]
    1bb2:	40                   	inc    ax
    1bb3:	60                   	pusha  
    1bb4:	1f                   	pop    ds
    1bb5:	ff                   	(bad)  
    1bb6:	e8 91 e5             	call   0x14a
    1bb9:	9f                   	lahf   
    1bba:	86 e0                	xchg   al,ah
    1bbc:	50                   	push   ax
    1bbd:	86 e0                	xchg   al,ah
    1bbf:	b0 ff                	mov    al,0xff
    1bc1:	88 06 74 74          	mov    BYTE PTR ds:0x7474,al
    1bc5:	58                   	pop    ax
    1bc6:	86 e0                	xchg   al,ah
    1bc8:	9e                   	sahf   
    1bc9:	f6 45 d2 80          	test   BYTE PTR [di-0x2e],0x80
    1bcd:	74 25                	je     0x1bf4
    1bcf:	9f                   	lahf   
    1bd0:	86 e0                	xchg   al,ah
    1bd2:	50                   	push   ax
    1bd3:	86 e0                	xchg   al,ah
    1bd5:	b0 00                	mov    al,0x0
    1bd7:	88 06 74 74          	mov    BYTE PTR ds:0x7474,al
    1bdb:	58                   	pop    ax
    1bdc:	86 e0                	xchg   al,ah
    1bde:	9e                   	sahf   
    1bdf:	3c 23                	cmp    al,0x23
    1be1:	75 03                	jne    0x1be6
    1be3:	e9 c5 01             	jmp    0x1dab
    1be6:	3c 21                	cmp    al,0x21
    1be8:	75 03                	jne    0x1bed
    1bea:	e9 ec 01             	jmp    0x1dd9
    1bed:	3c 2e                	cmp    al,0x2e
    1bef:	75 03                	jne    0x1bf4
    1bf1:	e9 2d 02             	jmp    0x1e21
    1bf4:	b5 00                	mov    ch,0x0
    1bf6:	b1 11                	mov    cl,0x11
    1bf8:	bb 03 4d             	mov    bx,0x4d03
    1bfb:	01 cb                	add    bx,cx
    1bfd:	53                   	push   bx
    1bfe:	5a                   	pop    dx
    1bff:	bb 14 4d             	mov    bx,0x4d14
    1c02:	01 cb                	add    bx,cx
    1c04:	9f                   	lahf   
    1c05:	86 e0                	xchg   al,ah
    1c07:	50                   	push   ax
    1c08:	86 e0                	xchg   al,ah
    1c0a:	58                   	pop    ax
    1c0b:	86 e0                	xchg   al,ah
    1c0d:	9e                   	sahf   
    1c0e:	9f                   	lahf   
    1c0f:	86 e0                	xchg   al,ah
    1c11:	50                   	push   ax
    1c12:	86 e0                	xchg   al,ah
    1c14:	4b                   	dec    bx
    1c15:	4a                   	dec    dx
    1c16:	fe c9                	dec    cl
    1c18:	79 0a                	jns    0x1c24
    1c1a:	58                   	pop    ax
    1c1b:	86 e0                	xchg   al,ah
    1c1d:	9e                   	sahf   
    1c1e:	e8 fc fc             	call   0x191d
    1c21:	e9 1c 3b             	jmp    0x5740
    1c24:	3a 07                	cmp    al,BYTE PTR [bx]
    1c26:	75 e2                	jne    0x1c0a
    1c28:	8a 06 74 74          	mov    al,BYTE PTR ds:0x7474
    1c2c:	8a e8                	mov    ch,al
    1c2e:	8b ea                	mov    bp,dx
    1c30:	8a 46 00             	mov    al,BYTE PTR [bp+0x0]
    1c33:	30 e8                	xor    al,ch
    1c35:	78 d3                	js     0x1c0a
    1c37:	58                   	pop    ax
    1c38:	86 e0                	xchg   al,ah
    1c3a:	9e                   	sahf   
    1c3b:	3c 3e                	cmp    al,0x3e
    1c3d:	75 12                	jne    0x1c51
    1c3f:	e8 0d f9             	call   0x154f
    1c42:	e8 05 e5             	call   0x14a
    1c45:	e8 96 39             	call   0x55de
    1c48:	3d 6f 1d             	cmp    ax,0x1d6f
    1c4b:	ff b0 0e e9          	push   WORD PTR [bx+si-0x16f2]
    1c4f:	30 00                	xor    BYTE PTR [bx+si],al
    1c51:	3c 3c                	cmp    al,0x3c
    1c53:	75 15                	jne    0x1c6a
    1c55:	e8 f7 f8             	call   0x154f
    1c58:	e8 ef e4             	call   0x14a
    1c5b:	e8 80 39             	call   0x55de
    1c5e:	3d 74 1d             	cmp    ax,0x1d74
    1c61:	3e 79 1d             	ds jns 0x1c81
    1c64:	ff b0 0f e9          	push   WORD PTR [bx+si-0x16f1]
    1c68:	17                   	pop    ss
    1c69:	00 8a c1 e9          	add    BYTE PTR [bp+si-0x163f],cl
    1c6d:	0f 00                	(bad)  
    1c6f:	b0 0d                	mov    al,0xd
    1c71:	e9 0d 00             	jmp    0x1c81
    1c74:	b0 0c                	mov    al,0xc
    1c76:	e9 08 00             	jmp    0x1c81
    1c79:	b0 0b                	mov    al,0xb
    1c7b:	e9 03 00             	jmp    0x1c81
    1c7e:	e8 c9 e4             	call   0x14a
    1c81:	3c 0f                	cmp    al,0xf
    1c83:	73 05                	jae    0x1c8a
    1c85:	0c e0                	or     al,0xe0
    1c87:	e9 0f 00             	jmp    0x1c99
    1c8a:	9f                   	lahf   
    1c8b:	86 e0                	xchg   al,ah
    1c8d:	50                   	push   ax
    1c8e:	86 e0                	xchg   al,ah
    1c90:	b0 ef                	mov    al,0xef
    1c92:	e8 0b fd             	call   0x19a0
    1c95:	58                   	pop    ax
    1c96:	86 e0                	xchg   al,ah
    1c98:	9e                   	sahf   
    1c99:	e8 04 fd             	call   0x19a0
    1c9c:	e9 8c 00             	jmp    0x1d2b
    1c9f:	80 65 b7 7f          	and    BYTE PTR [di-0x49],0x7f
    1ca3:	8b 5d cd             	mov    bx,WORD PTR [di-0x33]
    1ca6:	ba 54 6e             	mov    dx,0x6e54
    1ca9:	08 c0                	or     al,al
    1cab:	19 d3                	sbb    bx,dx
    1cad:	ba 52 6f             	mov    dx,0x6f52
    1cb0:	01 d3                	add    bx,dx
    1cb2:	8a 07                	mov    al,BYTE PTR [bx]
    1cb4:	43                   	inc    bx
    1cb5:	8a 3f                	mov    bh,BYTE PTR [bx]
    1cb7:	8a d8                	mov    bl,al
    1cb9:	e8 e3 fa             	call   0x179f
    1cbc:	8b 5d cf             	mov    bx,WORD PTR [di-0x31]
    1cbf:	b5 ff                	mov    ch,0xff
    1cc1:	8a 07                	mov    al,BYTE PTR [bx]
    1cc3:	38 e8                	cmp    al,ch
    1cc5:	74 05                	je     0x1ccc
    1cc7:	88 2f                	mov    BYTE PTR [bx],ch
    1cc9:	e9 f5 ff             	jmp    0x1cc1
    1ccc:	c3                   	ret    
    1ccd:	8b 5d cd             	mov    bx,WORD PTR [di-0x33]
    1cd0:	8a c3                	mov    al,bl
    1cd2:	3c 54                	cmp    al,0x54
    1cd4:	75 05                	jne    0x1cdb
    1cd6:	e8 44 fc             	call   0x191d
    1cd9:	f9                   	stc    
    1cda:	c3                   	ret    
    1cdb:	4b                   	dec    bx
    1cdc:	4b                   	dec    bx
    1cdd:	8a 17                	mov    dl,BYTE PTR [bx]
    1cdf:	43                   	inc    bx
    1ce0:	8a 37                	mov    dh,BYTE PTR [bx]
    1ce2:	8a c6                	mov    al,dh
    1ce4:	08 d0                	or     al,dl
    1ce6:	75 05                	jne    0x1ced
    1ce8:	e8 32 fc             	call   0x191d
    1ceb:	f9                   	stc    
    1cec:	c3                   	ret    
    1ced:	4b                   	dec    bx
    1cee:	89 5d cd             	mov    WORD PTR [di-0x33],bx
    1cf1:	89 55 cf             	mov    WORD PTR [di-0x31],dx
    1cf4:	e8 a8 ff             	call   0x1c9f
    1cf7:	f8                   	clc    
    1cf8:	c3                   	ret    
    1cf9:	e8 36 3a             	call   0x5732
    1cfc:	e9 a0 ff             	jmp    0x1c9f
    1cff:	e8 5d 1d             	call   0x3a5f
    1d02:	73 01                	jae    0x1d05
    1d04:	c3                   	ret    
    1d05:	e8 6f 2b             	call   0x4877
    1d08:	e8 95 fc             	call   0x19a0
    1d0b:	b5 06                	mov    ch,0x6
    1d0d:	bb e1 73             	mov    bx,0x73e1
    1d10:	8a 07                	mov    al,BYTE PTR [bx]
    1d12:	08 c0                	or     al,al
    1d14:	74 0d                	je     0x1d23
    1d16:	8a 07                	mov    al,BYTE PTR [bx]
    1d18:	e8 85 fc             	call   0x19a0
    1d1b:	43                   	inc    bx
    1d1c:	fe cd                	dec    ch
    1d1e:	75 f6                	jne    0x1d16
    1d20:	e9 05 00             	jmp    0x1d28
    1d23:	43                   	inc    bx
    1d24:	fe cd                	dec    ch
    1d26:	75 e8                	jne    0x1d10
    1d28:	e8 3e e8             	call   0x569
    1d2b:	f6 06 6e 74 80       	test   BYTE PTR ds:0x746e,0x80
    1d30:	74 05                	je     0x1d37
    1d32:	e8 98 ff             	call   0x1ccd
    1d35:	f9                   	stc    
    1d36:	c3                   	ret    
    1d37:	e8 65 ff             	call   0x1c9f
    1d3a:	80 65 b7 7f          	and    BYTE PTR [di-0x49],0x7f
    1d3e:	e8 52 13             	call   0x3093
    1d41:	8b 5d cd             	mov    bx,WORD PTR [di-0x33]
    1d44:	8a c3                	mov    al,bl
    1d46:	3c 4e                	cmp    al,0x4e
    1d48:	75 1b                	jne    0x1d65
    1d4a:	8a 17                	mov    dl,BYTE PTR [bx]
    1d4c:	43                   	inc    bx
    1d4d:	8a 37                	mov    dh,BYTE PTR [bx]
    1d4f:	87 d3                	xchg   bx,dx
    1d51:	b5 ff                	mov    ch,0xff
    1d53:	8a 07                	mov    al,BYTE PTR [bx]
    1d55:	38 e8                	cmp    al,ch
    1d57:	74 06                	je     0x1d5f
    1d59:	88 2f                	mov    BYTE PTR [bx],ch
    1d5b:	43                   	inc    bx
    1d5c:	e9 f4 ff             	jmp    0x1d53
    1d5f:	e8 bb fb             	call   0x191d
    1d62:	e9 db 39             	jmp    0x5740
    1d65:	43                   	inc    bx
    1d66:	43                   	inc    bx
    1d67:	89 5d cd             	mov    WORD PTR [di-0x33],bx
    1d6a:	8b 55 cf             	mov    dx,WORD PTR [di-0x31]
    1d6d:	88 17                	mov    BYTE PTR [bx],dl
    1d6f:	43                   	inc    bx
    1d70:	88 37                	mov    BYTE PTR [bx],dh
    1d72:	4b                   	dec    bx
    1d73:	ba 54 6e             	mov    dx,0x6e54
    1d76:	08 c0                	or     al,al
    1d78:	19 d3                	sbb    bx,dx
    1d7a:	ba 52 6f             	mov    dx,0x6f52
    1d7d:	01 d3                	add    bx,dx
    1d7f:	8b 55 b4             	mov    dx,WORD PTR [di-0x4c]
    1d82:	88 17                	mov    BYTE PTR [bx],dl
    1d84:	43                   	inc    bx
    1d85:	88 37                	mov    BYTE PTR [bx],dh
    1d87:	f8                   	clc    
    1d88:	c3                   	ret    
    1d89:	e8 c7 1e             	call   0x3c53
    1d8c:	73 04                	jae    0x1d92
    1d8e:	e8 8c fb             	call   0x191d
    1d91:	c3                   	ret    
    1d92:	8b 5d cf             	mov    bx,WORD PTR [di-0x31]
    1d95:	e8 17 3b             	call   0x58af
    1d98:	73 0b                	jae    0x1da5
    1d9a:	80 0e 6e 74 80       	or     BYTE PTR ds:0x746e,0x80
    1d9f:	e8 7b fb             	call   0x191d
    1da2:	e9 9b 39             	jmp    0x5740
    1da5:	89 5d cf             	mov    WORD PTR [di-0x31],bx
    1da8:	e9 80 ff             	jmp    0x1d2b
    1dab:	e8 55 00             	call   0x1e03
    1dae:	73 06                	jae    0x1db6
    1db0:	e8 6a fb             	call   0x191d
    1db3:	e9 8a 39             	jmp    0x5740
    1db6:	8b 5c 28             	mov    bx,WORD PTR [si+0x28]
    1db9:	89 5c 34             	mov    WORD PTR [si+0x34],bx
    1dbc:	e8 1d 3a             	call   0x57dc
    1dbf:	e8 2c 00             	call   0x1dee
    1dc2:	8b 5d cd             	mov    bx,WORD PTR [di-0x33]
    1dc5:	4b                   	dec    bx
    1dc6:	4b                   	dec    bx
    1dc7:	e8 26 17             	call   0x34f0
    1dca:	e8 00 ff             	call   0x1ccd
    1dcd:	e9 35 ff             	jmp    0x1d05
    1dd0:	e8 f2 39             	call   0x57c5
    1dd3:	e8 24 17             	call   0x34fa
    1dd6:	e9 2c ff             	jmp    0x1d05
    1dd9:	e8 6e e3             	call   0x14a
    1ddc:	e8 3d 16             	call   0x341c
    1ddf:	e8 cc e8             	call   0x6ae
    1de2:	e8 71 fb             	call   0x1956
    1de5:	e8 81 f9             	call   0x1769
    1de8:	e8 e0 e8             	call   0x6cb
    1deb:	e9 17 ff             	jmp    0x1d05
    1dee:	e8 1b 00             	call   0x1e0c
    1df1:	75 02                	jne    0x1df5
    1df3:	f9                   	stc    
    1df4:	c3                   	ret    
    1df5:	8a 07                	mov    al,BYTE PTR [bx]
    1df7:	24 c0                	and    al,0xc0
    1df9:	3c 80                	cmp    al,0x80
    1dfb:	75 04                	jne    0x1e01
    1dfd:	f8                   	clc    
    1dfe:	e9 01 00             	jmp    0x1e02
    1e01:	f9                   	stc    
    1e02:	c3                   	ret    
    1e03:	e8 e8 ff             	call   0x1dee
    1e06:	73 01                	jae    0x1e09
    1e08:	c3                   	ret    
    1e09:	e9 77 3a             	jmp    0x5883
    1e0c:	8b 5d cd             	mov    bx,WORD PTR [di-0x33]
    1e0f:	8a c3                	mov    al,bl
    1e11:	3c 54                	cmp    al,0x54
    1e13:	75 01                	jne    0x1e16
    1e15:	c3                   	ret    
    1e16:	4b                   	dec    bx
    1e17:	8a 07                	mov    al,BYTE PTR [bx]
    1e19:	4b                   	dec    bx
    1e1a:	8a 1f                	mov    bl,BYTE PTR [bx]
    1e1c:	8a f8                	mov    bh,al
    1e1e:	08 d8                	or     al,bl
    1e20:	c3                   	ret    
    1e21:	e8 df ff             	call   0x1e03
    1e24:	73 06                	jae    0x1e2c
    1e26:	e8 f4 fa             	call   0x191d
    1e29:	e9 14 39             	jmp    0x5740
    1e2c:	8b 5c 28             	mov    bx,WORD PTR [si+0x28]
    1e2f:	89 5c 34             	mov    WORD PTR [si+0x34],bx
    1e32:	b0 f0                	mov    al,0xf0
    1e34:	e8 62 fe             	call   0x1c99
    1e37:	e8 a4 37             	call   0x55de
    1e3a:	2e 37                	cs aaa 
    1e3c:	1f                   	pop    ds
    1e3d:	ff                   	(bad)  
    1e3e:	e8 48 ff             	call   0x1d89
    1e41:	73 01                	jae    0x1e44
    1e43:	c3                   	ret    
    1e44:	8b 5c 32             	mov    bx,WORD PTR [si+0x32]
    1e47:	89 5c 36             	mov    WORD PTR [si+0x36],bx
    1e4a:	e8 71 1f             	call   0x3dbe
    1e4d:	73 0f                	jae    0x1e5e
    1e4f:	e8 cb fa             	call   0x191d
    1e52:	e8 f5 e2             	call   0x14a
    1e55:	e8 75 fe             	call   0x1ccd
    1e58:	e9 e5 38             	jmp    0x5740
    1e5b:	e9 01 00             	jmp    0x1e5f
    1e5e:	f8                   	clc    
    1e5f:	c3                   	ret    
    1e60:	b0 40                	mov    al,0x40
    1e62:	e8 ea f6             	call   0x154f
    1e65:	8b 5d cd             	mov    bx,WORD PTR [di-0x33]
    1e68:	53                   	push   bx
    1e69:	e8 08 00             	call   0x1e74
    1e6c:	5b                   	pop    bx
    1e6d:	73 04                	jae    0x1e73
    1e6f:	e8 6b fe             	call   0x1cdd
    1e72:	f9                   	stc    
    1e73:	c3                   	ret    
    1e74:	bb 00 4d             	mov    bx,0x4d00
    1e77:	e8 c9 37             	call   0x5643
    1e7a:	73 01                	jae    0x1e7d
    1e7c:	c3                   	ret    
    1e7d:	ba 25 4d             	mov    dx,0x4d25
    1e80:	e8 16 00             	call   0x1e99
    1e83:	73 01                	jae    0x1e86
    1e85:	c3                   	ret    
    1e86:	8a c1                	mov    al,cl
    1e88:	0c c0                	or     al,0xc0
    1e8a:	e8 13 fb             	call   0x19a0
    1e8d:	e8 9b fe             	call   0x1d2b
    1e90:	e8 4b 37             	call   0x55de
    1e93:	28 97 1f ff          	sub    BYTE PTR [bx-0xe1],dl
    1e97:	f8                   	clc    
    1e98:	c3                   	ret    
    1e99:	b1 00                	mov    cl,0x0
    1e9b:	8b 5d 8c             	mov    bx,WORD PTR [di-0x74]
    1e9e:	8b ea                	mov    bp,dx
    1ea0:	8a 46 00             	mov    al,BYTE PTR [bp+0x0]
    1ea3:	3c ff                	cmp    al,0xff
    1ea5:	75 02                	jne    0x1ea9
    1ea7:	f9                   	stc    
    1ea8:	c3                   	ret    
    1ea9:	8a e8                	mov    ch,al
    1eab:	24 7f                	and    al,0x7f
    1ead:	3a 07                	cmp    al,BYTE PTR [bx]
    1eaf:	75 1d                	jne    0x1ece
    1eb1:	43                   	inc    bx
    1eb2:	8a 45 b4             	mov    al,BYTE PTR [di-0x4c]
    1eb5:	38 d8                	cmp    al,bl
    1eb7:	75 11                	jne    0x1eca
    1eb9:	8a 45 b5             	mov    al,BYTE PTR [di-0x4b]
    1ebc:	38 f8                	cmp    al,bh
    1ebe:	75 0a                	jne    0x1eca
    1ec0:	f6 c5 80             	test   ch,0x80
    1ec3:	74 02                	je     0x1ec7
    1ec5:	f8                   	clc    
    1ec6:	c3                   	ret    
    1ec7:	e9 04 00             	jmp    0x1ece
    1eca:	42                   	inc    dx
    1ecb:	e9 d0 ff             	jmp    0x1e9e
    1ece:	8b ea                	mov    bp,dx
    1ed0:	8a 46 00             	mov    al,BYTE PTR [bp+0x0]
    1ed3:	42                   	inc    dx
    1ed4:	f6 c0 80             	test   al,0x80
    1ed7:	74 f5                	je     0x1ece
    1ed9:	fe c1                	inc    cl
    1edb:	e9 bd ff             	jmp    0x1e9b
    1ede:	e8 de 00             	call   0x1fbf
    1ee1:	e8 0c 28             	call   0x46f0
    1ee4:	e8 09 00             	call   0x1ef0
    1ee7:	e8 b1 38             	call   0x579b
    1eea:	e8 76 f7             	call   0x1663
    1eed:	e9 f1 ff             	jmp    0x1ee1
    1ef0:	e8 12 e2             	call   0x105
    1ef3:	8a 45 a7             	mov    al,BYTE PTR [di-0x59]
    1ef6:	c6 45 a7 00          	mov    BYTE PTR [di-0x59],0x0
    1efa:	08 c0                	or     al,al
    1efc:	74 10                	je     0x1f0e
    1efe:	9f                   	lahf   
    1eff:	86 e0                	xchg   al,ah
    1f01:	50                   	push   ax
    1f02:	86 e0                	xchg   al,ah
    1f04:	e8 62 f8             	call   0x1769
    1f07:	58                   	pop    ax
    1f08:	86 e0                	xchg   al,ah
    1f0a:	9e                   	sahf   
    1f0b:	e9 57 08             	jmp    0x2765
    1f0e:	f6 45 a2 80          	test   BYTE PTR [di-0x5e],0x80
    1f12:	75 1b                	jne    0x1f2f
    1f14:	f6 45 a3 80          	test   BYTE PTR [di-0x5d],0x80
    1f18:	74 06                	je     0x1f20
    1f1a:	e8 d3 1a             	call   0x39f0
    1f1d:	e8 37 0a             	call   0x2957
    1f20:	f6 45 a5 80          	test   BYTE PTR [di-0x5b],0x80
    1f24:	74 06                	je     0x1f2c
    1f26:	e8 63 0a             	call   0x298c
    1f29:	e8 6f 38             	call   0x579b
    1f2c:	e9 03 00             	jmp    0x1f32
    1f2f:	e8 72 36             	call   0x55a4
    1f32:	bb bf 49             	mov    bx,0x49bf
    1f35:	e8 a3 36             	call   0x55db
    1f38:	80 e0 21             	and    al,0x21
    1f3b:	81 6f 22 82 49       	sub    WORD PTR [bx+0x22],0x4982
    1f40:	19 22                	sbb    WORD PTR [bp+si],sp
    1f42:	6f                   	outs   dx,WORD PTR ds:[si]
    1f43:	22 1b                	and    bl,BYTE PTR [bp+di]
    1f45:	6f                   	outs   dx,WORD PTR ds:[si]
    1f46:	20 fd                	and    ch,bh
    1f48:	2b 49 19             	sub    cx,WORD PTR [bx+di+0x19]
    1f4b:	fd                   	std    
    1f4c:	2d 49 19             	sub    ax,0x1949
    1f4f:	fd                   	std    
    1f50:	23 49 19             	and    cx,WORD PTR [bx+di+0x19]
    1f53:	fd                   	std    
    1f54:	2e 49                	cs dec cx
    1f56:	19 fd                	sbb    bp,di
    1f58:	40                   	inc    ax
    1f59:	49                   	dec    cx
    1f5a:	19 fd                	sbb    bp,di
    1f5c:	28 49 19             	sub    BYTE PTR [bx+di+0x19],cl
    1f5f:	21 f0                	and    ax,si
    1f61:	3a 3e 5b 21          	cmp    bh,BYTE PTR ds:0x215b
    1f65:	2f                   	das    
    1f66:	70 20                	jo     0x1f88
    1f68:	0d 6f 20             	or     ax,0x206f
    1f6b:	3b 41 5d             	cmp    ax,WORD PTR [bx+di+0x5d]
    1f6e:	fe c3                	inc    bl
    1f70:	bb dd 49             	mov    bx,0x49dd
    1f73:	e8 65 36             	call   0x55db
    1f76:	2f                   	das    
    1f77:	70 20                	jo     0x1f99
    1f79:	2d 67 22             	sub    ax,0x2267
    1f7c:	42                   	inc    dx
    1f7d:	aa                   	stos   BYTE PTR es:[di],al
    1f7e:	20 43 d7             	and    BYTE PTR [bp+di-0x29],al
    1f81:	20 44 0e             	and    BYTE PTR [si+0xe],al
    1f84:	4e                   	dec    si
    1f85:	45                   	inc    bp
    1f86:	8f                   	(bad)  
    1f87:	32 46 e4             	xor    al,BYTE PTR [bp-0x1c]
    1f8a:	20 47 7b             	and    BYTE PTR [bx+0x7b],al
    1f8d:	21 49 75             	and    WORD PTR [bx+di+0x75],cx
    1f90:	4e                   	dec    si
    1f91:	4d                   	dec    bp
    1f92:	b9 4d 50             	mov    cx,0x504d
    1f95:	d7                   	xlat   BYTE PTR ds:[bx]
    1f96:	52                   	push   dx
    1f97:	52                   	push   dx
    1f98:	c3                   	ret    
    1f99:	4f                   	dec    di
    1f9a:	53                   	push   bx
    1f9b:	6b 54 54 33          	imul   dx,WORD PTR [si+0x54],0x33
    1f9f:	5e                   	pop    si
    1fa0:	56                   	push   si
    1fa1:	bf 20 58             	mov    di,0x5820
    1fa4:	01 23                	add    WORD PTR [bp+di],sp
    1fa6:	57                   	push   di
    1fa7:	44                   	inc    sp
    1fa8:	5b                   	pop    bx
    1fa9:	fe                   	(bad)  
    1faa:	e8 bc f7             	call   0x1769
    1fad:	b0 80                	mov    al,0x80
    1faf:	88 45 8a             	mov    BYTE PTR [di-0x76],al
    1fb2:	bb d5 4b             	mov    bx,0x4bd5
    1fb5:	e8 23 36             	call   0x55db
    1fb8:	0d a5 22             	or     ax,0x22a5
    1fbb:	80 a5 22 fe e8       	and    BYTE PTR [di-0x1de],0xe8
    1fc0:	a7                   	cmps   WORD PTR ds:[si],WORD PTR es:[di]
    1fc1:	f7 80 4d b8 80 bb    	test   WORD PTR [bx+si-0x47b3],0xbb80
    1fc7:	03 01                	add    ax,WORD PTR [bx+di]
    1fc9:	e8 e0 f5             	call   0x15ac
    1fcc:	bb f3 4b             	mov    bx,0x4bf3
    1fcf:	e8 09 36             	call   0x55db
    1fd2:	ff                   	(bad)  
    1fd3:	e8 93 f7             	call   0x1769
    1fd6:	c3                   	ret    
    1fd7:	bb e1 4b             	mov    bx,0x4be1
    1fda:	ba db 4b             	mov    dx,0x4bdb
    1fdd:	e8 f8 35             	call   0x55d8
    1fe0:	59                   	pop    cx
    1fe1:	2e 01 fe             	cs add si,di
    1fe4:	e8 16 00             	call   0x1ffd
    1fe7:	88 45 9f             	mov    BYTE PTR [di-0x61],al
    1fea:	e9 4d 24             	jmp    0x443a
    1fed:	e8 0d 00             	call   0x1ffd
    1ff0:	08 c0                	or     al,al
    1ff2:	74 06                	je     0x1ffa
    1ff4:	88 45 95             	mov    BYTE PTR [di-0x6b],al
    1ff7:	e8 92 09             	call   0x298c
    1ffa:	e9 9e 37             	jmp    0x579b
    1ffd:	bb bf 4b             	mov    bx,0x4bbf
    2000:	e8 04 27             	call   0x4707
    2003:	e8 58 e1             	call   0x15e
    2006:	9f                   	lahf   
    2007:	86 e0                	xchg   al,ah
    2009:	50                   	push   ax
    200a:	86 e0                	xchg   al,ah
    200c:	e8 3b e1             	call   0x14a
    200f:	58                   	pop    ax
    2010:	86 e0                	xchg   al,ah
    2012:	9e                   	sahf   
    2013:	bb 5a 21             	mov    bx,0x215a
    2016:	b5 07                	mov    ch,0x7
    2018:	3a 07                	cmp    al,BYTE PTR [bx]
    201a:	75 05                	jne    0x2021
    201c:	8a c5                	mov    al,ch
    201e:	fe c8                	dec    al
    2020:	c3                   	ret    
    2021:	4b                   	dec    bx
    2022:	fe cd                	dec    ch
    2024:	75 f2                	jne    0x2018
    2026:	5b                   	pop    bx
    2027:	e9 16 37             	jmp    0x5740
    202a:	9f                   	lahf   
    202b:	86 e0                	xchg   al,ah
    202d:	50                   	push   ax
    202e:	86 e0                	xchg   al,ah
    2030:	8a 45 bb             	mov    al,BYTE PTR [di-0x45]
    2033:	3c 05                	cmp    al,0x5
    2035:	75 05                	jne    0x203c
    2037:	b0 20                	mov    al,0x20
    2039:	e8 13 f5             	call   0x154f
    203c:	e8 5d f5             	call   0x159c
    203f:	2f                   	das    
    2040:	46                   	inc    si
    2041:	80 58 86 e0          	sbb    BYTE PTR [bx+si-0x7a],0xe0
    2045:	9e                   	sahf   
    2046:	bb 54 21             	mov    bx,0x2154
    2049:	b5 00                	mov    ch,0x0
    204b:	8a c8                	mov    cl,al
    204d:	01 cb                	add    bx,cx
    204f:	8a 07                	mov    al,BYTE PTR [bx]
    2051:	e9 fb f4             	jmp    0x154f
    2054:	44                   	inc    sp
    2055:	24 49                	and    al,0x49
    2057:	2a 47 52             	sub    al,BYTE PTR [bx+0x52]
    205a:	4c                   	dec    sp
    205b:	bb 1a 4a             	mov    bx,0x4a1a
    205e:	e8 a6 26             	call   0x4707
    2061:	e8 cd 1b             	call   0x3c31
    2064:	73 06                	jae    0x206c
    2066:	e8 5c 37             	call   0x57c5
    2069:	e9 f2 00             	jmp    0x215e
    206c:	e8 2c 37             	call   0x579b
    206f:	e8 78 09             	call   0x29ea
    2072:	8b 5c 32             	mov    bx,WORD PTR [si+0x32]
    2075:	89 5c 28             	mov    WORD PTR [si+0x28],bx
    2078:	e9 23 37             	jmp    0x579e
    207b:	bb 88 4a             	mov    bx,0x4a88
    207e:	e8 5a 35             	call   0x55db
    2081:	43                   	inc    bx
    2082:	8e 21                	mov    fs,WORD PTR [bx+di]
    2084:	52                   	push   dx
    2085:	c6                   	(bad)  
    2086:	21 4f a9             	and    WORD PTR [bx-0x57],cx
    2089:	21 46 ed             	and    WORD PTR [bp-0x13],ax
    208c:	20 fe                	and    dh,bh
    208e:	bb 98 4a             	mov    bx,0x4a98
    2091:	e8 73 26             	call   0x4707
    2094:	e8 97 19             	call   0x3a2e
    2097:	72 0a                	jb     0x20a3
    2099:	3c 03                	cmp    al,0x3
    209b:	72 06                	jb     0x20a3
    209d:	e8 43 3c             	call   0x5ce3
    20a0:	e9 b4 08             	jmp    0x2957
    20a3:	e8 9a 36             	call   0x5740
    20a6:	e9 89 36             	jmp    0x5732
    20a9:	bb a5 4a             	mov    bx,0x4aa5
    20ac:	e8 2c 35             	call   0x55db
    20af:	52                   	push   dx
    20b0:	b6 21                	mov    dh,0x21
    20b2:	43                   	inc    bx
    20b3:	bb 21 fe             	mov    bx,0xfe21
    20b6:	b0 52                	mov    al,0x52
    20b8:	e9 02 00             	jmp    0x20bd
    20bb:	b0 43                	mov    al,0x43
    20bd:	88 45 a0             	mov    BYTE PTR [di-0x60],al
    20c0:	e8 fc 08             	call   0x29bf
    20c3:	e9 23 19             	jmp    0x39e9
    20c6:	bb b7 4a             	mov    bx,0x4ab7
    20c9:	e8 0f 35             	call   0x55db
    20cc:	41                   	inc    cx
    20cd:	d3 21                	shl    WORD PTR [bx+di],cl
    20cf:	4d                   	dec    bp
    20d0:	db 21                	(bad)  [bx+di]
    20d2:	fe                   	(bad)  
    20d3:	e8 1a 19             	call   0x39f0
    20d6:	80 65 a1 7f          	and    BYTE PTR [di-0x5f],0x7f
    20da:	c3                   	ret    
    20db:	80 4d a1 80          	or     BYTE PTR [di-0x5f],0x80
    20df:	c3                   	ret    
    20e0:	e8 07 09             	call   0x29ea
    20e3:	e8 03 00             	call   0x20e9
    20e6:	e9 b5 36             	jmp    0x579e
    20e9:	e8 f2 34             	call   0x55de
    20ec:	01 02                	add    WORD PTR [bp+si],ax
    20ee:	22 02                	and    al,BYTE PTR [bp+si]
    20f0:	3a 22                	cmp    ah,BYTE PTR [bp+si]
    20f2:	03 fc                	add    di,sp
    20f4:	21 04                	and    WORD PTR [si],ax
    20f6:	34 22                	xor    al,0x22
    20f8:	06                   	push   es
    20f9:	53                   	push   bx
    20fa:	22 fe                	and    bh,dh
    20fc:	be 0d 6d             	mov    si,0x6d0d
    20ff:	e9 03 00             	jmp    0x2105
    2102:	be 0e 6d             	mov    si,0x6d0e
    2105:	8a 44 28             	mov    al,BYTE PTR [si+0x28]
    2108:	3a 44 12             	cmp    al,BYTE PTR [si+0x12]
    210b:	75 0f                	jne    0x211c
    210d:	8a e8                	mov    ch,al
    210f:	8a 44 2e             	mov    al,BYTE PTR [si+0x2e]
    2112:	3a 44 12             	cmp    al,BYTE PTR [si+0x12]
    2115:	72 03                	jb     0x211a
    2117:	e9 44 00             	jmp    0x215e
    211a:	8a c5                	mov    al,ch
    211c:	fe c8                	dec    al
    211e:	75 03                	jne    0x2123
    2120:	e9 3b 00             	jmp    0x215e
    2123:	3a 44 10             	cmp    al,BYTE PTR [si+0x10]
    2126:	77 03                	ja     0x212b
    2128:	e9 33 00             	jmp    0x215e
    212b:	88 44 28             	mov    BYTE PTR [si+0x28],al
    212e:	be 0d 6d             	mov    si,0x6d0d
    2131:	e9 c3 f6             	jmp    0x17f7
    2134:	be 0d 6d             	mov    si,0x6d0d
    2137:	e9 03 00             	jmp    0x213d
    213a:	be 0e 6d             	mov    si,0x6d0e
    213d:	8a 44 28             	mov    al,BYTE PTR [si+0x28]
    2140:	fe c0                	inc    al
    2142:	3a 44 2a             	cmp    al,BYTE PTR [si+0x2a]
    2145:	72 03                	jb     0x214a
    2147:	e9 14 00             	jmp    0x215e
    214a:	88 44 28             	mov    BYTE PTR [si+0x28],al
    214d:	be 0d 6d             	mov    si,0x6d0d
    2150:	e9 a4 f6             	jmp    0x17f7
    2153:	b0 01                	mov    al,0x1
    2155:	88 44 28             	mov    BYTE PTR [si+0x28],al
    2158:	88 44 29             	mov    BYTE PTR [si+0x29],al
    215b:	e9 99 f6             	jmp    0x17f7
    215e:	be 0d 6d             	mov    si,0x6d0d
    2161:	e8 ab 49             	call   0x6b0f
    2164:	e9 90 f6             	jmp    0x17f7
    2167:	b0 90                	mov    al,0x90
    2169:	bb c6 49             	mov    bx,0x49c6
    216c:	e9 05 00             	jmp    0x2174
    216f:	b0 80                	mov    al,0x80
    2171:	bb c0 49             	mov    bx,0x49c0
    2174:	88 45 8a             	mov    BYTE PTR [di-0x76],al
    2177:	e8 8d 25             	call   0x4707
    217a:	e8 99 36             	call   0x5816
    217d:	e8 19 f6             	call   0x1799
    2180:	b5 0a                	mov    ch,0xa
    2182:	8a 45 c3             	mov    al,BYTE PTR [di-0x3d]
    2185:	3c ff                	cmp    al,0xff
    2187:	74 05                	je     0x218e
    2189:	e8 5a f6             	call   0x17e6
    218c:	b5 14                	mov    ch,0x14
    218e:	8a c5                	mov    al,ch
    2190:	e8 4a f6             	call   0x17dd
    2193:	e8 03 25             	call   0x4699
    2196:	73 06                	jae    0x219e
    2198:	e8 36 08             	call   0x29d1
    219b:	e9 fd 35             	jmp    0x579b
    219e:	e8 3d 34             	call   0x55de
    21a1:	0d a5 22             	or     ax,0x22a5
    21a4:	ff 8a 06 02          	dec    WORD PTR [bp+si+0x206]
    21a8:	72 9f                	jb     0x2149
    21aa:	86 e0                	xchg   al,ah
    21ac:	50                   	push   ax
    21ad:	86 e0                	xchg   al,ah
    21af:	e8 71 22             	call   0x4423
    21b2:	8a 45 b6             	mov    al,BYTE PTR [di-0x4a]
    21b5:	3c 7d                	cmp    al,0x7d
    21b7:	74 2c                	je     0x21e5
    21b9:	8a 45 8a             	mov    al,BYTE PTR [di-0x76]
    21bc:	88 06 02 72          	mov    BYTE PTR ds:0x7202,al
    21c0:	bb 87 6d             	mov    bx,0x6d87
    21c3:	ba 03 72             	mov    dx,0x7203
    21c6:	b0 7d                	mov    al,0x7d
    21c8:	2a 45 b6             	sub    al,BYTE PTR [di-0x4a]
    21cb:	74 11                	je     0x21de
    21cd:	b5 00                	mov    ch,0x0
    21cf:	8a c8                	mov    cl,al
    21d1:	9c                   	pushf  
    21d2:	87 f3                	xchg   bx,si
    21d4:	87 fa                	xchg   dx,di
    21d6:	fc                   	cld    
    21d7:	f3 a4                	rep movs BYTE PTR es:[di],BYTE PTR ds:[si]
    21d9:	87 f3                	xchg   bx,si
    21db:	87 fa                	xchg   dx,di
    21dd:	9d                   	popf   
    21de:	b0 ff                	mov    al,0xff
    21e0:	8b ea                	mov    bp,dx
    21e2:	88 46 00             	mov    BYTE PTR [bp+0x0],al
    21e5:	e8 52 22             	call   0x443a
    21e8:	73 03                	jae    0x21ed
    21ea:	e8 f3 f5             	call   0x17e0
    21ed:	58                   	pop    ax
    21ee:	86 e0                	xchg   al,ah
    21f0:	9e                   	sahf   
    21f1:	08 c0                	or     al,al
    21f3:	78 03                	js     0x21f8
    21f5:	e9 f1 17             	jmp    0x39e9
    21f8:	c3                   	ret    
    21f9:	b0 80                	mov    al,0x80
    21fb:	88 45 8a             	mov    BYTE PTR [di-0x76],al
    21fe:	e9 a4 ff             	jmp    0x21a5
    2201:	bb 87 4c             	mov    bx,0x4c87
    2204:	e8 d4 33             	call   0x55db
    2207:	3e 17                	ds pop ss
    2209:	23 56 34             	and    dx,WORD PTR [bp+0x34]
    220c:	23 48 3a             	and    cx,WORD PTR [bx+si+0x3a]
    220f:	23 2d                	and    bp,WORD PTR [di]
    2211:	7b 23                	jnp    0x2236
    2213:	21 7b 23             	and    WORD PTR [bp+di+0x23],di
    2216:	fe                   	(bad)  
    2217:	e8 41 fe             	call   0x205b
    221a:	c6 45 8b 02          	mov    BYTE PTR [di-0x75],0x2
    221e:	8a 44 28             	mov    al,BYTE PTR [si+0x28]
    2221:	fe c8                	dec    al
    2223:	88 44 08             	mov    BYTE PTR [si+0x8],al
    2226:	46                   	inc    si
    2227:	fe 4d 8b             	dec    BYTE PTR [di-0x75]
    222a:	75 f2                	jne    0x221e
    222c:	4e                   	dec    si
    222d:	4e                   	dec    si
    222e:	e8 6d 35             	call   0x579e
    2231:	e9 23 07             	jmp    0x2957
    2234:	be 0e 6d             	mov    si,0x6d0e
    2237:	e9 03 00             	jmp    0x223d
    223a:	be 0d 6d             	mov    si,0x6d0d
    223d:	56                   	push   si
    223e:	be 0d 6d             	mov    si,0x6d0d
    2241:	b0 03                	mov    al,0x3
    2243:	e8 46 38             	call   0x5a8c
    2246:	e8 e5 17             	call   0x3a2e
    2249:	5e                   	pop    si
    224a:	72 2c                	jb     0x2278
    224c:	f6 04 80             	test   BYTE PTR [si],0x80
    224f:	75 10                	jne    0x2261
    2251:	3c 16                	cmp    al,0x16
    2253:	77 23                	ja     0x2278
    2255:	3c 01                	cmp    al,0x1
    2257:	72 1f                	jb     0x2278
    2259:	fe c0                	inc    al
    225b:	88 44 04             	mov    BYTE PTR [si+0x4],al
    225e:	e9 11 00             	jmp    0x2272
    2261:	3c 4a                	cmp    al,0x4a
    2263:	77 13                	ja     0x2278
    2265:	3c 06                	cmp    al,0x6
    2267:	72 0f                	jb     0x2278
    2269:	88 06 55 6d          	mov    BYTE PTR ds:0x6d55,al
    226d:	b0 02                	mov    al,0x2
    226f:	88 44 04             	mov    BYTE PTR [si+0x4],al
    2272:	fe 44 2e             	inc    BYTE PTR [si+0x2e]
    2275:	e8 51 38             	call   0x5ac9
    2278:	be 0d 6d             	mov    si,0x6d0d
    227b:	c3                   	ret    
    227c:	89 26 75 74          	mov    WORD PTR ds:0x7475,sp
    2280:	e8 6d 24             	call   0x46f0
    2283:	bb e5 4a             	mov    bx,0x4ae5
    2286:	e8 52 33             	call   0x55db
    2289:	4c                   	dec    sp
    228a:	90                   	nop
    228b:	23 53 60             	and    dx,WORD PTR [bp+di+0x60]
    228e:	25 fe ba             	and    ax,0xbafe
    2291:	f5                   	cmc    
    2292:	4a                   	dec    dx
    2293:	e8 5d 24             	call   0x46f3
    2296:	bb 15 4b             	mov    bx,0x4b15
    2299:	e8 6b 24             	call   0x4707
    229c:	e8 63 03             	call   0x2602
    229f:	73 03                	jae    0x22a4
    22a1:	e9 ce 04             	jmp    0x2772
    22a4:	e8 8c 2a             	call   0x4d33
    22a7:	be 0d 6d             	mov    si,0x6d0d
    22aa:	73 03                	jae    0x22af
    22ac:	e9 b0 00             	jmp    0x235f
    22af:	e8 8e e0             	call   0x340
    22b2:	bb 00 00             	mov    bx,0x0
    22b5:	89 5c 28             	mov    WORD PTR [si+0x28],bx
    22b8:	e8 ae f4             	call   0x1769
    22bb:	e8 d6 23             	call   0x4694
    22be:	73 03                	jae    0x22c3
    22c0:	e9 9c 00             	jmp    0x235f
    22c3:	ba 4e 25             	mov    dx,0x254e
    22c6:	bb 87 6d             	mov    bx,0x6d87
    22c9:	89 5d 8c             	mov    WORD PTR [di-0x74],bx
    22cc:	e8 ca fb             	call   0x1e99
    22cf:	72 20                	jb     0x22f1
    22d1:	8a c1                	mov    al,cl
    22d3:	3c 00                	cmp    al,0x0
    22d5:	74 20                	je     0x22f7
    22d7:	3c 01                	cmp    al,0x1
    22d9:	75 09                	jne    0x22e4
    22db:	8b 75 ec             	mov    si,WORD PTR [di-0x14]
    22de:	e8 8b 00             	call   0x236c
    22e1:	e9 d4 ff             	jmp    0x22b8
    22e4:	3c 02                	cmp    al,0x2
    22e6:	75 09                	jne    0x22f1
    22e8:	8b 75 ee             	mov    si,WORD PTR [di-0x12]
    22eb:	e8 7e 00             	call   0x236c
    22ee:	e9 c7 ff             	jmp    0x22b8
    22f1:	e8 29 01             	call   0x241d
    22f4:	e9 c1 ff             	jmp    0x22b8
    22f7:	e8 23 01             	call   0x241d
    22fa:	c6 45 8b 02          	mov    BYTE PTR [di-0x75],0x2
    22fe:	8a 44 28             	mov    al,BYTE PTR [si+0x28]
    2301:	02 44 2e             	add    al,BYTE PTR [si+0x2e]
    2304:	fe c8                	dec    al
    2306:	88 44 28             	mov    BYTE PTR [si+0x28],al
    2309:	46                   	inc    si
    230a:	fe 4d 8b             	dec    BYTE PTR [di-0x75]
    230d:	75 ef                	jne    0x22fe
    230f:	4e                   	dec    si
    2310:	4e                   	dec    si
    2311:	e8 e0 1c             	call   0x3ff4
    2314:	8b 75 ee             	mov    si,WORD PTR [di-0x12]
    2317:	8a 44 2e             	mov    al,BYTE PTR [si+0x2e]
    231a:	88 44 28             	mov    BYTE PTR [si+0x28],al
    231d:	be 0d 6d             	mov    si,0x6d0d
    2320:	e8 00 01             	call   0x2423
    2323:	e8 1e de             	call   0x144
    2326:	3c 42                	cmp    al,0x42
    2328:	75 23                	jne    0x234d
    232a:	e8 f6 00             	call   0x2423
    232d:	8b 75 ec             	mov    si,WORD PTR [di-0x14]
    2330:	8a 44 2e             	mov    al,BYTE PTR [si+0x2e]
    2333:	88 44 28             	mov    BYTE PTR [si+0x28],al
    2336:	be 0d 6d             	mov    si,0x6d0d
    2339:	e8 17 00             	call   0x2353
    233c:	e8 44 00             	call   0x2383
    233f:	e8 e1 00             	call   0x2423
    2342:	8b 75 ee             	mov    si,WORD PTR [di-0x12]
    2345:	fe 44 28             	inc    BYTE PTR [si+0x28]
    2348:	be 0d 6d             	mov    si,0x6d0d
    234b:	75 d6                	jne    0x2323
    234d:	e8 b7 df             	call   0x307
    2350:	e9 96 16             	jmp    0x39e9
    2353:	e8 c4 dd             	call   0x11a
    2356:	8a 06 9d 73          	mov    al,BYTE PTR ds:0x739d
    235a:	08 c0                	or     al,al
    235c:	75 01                	jne    0x235f
    235e:	c3                   	ret    
    235f:	8b 26 75 74          	mov    sp,WORD PTR ds:0x7475
    2363:	e8 9e df             	call   0x304
    2366:	e8 f3 3d             	call   0x615c
    2369:	e9 e1 ff             	jmp    0x234d
    236c:	e8 b4 00             	call   0x2423
    236f:	e8 91 00             	call   0x2403
    2372:	e8 b5 17             	call   0x3b2a
    2375:	73 03                	jae    0x237a
    2377:	e8 e5 ff             	call   0x235f
    237a:	88 44 28             	mov    BYTE PTR [si+0x28],al
    237d:	be 0d 6d             	mov    si,0x6d0d
    2380:	e9 9d 00             	jmp    0x2420
    2383:	e8 0d 20             	call   0x4393
    2386:	e8 7a 00             	call   0x2403
    2389:	3c ff                	cmp    al,0xff
    238b:	74 56                	je     0x23e3
    238d:	3c 01                	cmp    al,0x1
    238f:	75 26                	jne    0x23b7
    2391:	e8 8f 00             	call   0x2423
    2394:	e8 d2 f3             	call   0x1769
    2397:	e8 c4 dd             	call   0x15e
    239a:	3c 22                	cmp    al,0x22
    239c:	75 03                	jne    0x23a1
    239e:	e8 a9 dd             	call   0x14a
    23a1:	e8 f5 22             	call   0x4699
    23a4:	8b 5d b4             	mov    bx,WORD PTR [di-0x4c]
    23a7:	4b                   	dec    bx
    23a8:	8a 07                	mov    al,BYTE PTR [bx]
    23aa:	3c 22                	cmp    al,0x22
    23ac:	75 03                	jne    0x23b1
    23ae:	e8 36 f2             	call   0x15e7
    23b1:	e8 45 fe             	call   0x21f9
    23b4:	e9 1e 00             	jmp    0x23d5
    23b7:	e8 47 e1             	call   0x501
    23ba:	e8 a2 16             	call   0x3a5f
    23bd:	73 03                	jae    0x23c2
    23bf:	e9 9d ff             	jmp    0x235f
    23c2:	e8 5e 00             	call   0x2423
    23c5:	e8 1c 00             	call   0x23e4
    23c8:	73 03                	jae    0x23cd
    23ca:	e9 92 ff             	jmp    0x235f
    23cd:	e8 5d f6             	call   0x1a2d
    23d0:	73 03                	jae    0x23d5
    23d2:	e9 8a ff             	jmp    0x235f
    23d5:	8b 75 ec             	mov    si,WORD PTR [di-0x14]
    23d8:	fe 44 28             	inc    BYTE PTR [si+0x28]
    23db:	be 0d 6d             	mov    si,0x6d0d
    23de:	e8 42 00             	call   0x2423
    23e1:	73 a0                	jae    0x2383
    23e3:	c3                   	ret    
    23e4:	e8 f7 31             	call   0x55de
    23e7:	56                   	push   si
    23e8:	02 25                	add    ah,BYTE PTR [di]
    23ea:	ff                   	(bad)  
    23eb:	e8 7b e1             	call   0x569
    23ee:	e8 ed 31             	call   0x55de
    23f1:	45                   	inc    bp
    23f2:	2d 37 4e             	sub    ax,0x4e37
    23f5:	28 37                	sub    BYTE PTR [bx],dh
    23f7:	54                   	push   sp
    23f8:	59                   	pop    cx
    23f9:	14 46                	adc    al,0x46
    23fb:	63 14                	arpl   WORD PTR [si],dx
    23fd:	ff                   	(bad)  
    23fe:	e8 2c 12             	call   0x362d
    2401:	f9                   	stc    
    2402:	c3                   	ret    
    2403:	e8 63 f3             	call   0x1769
    2406:	e8 32 00             	call   0x243b
    2409:	e8 53 16             	call   0x3a5f
    240c:	73 03                	jae    0x2411
    240e:	e8 4e ff             	call   0x235f
    2411:	e8 27 00             	call   0x243b
    2414:	e8 f4 e1             	call   0x60b
    2417:	73 03                	jae    0x241c
    2419:	e8 43 ff             	call   0x235f
    241c:	c3                   	ret    
    241d:	e8 03 00             	call   0x2423
    2420:	e8 00 00             	call   0x2423
    2423:	e8 2d ff             	call   0x2353
    2426:	e8 35 dd             	call   0x15e
    2429:	e8 1e dd             	call   0x14a
    242c:	3c 1b                	cmp    al,0x1b
    242e:	75 03                	jne    0x2433
    2430:	e9 2c ff             	jmp    0x235f
    2433:	3c 0d                	cmp    al,0xd
    2435:	75 01                	jne    0x2438
    2437:	c3                   	ret    
    2438:	e9 e8 ff             	jmp    0x2423
    243b:	e8 20 dd             	call   0x15e
    243e:	3c 20                	cmp    al,0x20
    2440:	74 02                	je     0x2444
    2442:	3c 2c                	cmp    al,0x2c
    2444:	74 02                	je     0x2448
    2446:	f8                   	clc    
    2447:	c3                   	ret    
    2448:	e8 ff dc             	call   0x14a
    244b:	e9 ed ff             	jmp    0x243b
    244e:	44                   	inc    sp
    244f:	41                   	inc    cx
    2450:	54                   	push   sp
    2451:	c1 56 45 43          	rcl    WORD PTR [bp+0x45],0x43
    2455:	54                   	push   sp
    2456:	4f                   	dec    di
    2457:	52                   	push   dx
    2458:	d3 54 55             	rcl    WORD PTR [si+0x55],cl
    245b:	50                   	push   ax
    245c:	4c                   	dec    sp
    245d:	45                   	inc    bp
    245e:	d3 ff                	sar    di,cl
    2460:	ba ff 4a             	mov    dx,0x4aff
    2463:	e8 8d 22             	call   0x46f3
    2466:	bb 34 4b             	mov    bx,0x4b34
    2469:	e8 9b 22             	call   0x4707
    246c:	bb e2 26             	mov    bx,0x26e2
    246f:	e8 a0 01             	call   0x2612
    2472:	73 03                	jae    0x2477
    2474:	e9 fb 02             	jmp    0x2772
    2477:	bb 09 4b             	mov    bx,0x4b09
    247a:	e8 c1 2e             	call   0x533e
    247d:	73 06                	jae    0x2485
    247f:	e8 be 32             	call   0x5740
    2482:	e9 c4 00             	jmp    0x2549
    2485:	e8 ab 28             	call   0x4d33
    2488:	73 03                	jae    0x248d
    248a:	e9 bc 00             	jmp    0x2549
    248d:	b0 19                	mov    al,0x19
    248f:	e8 0a f0             	call   0x149c
    2492:	e8 07 f1             	call   0x159c
    2495:	54                   	push   sp
    2496:	41                   	inc    cx
    2497:	42                   	inc    dx
    2498:	4c                   	dec    sp
    2499:	45                   	inc    bp
    249a:	0d 30 2c             	or     ax,0x2c30
    249d:	31 0d                	xor    WORD PTR [di],cx
    249f:	22 22                	and    ah,BYTE PTR [bp+si]
    24a1:	0d 56 45             	or     ax,0x4556
    24a4:	43                   	inc    bx
    24a5:	54                   	push   sp
    24a6:	4f                   	dec    di
    24a7:	52                   	push   dx
    24a8:	53                   	push   bx
    24a9:	0d 30 2c             	or     ax,0x2c30
    24ac:	80 8b 75 ec e8       	or     BYTE PTR [bp+di-0x138b],0xe8
    24b1:	99                   	cwd    
    24b2:	00 e8                	add    al,ch
    24b4:	e6 f0                	out    0xf0,al
    24b6:	0d 22 22             	or     ax,0x2222
    24b9:	0d 54 55             	or     ax,0x5554
    24bc:	50                   	push   ax
    24bd:	4c                   	dec    sp
    24be:	45                   	inc    bp
    24bf:	53                   	push   bx
    24c0:	0d 30 2c             	or     ax,0x2c30
    24c3:	80 8b 75 ee e8       	or     BYTE PTR [bp+di-0x118b],0xe8
    24c8:	82 00 e8             	add    BYTE PTR [bx+si],0xe8
    24cb:	cf                   	iret   
    24cc:	f0 0d 22 22          	lock or ax,0x2222
    24d0:	0d 44 41             	or     ax,0x4144
    24d3:	54                   	push   sp
    24d4:	41                   	inc    cx
    24d5:	0d 30 2c             	or     ax,0x2c30
    24d8:	30 0d                	xor    BYTE PTR [di],cl
    24da:	22 22                	and    ah,BYTE PTR [bp+si]
    24dc:	0d 80 8b             	or     ax,0x8b80
    24df:	5c                   	pop    sp
    24e0:	2e 89 5c 28          	mov    WORD PTR cs:[si+0x28],bx
    24e4:	e8 b5 f0             	call   0x159c
    24e7:	2d 31 2c             	sub    ax,0x2c31
    24ea:	30 0d                	xor    BYTE PTR [di],cl
    24ec:	80 8b 75 ee 8a       	or     BYTE PTR [bp+di-0x118b],0x8a
    24f1:	44                   	inc    sp
    24f2:	36 3a 44 28          	cmp    al,BYTE PTR ss:[si+0x28]
    24f6:	be 0d 6d             	mov    si,0x6d0d
    24f9:	72 46                	jb     0x2541
    24fb:	8b 75 ec             	mov    si,WORD PTR [di-0x14]
    24fe:	8a 44 2e             	mov    al,BYTE PTR [si+0x2e]
    2501:	88 44 28             	mov    BYTE PTR [si+0x28],al
    2504:	be 0d 6d             	mov    si,0x6d0d
    2507:	e8 92 f0             	call   0x159c
    250a:	42                   	inc    dx
    250b:	4f                   	dec    di
    250c:	54                   	push   sp
    250d:	0d 80 e8             	or     ax,0xe880
    2510:	08 dc                	or     ah,bl
    2512:	bb 9d 73             	mov    bx,0x739d
    2515:	f6 07 80             	test   BYTE PTR [bx],0x80
    2518:	74 03                	je     0x251d
    251a:	e9 2c 00             	jmp    0x2549
    251d:	8b 75 ec             	mov    si,WORD PTR [di-0x14]
    2520:	8a 44 36             	mov    al,BYTE PTR [si+0x36]
    2523:	3a 44 28             	cmp    al,BYTE PTR [si+0x28]
    2526:	72 0e                	jb     0x2536
    2528:	be 0d 6d             	mov    si,0x6d0d
    252b:	e8 2c 00             	call   0x255a
    252e:	8b 75 ec             	mov    si,WORD PTR [di-0x14]
    2531:	fe 44 28             	inc    BYTE PTR [si+0x28]
    2534:	75 d9                	jne    0x250f
    2536:	8b 75 ee             	mov    si,WORD PTR [di-0x12]
    2539:	fe 44 28             	inc    BYTE PTR [si+0x28]
    253c:	be 0d 6d             	mov    si,0x6d0d
    253f:	75 a3                	jne    0x24e4
    2541:	e8 58 f0             	call   0x159c
    2544:	45                   	inc    bp
    2545:	4f                   	dec    di
    2546:	44                   	inc    sp
    2547:	0d 80 e9             	or     ax,0xe980
    254a:	67 2f                	addr32 das 
    254c:	8a 44 36             	mov    al,BYTE PTR [si+0x36]
    254f:	2a 44 28             	sub    al,BYTE PTR [si+0x28]
    2552:	fe c0                	inc    al
    2554:	be 0d 6d             	mov    si,0x6d0d
    2557:	e9 f0 06             	jmp    0x2c4a
    255a:	e8 36 1e             	call   0x4393
    255d:	8a 06 02 72          	mov    al,BYTE PTR ds:0x7202
    2561:	08 c0                	or     al,al
    2563:	79 13                	jns    0x2578
    2565:	e8 34 f0             	call   0x159c
    2568:	31 2c                	xor    WORD PTR [si],bp
    256a:	30 0d                	xor    BYTE PTR [di],cl
    256c:	22 80 e8 d6          	and    al,BYTE PTR [bx+si-0x2918]
    2570:	04 e8                	add    al,0xe8
    2572:	28 f0                	sub    al,dh
    2574:	22 0d                	and    cl,BYTE PTR [di]
    2576:	80 c3 e8             	add    bl,0xe8
    2579:	21 f0                	and    ax,si
    257b:	30 2c                	xor    BYTE PTR [si],ch
    257d:	80 e8 79             	sub    al,0x79
    2580:	0f 8a 06 e6          	jp     0xb8a
    2584:	73 3c                	jae    0x25c2
    2586:	70 72                	jo     0x25fa
    2588:	40                   	inc    ax
    2589:	bb dd 26             	mov    bx,0x26dd
    258c:	b5 00                	mov    ch,0x0
    258e:	b1 03                	mov    cl,0x3
    2590:	3a 07                	cmp    al,BYTE PTR [bx]
    2592:	74 05                	je     0x2599
    2594:	4b                   	dec    bx
    2595:	fe c9                	dec    cl
    2597:	75 f7                	jne    0x2590
    2599:	bb de 26             	mov    bx,0x26de
    259c:	01 cb                	add    bx,cx
    259e:	8a 07                	mov    al,BYTE PTR [bx]
    25a0:	9f                   	lahf   
    25a1:	86 e0                	xchg   al,ah
    25a3:	50                   	push   ax
    25a4:	86 e0                	xchg   al,ah
    25a6:	3c 16                	cmp    al,0x16
    25a8:	75 09                	jne    0x25b3
    25aa:	e8 ef ef             	call   0x159c
    25ad:	31 0d                	xor    WORD PTR [di],cx
    25af:	80 e9 06             	sub    cl,0x6
    25b2:	00 e8                	add    al,ch
    25b4:	e6 ef                	out    0xef,al
    25b6:	30 0d                	xor    BYTE PTR [di],cl
    25b8:	80 58 86 e0          	sbb    BYTE PTR [bx+si-0x7a],0xe0
    25bc:	9e                   	sahf   
    25bd:	e8 5f 0a             	call   0x301f
    25c0:	e8 a6 df             	call   0x569
    25c3:	e8 d6 ef             	call   0x159c
    25c6:	0d 80 c3             	or     ax,0xc380
    25c9:	b1 c0                	mov    cl,0xc0
    25cb:	b5 04                	mov    ch,0x4
    25cd:	b0 14                	mov    al,0x14
    25cf:	e8 84 06             	call   0x2c56
    25d2:	e8 c7 ef             	call   0x159c
    25d5:	0d 56 0d             	or     ax,0xd56
    25d8:	80 c3 72             	add    bl,0x72
    25db:	73 74                	jae    0x2651
    25dd:	71 01                	jno    0x25e0
    25df:	16                   	push   ss
    25e0:	17                   	pop    ss
    25e1:	00 44 49             	add    BYTE PTR [si+0x49],al
    25e4:	46                   	inc    si
    25e5:	80 56 43 20          	adc    BYTE PTR [bp+0x43],0x20
    25e9:	44                   	inc    sp
    25ea:	49                   	dec    cx
    25eb:	46                   	inc    si
    25ec:	50                   	push   ax
    25ed:	52                   	push   dx
    25ee:	46                   	inc    si
    25ef:	3f                   	aas    
    25f0:	3f                   	aas    
    25f1:	3f                   	aas    
    25f2:	b0 80                	mov    al,0x80
    25f4:	ba e6 26             	mov    dx,0x26e6
    25f7:	e9 25 00             	jmp    0x261f
    25fa:	b0 80                	mov    al,0x80
    25fc:	ba ef 26             	mov    dx,0x26ef
    25ff:	e9 1d 00             	jmp    0x261f
    2602:	b0 80                	mov    al,0x80
    2604:	ba e9 26             	mov    dx,0x26e9
    2607:	e9 15 00             	jmp    0x261f
    260a:	b0 40                	mov    al,0x40
    260c:	ba e6 26             	mov    dx,0x26e6
    260f:	e9 0d 00             	jmp    0x261f
    2612:	b0 40                	mov    al,0x40
    2614:	ba e9 26             	mov    dx,0x26e9
    2617:	e9 05 00             	jmp    0x261f
    261a:	b0 40                	mov    al,0x40
    261c:	ba ec 26             	mov    dx,0x26ec
    261f:	88 06 77 74          	mov    BYTE PTR ds:0x7477,al
    2623:	89 16 78 74          	mov    WORD PTR ds:0x7478,dx
    2627:	e8 6f f1             	call   0x1799
    262a:	e8 6c 20             	call   0x4699
    262d:	73 03                	jae    0x2632
    262f:	b0 03                	mov    al,0x3
    2631:	c3                   	ret    
    2632:	8a 45 a8             	mov    al,BYTE PTR [di-0x58]
    2635:	9f                   	lahf   
    2636:	86 e0                	xchg   al,ah
    2638:	50                   	push   ax
    2639:	86 e0                	xchg   al,ah
    263b:	e8 0c db             	call   0x14a
    263e:	58                   	pop    ax
    263f:	86 e0                	xchg   al,ah
    2641:	9e                   	sahf   
    2642:	bb 79 27             	mov    bx,0x2779
    2645:	b9 04 00             	mov    cx,0x4
    2648:	3a 07                	cmp    al,BYTE PTR [bx]
    264a:	9c                   	pushf  
    264b:	43                   	inc    bx
    264c:	9d                   	popf   
    264d:	e0 f9                	loopne 0x2648
    264f:	75 03                	jne    0x2654
    2651:	e9 1e 00             	jmp    0x2672
    2654:	e8 f9 02             	call   0x2950
    2657:	e8 23 00             	call   0x267d
    265a:	73 01                	jae    0x265d
    265c:	c3                   	ret    
    265d:	e8 39 00             	call   0x2699
    2660:	72 01                	jb     0x2663
    2662:	c3                   	ret    
    2663:	3c 10                	cmp    al,0x10
    2665:	75 09                	jne    0x2670
    2667:	bb f1 27             	mov    bx,0x27f1
    266a:	e8 c4 3f             	call   0x6631
    266d:	72 01                	jb     0x2670
    266f:	c3                   	ret    
    2670:	f9                   	stc    
    2671:	c3                   	ret    
    2672:	e8 cb 30             	call   0x5740
    2675:	f8                   	clc    
    2676:	e9 b1 ff             	jmp    0x262a
    2679:	03 01                	add    ax,WORD PTR [bx+di]
    267b:	04 06                	add    al,0x6
    267d:	8a 06 77 74          	mov    al,BYTE PTR ds:0x7477
    2681:	3c 40                	cmp    al,0x40
    2683:	75 13                	jne    0x2698
    2685:	88 06 81 74          	mov    BYTE PTR ds:0x7481,al
    2689:	e8 36 00             	call   0x26c2
    268c:	73 01                	jae    0x268f
    268e:	c3                   	ret    
    268f:	8a 06 81 74          	mov    al,BYTE PTR ds:0x7481
    2693:	88 06 77 74          	mov    BYTE PTR ds:0x7477,al
    2697:	f8                   	clc    
    2698:	c3                   	ret    
    2699:	8a 45 b6             	mov    al,BYTE PTR [di-0x4a]
    269c:	2c 7d                	sub    al,0x7d
    269e:	f6 d8                	neg    al
    26a0:	88 06 7c 74          	mov    BYTE PTR ds:0x747c,al
    26a4:	bb 87 6d             	mov    bx,0x6d87
    26a7:	89 1e 7a 74          	mov    WORD PTR ds:0x747a,bx
    26ab:	8a 06 7c 74          	mov    al,BYTE PTR ds:0x747c
    26af:	8a c8                	mov    cl,al
    26b1:	b5 00                	mov    ch,0x0
    26b3:	8a 06 77 74          	mov    al,BYTE PTR ds:0x7477
    26b7:	8b 16 78 74          	mov    dx,WORD PTR ds:0x7478
    26bb:	8b 1e 7a 74          	mov    bx,WORD PTR ds:0x747a
    26bf:	e9 c3 39             	jmp    0x6085
    26c2:	b0 80                	mov    al,0x80
    26c4:	88 06 77 74          	mov    BYTE PTR ds:0x7477,al
    26c8:	e8 ce ff             	call   0x2699
    26cb:	73 02                	jae    0x26cf
    26cd:	f8                   	clc    
    26ce:	c3                   	ret    
    26cf:	bb 53 4b             	mov    bx,0x4b53
    26d2:	e8 06 2f             	call   0x55db
    26d5:	59                   	pop    cx
    26d6:	e3 27                	jcxz   0x26ff
    26d8:	ff                   	(bad)  
    26d9:	e8 6e da             	call   0x14a
    26dc:	e8 61 30             	call   0x5740
    26df:	b0 03                	mov    al,0x3
    26e1:	f9                   	stc    
    26e2:	c3                   	ret    
    26e3:	e8 b3 ff             	call   0x2699
    26e6:	73 01                	jae    0x26e9
    26e8:	c3                   	ret    
    26e9:	e8 db 3a             	call   0x61c7
    26ec:	73 01                	jae    0x26ef
    26ee:	c3                   	ret    
    26ef:	f8                   	clc    
    26f0:	c3                   	ret    
    26f1:	52                   	push   dx
    26f2:	e8 a4 f0             	call   0x1799
    26f5:	5a                   	pop    dx
    26f6:	8b ea                	mov    bp,dx
    26f8:	8a 46 00             	mov    al,BYTE PTR [bp+0x0]
    26fb:	3c 0d                	cmp    al,0xd
    26fd:	74 07                	je     0x2706
    26ff:	e8 4d ee             	call   0x154f
    2702:	42                   	inc    dx
    2703:	e9 f0 ff             	jmp    0x26f6
    2706:	e8 d5 2e             	call   0x55de
    2709:	02 46 28             	add    al,BYTE PTR [bp+0x28]
    270c:	04 3f                	add    al,0x3f
    270e:	28 01                	sub    BYTE PTR [bx+di],al
    2710:	3f                   	aas    
    2711:	28 03                	sub    BYTE PTR [bp+di],al
    2713:	3f                   	aas    
    2714:	28 06 3f 28          	sub    BYTE PTR ds:0x283f,al
    2718:	ff                   	(bad)  
    2719:	e8 fe d9             	call   0x11a
    271c:	8a 06 9d 73          	mov    al,BYTE PTR ds:0x739d
    2720:	08 c0                	or     al,al
    2722:	74 04                	je     0x2728
    2724:	b0 02                	mov    al,0x2
    2726:	f9                   	stc    
    2727:	c3                   	ret    
    2728:	e8 ff fe             	call   0x262a
    272b:	73 0f                	jae    0x273c
    272d:	3c 03                	cmp    al,0x3
    272f:	75 05                	jne    0x2736
    2731:	b0 02                	mov    al,0x2
    2733:	e9 04 00             	jmp    0x273a
    2736:	8a e8                	mov    ch,al
    2738:	b0 03                	mov    al,0x3
    273a:	f9                   	stc    
    273b:	c3                   	ret    
    273c:	b0 04                	mov    al,0x4
    273e:	c3                   	ret    
    273f:	e8 fe 2f             	call   0x5740
    2742:	f8                   	clc    
    2743:	e9 c0 ff             	jmp    0x2706
    2746:	b0 05                	mov    al,0x5
    2748:	f9                   	stc    
    2749:	c3                   	ret    
    274a:	b0 40                	mov    al,0x40
    274c:	88 06 77 74          	mov    BYTE PTR ds:0x7477,al
    2750:	ba ec 26             	mov    dx,0x26ec
    2753:	89 16 78 74          	mov    WORD PTR ds:0x7478,dx
    2757:	89 1e 7a 74          	mov    WORD PTR ds:0x747a,bx
    275b:	8a c1                	mov    al,cl
    275d:	88 06 7c 74          	mov    BYTE PTR ds:0x747c,al
    2761:	e8 47 ff             	call   0x26ab
    2764:	c3                   	ret    
    2765:	9f                   	lahf   
    2766:	86 e0                	xchg   al,ah
    2768:	50                   	push   ax
    2769:	86 e0                	xchg   al,ah
    276b:	e8 ee 39             	call   0x615c
    276e:	58                   	pop    ax
    276f:	86 e0                	xchg   al,ah
    2771:	9e                   	sahf   
    2772:	3c 03                	cmp    al,0x3
    2774:	75 01                	jne    0x2777
    2776:	c3                   	ret    
    2777:	8a e8                	mov    ch,al
    2779:	bb e9 28             	mov    bx,0x28e9
    277c:	8a 07                	mov    al,BYTE PTR [bx]
    277e:	43                   	inc    bx
    277f:	3c ff                	cmp    al,0xff
    2781:	74 11                	je     0x2794
    2783:	38 e8                	cmp    al,ch
    2785:	74 0d                	je     0x2794
    2787:	f6 07 80             	test   BYTE PTR [bx],0x80
    278a:	75 04                	jne    0x2790
    278c:	43                   	inc    bx
    278d:	e9 f7 ff             	jmp    0x2787
    2790:	43                   	inc    bx
    2791:	e9 e8 ff             	jmp    0x277c
    2794:	9f                   	lahf   
    2795:	86 e0                	xchg   al,ah
    2797:	50                   	push   ax
    2798:	86 e0                	xchg   al,ah
    279a:	53                   	push   bx
    279b:	b0 0a                	mov    al,0xa
    279d:	e8 fc ec             	call   0x149c
    27a0:	e8 f9 ed             	call   0x159c
    27a3:	20 80 80 4d          	and    BYTE PTR [bx+si+0x4d80],al
    27a7:	b7 80                	mov    bh,0x80
    27a9:	e8 f0 ed             	call   0x159c
    27ac:	45                   	inc    bp
    27ad:	52                   	push   dx
    27ae:	52                   	push   dx
    27af:	4f                   	dec    di
    27b0:	52                   	push   dx
    27b1:	3a 20                	cmp    ah,BYTE PTR [bx+si]
    27b3:	80 5b 58 86          	sbb    BYTE PTR [bp+di+0x58],0x86
    27b7:	e0 9e                	loopne 0x2757
    27b9:	3c ff                	cmp    al,0xff
    27bb:	75 10                	jne    0x27cd
    27bd:	e8 dc ed             	call   0x159c
    27c0:	49                   	dec    cx
    27c1:	2f                   	das    
    27c2:	4f                   	dec    di
    27c3:	20 65 72             	and    BYTE PTR [di+0x72],ah
    27c6:	72 6f                	jb     0x2837
    27c8:	72 80                	jb     0x274a
    27ca:	e9 0e 00             	jmp    0x27db
    27cd:	8a 07                	mov    al,BYTE PTR [bx]
    27cf:	f6 c0 80             	test   al,0x80
    27d2:	75 07                	jne    0x27db
    27d4:	e8 78 ed             	call   0x154f
    27d7:	43                   	inc    bx
    27d8:	e9 f2 ff             	jmp    0x27cd
    27db:	e8 29 db             	call   0x307
    27de:	e8 5f 2f             	call   0x5740
    27e1:	e8 7a d9             	call   0x15e
    27e4:	e8 82 ef             	call   0x1769
    27e7:	f9                   	stc    
    27e8:	c3                   	ret    
    27e9:	07                   	pop    es
    27ea:	42                   	inc    dx
    27eb:	61                   	popa   
    27ec:	64 20 66 69          	and    BYTE PTR fs:[bp+0x69],ah
    27f0:	6c                   	ins    BYTE PTR es:[di],dx
    27f1:	65 20 6e 61          	and    BYTE PTR gs:[bp+0x61],ch
    27f5:	6d                   	ins    WORD PTR es:[di],dx
    27f6:	65 80 01 46          	add    BYTE PTR gs:[bx+di],0x46
    27fa:	69 6c 65 20 6e       	imul   bp,WORD PTR [si+0x65],0x6e20
    27ff:	6f                   	outs   dx,WORD PTR ds:[si]
    2800:	74 20                	je     0x2822
    2802:	66 6f                	outs   dx,DWORD PTR ds:[si]
    2804:	75 6e                	jne    0x2874
    2806:	64 80 0c 52          	or     BYTE PTR fs:[si],0x52
    280a:	65 61                	gs popa 
    280c:	64 20 65 72          	and    BYTE PTR fs:[di+0x72],ah
    2810:	72 6f                	jb     0x2881
    2812:	72 80                	jb     0x2794
    2814:	0e                   	push   cs
    2815:	57                   	push   di
    2816:	72 69                	jb     0x2881
    2818:	74 65                	je     0x287f
    281a:	20 70 72             	and    BYTE PTR [bx+si+0x72],dh
    281d:	6f                   	outs   dx,WORD PTR ds:[si]
    281e:	74 65                	je     0x2885
    2820:	63 74 65             	arpl   WORD PTR [si+0x65],si
    2823:	64 80 05 44          	add    BYTE PTR fs:[di],0x44
    2827:	69 73 6b 20 66       	imul   si,WORD PTR [bp+di+0x6b],0x6620
    282c:	75 6c                	jne    0x289a
    282e:	6c                   	ins    BYTE PTR es:[di],dx
    282f:	80 16 44 65 76       	adc    BYTE PTR ds:0x6544,0x76
    2834:	69 63 65 20 6e       	imul   sp,WORD PTR [bp+di+0x65],0x6e20
    2839:	6f                   	outs   dx,WORD PTR ds:[si]
    283a:	74 20                	je     0x285c
    283c:	61                   	popa   
    283d:	76 61                	jbe    0x28a0
    283f:	69 6c 61 62 6c       	imul   bp,WORD PTR [si+0x61],0x6c62
    2844:	65 80 1d 50          	sbb    BYTE PTR gs:[di],0x50
    2848:	61                   	popa   
    2849:	73 73                	jae    0x28be
    284b:	77 6f                	ja     0x28bc
    284d:	72 64                	jb     0x28b3
    284f:	20 72 65             	and    BYTE PTR [bp+si+0x65],dh
    2852:	71 75                	jno    0x28c9
    2854:	69 72 65 64 80       	imul   si,WORD PTR [bp+si+0x65],0x8064
    2859:	20 52 65             	and    BYTE PTR [bp+si+0x65],dl
    285c:	61                   	popa   
    285d:	64 20 6f 6e          	and    BYTE PTR fs:[bx+0x6e],ch
    2861:	6c                   	ins    BYTE PTR es:[di],dx
    2862:	79 20                	jns    0x2884
    2864:	66 69 6c 65 80 1f 53 	imul   ebp,DWORD PTR [si+0x65],0x79531f80
    286b:	79 
    286c:	73 74                	jae    0x28e2
    286e:	65 6d                	gs ins WORD PTR es:[di],dx
    2870:	20 66 69             	and    BYTE PTR [bp+0x69],ah
    2873:	6c                   	ins    BYTE PTR es:[di],dx
    2874:	65 80 0d 44          	or     BYTE PTR gs:[di],0x44
    2878:	72 69                	jb     0x28e3
    287a:	76 65                	jbe    0x28e1
    287c:	20 65 72             	and    BYTE PTR [di+0x72],ah
    287f:	72 6f                	jb     0x28f0
    2881:	72 80                	jb     0x2803
    2883:	03 80 ff 88          	add    ax,WORD PTR [bx+si-0x7701]
    2887:	06                   	push   es
    2888:	80 74 e8 8d          	xor    BYTE PTR [si-0x18],0x8d
    288c:	d8 bb 7d 74          	fdivr  DWORD PTR [bp+di+0x747d]
    2890:	f6 07 80             	test   BYTE PTR [bx],0x80
    2893:	74 07                	je     0x289c
    2895:	e8 1c 00             	call   0x28b4
    2898:	8a 06 80 74          	mov    al,BYTE PTR ds:0x7480
    289c:	e8 5b 39             	call   0x61fa
    289f:	73 0d                	jae    0x28ae
    28a1:	e8 c1 fe             	call   0x2765
    28a4:	b0 80                	mov    al,0x80
    28a6:	88 06 9d 73          	mov    BYTE PTR ds:0x739d,al
    28aa:	f9                   	stc    
    28ab:	e9 01 00             	jmp    0x28af
    28ae:	f8                   	clc    
    28af:	8a 06 80 74          	mov    al,BYTE PTR ds:0x7480
    28b3:	c3                   	ret    
    28b4:	3c 20                	cmp    al,0x20
    28b6:	75 08                	jne    0x28c0
    28b8:	bb 7e 74             	mov    bx,0x747e
    28bb:	fe 07                	inc    BYTE PTR [bx]
    28bd:	5b                   	pop    bx
    28be:	f8                   	clc    
    28bf:	c3                   	ret    
    28c0:	3c 0d                	cmp    al,0xd
    28c2:	74 0a                	je     0x28ce
    28c4:	e8 29 00             	call   0x28f0
    28c7:	73 02                	jae    0x28cb
    28c9:	5b                   	pop    bx
    28ca:	c3                   	ret    
    28cb:	e9 1b 00             	jmp    0x28e9
    28ce:	bb 7f 74             	mov    bx,0x747f
    28d1:	f6 07 80             	test   BYTE PTR [bx],0x80
    28d4:	75 0d                	jne    0x28e3
    28d6:	b0 01                	mov    al,0x1
    28d8:	88 06 7e 74          	mov    BYTE PTR ds:0x747e,al
    28dc:	e8 11 00             	call   0x28f0
    28df:	73 02                	jae    0x28e3
    28e1:	5b                   	pop    bx
    28e2:	c3                   	ret    
    28e3:	bb 7f 74             	mov    bx,0x747f
    28e6:	80 27 7f             	and    BYTE PTR [bx],0x7f
    28e9:	b0 00                	mov    al,0x0
    28eb:	88 06 7e 74          	mov    BYTE PTR ds:0x747e,al
    28ef:	c3                   	ret    
    28f0:	bb 7f 74             	mov    bx,0x747f
    28f3:	80 0f 80             	or     BYTE PTR [bx],0x80
    28f6:	bb 7d 74             	mov    bx,0x747d
    28f9:	d0 2f                	shr    BYTE PTR [bx],1
    28fb:	f8                   	clc    
    28fc:	8a 06 7e 74          	mov    al,BYTE PTR ds:0x747e
    2900:	08 c0                	or     al,al
    2902:	74 1f                	je     0x2923
    2904:	8a 06 80 74          	mov    al,BYTE PTR ds:0x7480
    2908:	9f                   	lahf   
    2909:	86 e0                	xchg   al,ah
    290b:	50                   	push   ax
    290c:	86 e0                	xchg   al,ah
    290e:	b0 20                	mov    al,0x20
    2910:	e8 73 ff             	call   0x2886
    2913:	5b                   	pop    bx
    2914:	8a c7                	mov    al,bh
    2916:	88 06 80 74          	mov    BYTE PTR ds:0x7480,al
    291a:	72 07                	jb     0x2923
    291c:	bb 7e 74             	mov    bx,0x747e
    291f:	fe 0f                	dec    BYTE PTR [bx]
    2921:	75 e1                	jne    0x2904
    2923:	9f                   	lahf   
    2924:	86 e0                	xchg   al,ah
    2926:	50                   	push   ax
    2927:	86 e0                	xchg   al,ah
    2929:	bb 7d 74             	mov    bx,0x747d
    292c:	d0 27                	shl    BYTE PTR [bx],1
    292e:	58                   	pop    ax
    292f:	86 e0                	xchg   al,ah
    2931:	9e                   	sahf   
    2932:	c3                   	ret    
    2933:	9f                   	lahf   
    2934:	86 e0                	xchg   al,ah
    2936:	50                   	push   ax
    2937:	86 e0                	xchg   al,ah
    2939:	bb 7f 74             	mov    bx,0x747f
    293c:	80 27 7f             	and    BYTE PTR [bx],0x7f
    293f:	bb 7d 74             	mov    bx,0x747d
    2942:	80 0f 80             	or     BYTE PTR [bx],0x80
    2945:	b0 00                	mov    al,0x0
    2947:	88 06 7e 74          	mov    BYTE PTR ds:0x747e,al
    294b:	58                   	pop    ax
    294c:	86 e0                	xchg   al,ah
    294e:	9e                   	sahf   
    294f:	c3                   	ret    
    2950:	bb 7d 74             	mov    bx,0x747d
    2953:	80 27 7f             	and    BYTE PTR [bx],0x7f
    2956:	c3                   	ret    
    2957:	e8 03 00             	call   0x295d
    295a:	e9 3e 2e             	jmp    0x579b
    295d:	e8 90 1d             	call   0x46f0
    2960:	e8 85 1d             	call   0x46e8
    2963:	e8 92 1d             	call   0x46f8
    2966:	e8 ea 2d             	call   0x5753
    2969:	e8 12 40             	call   0x697e
    296c:	e8 46 02             	call   0x2bb5
    296f:	e8 4d 00             	call   0x29bf
    2972:	80 65 a3 7f          	and    BYTE PTR [di-0x5d],0x7f
    2976:	e8 13 00             	call   0x298c
    2979:	8a 45 99             	mov    al,BYTE PTR [di-0x67]
    297c:	08 c0                	or     al,al
    297e:	74 09                	je     0x2989
    2980:	e8 20 33             	call   0x5ca3
    2983:	e8 06 00             	call   0x298c
    2986:	e8 1a 33             	call   0x5ca3
    2989:	e9 39 2e             	jmp    0x57c5
    298c:	80 65 a5 7f          	and    BYTE PTR [di-0x5b],0x7f
    2990:	e8 c0 2d             	call   0x5753
    2993:	e8 46 2e             	call   0x57dc
    2996:	b0 00                	mov    al,0x0
    2998:	88 44 04             	mov    BYTE PTR [si+0x4],al
    299b:	b0 00                	mov    al,0x0
    299d:	88 44 05             	mov    BYTE PTR [si+0x5],al
    29a0:	e8 5b 00             	call   0x29fe
    29a3:	fe 44 05             	inc    BYTE PTR [si+0x5]
    29a6:	8a 44 05             	mov    al,BYTE PTR [si+0x5]
    29a9:	3a 44 0b             	cmp    al,BYTE PTR [si+0xb]
    29ac:	72 f2                	jb     0x29a0
    29ae:	fe 44 04             	inc    BYTE PTR [si+0x4]
    29b1:	8a 44 04             	mov    al,BYTE PTR [si+0x4]
    29b4:	3a 44 0a             	cmp    al,BYTE PTR [si+0xa]
    29b7:	72 e2                	jb     0x299b
    29b9:	e8 36 2e             	call   0x57f2
    29bc:	e9 57 2e             	jmp    0x5816
    29bf:	b7 00                	mov    bh,0x0
    29c1:	b3 4e                	mov    bl,0x4e
    29c3:	8a 45 a0             	mov    al,BYTE PTR [di-0x60]
    29c6:	e8 4f 3f             	call   0x6918
    29c9:	b0 20                	mov    al,0x20
    29cb:	e8 4f 3f             	call   0x691d
    29ce:	e9 92 1d             	jmp    0x4763
    29d1:	e8 42 2e             	call   0x5816
    29d4:	72 03                	jb     0x29d9
    29d6:	e8 46 00             	call   0x2a1f
    29d9:	8a 45 99             	mov    al,BYTE PTR [di-0x67]
    29dc:	08 c0                	or     al,al
    29de:	74 09                	je     0x29e9
    29e0:	e8 c0 32             	call   0x5ca3
    29e3:	e8 39 00             	call   0x2a1f
    29e6:	e8 ba 32             	call   0x5ca3
    29e9:	c3                   	ret    
    29ea:	8a 45 9f             	mov    al,BYTE PTR [di-0x61]
    29ed:	9f                   	lahf   
    29ee:	86 e0                	xchg   al,ah
    29f0:	50                   	push   ax
    29f1:	86 e0                	xchg   al,ah
    29f3:	e8 08 00             	call   0x29fe
    29f6:	58                   	pop    ax
    29f7:	86 e0                	xchg   al,ah
    29f9:	9e                   	sahf   
    29fa:	88 45 9f             	mov    BYTE PTR [di-0x61],al
    29fd:	c3                   	ret    
    29fe:	e8 5a 2d             	call   0x575b
    2a01:	73 1c                	jae    0x2a1f
    2a03:	8a 45 bb             	mov    al,BYTE PTR [di-0x45]
    2a06:	9f                   	lahf   
    2a07:	86 e0                	xchg   al,ah
    2a09:	50                   	push   ax
    2a0a:	86 e0                	xchg   al,ah
    2a0c:	e8 51 2e             	call   0x5860
    2a0f:	b0 0f                	mov    al,0xf
    2a11:	e8 88 ea             	call   0x149c
    2a14:	e8 c9 ed             	call   0x17e0
    2a17:	58                   	pop    ax
    2a18:	86 e0                	xchg   al,ah
    2a1a:	9e                   	sahf   
    2a1b:	e8 fb ea             	call   0x1519
    2a1e:	c3                   	ret    
    2a1f:	f6 45 a3 80          	test   BYTE PTR [di-0x5d],0x80
    2a23:	74 01                	je     0x2a26
    2a25:	c3                   	ret    
    2a26:	e8 ed 2d             	call   0x5816
    2a29:	e8 e0 ea             	call   0x150c
    2a2c:	73 01                	jae    0x2a2f
    2a2e:	c3                   	ret    
    2a2f:	8a 45 bb             	mov    al,BYTE PTR [di-0x45]
    2a32:	9f                   	lahf   
    2a33:	86 e0                	xchg   al,ah
    2a35:	50                   	push   ax
    2a36:	86 e0                	xchg   al,ah
    2a38:	b0 0f                	mov    al,0xf
    2a3a:	e8 5f ea             	call   0x149c
    2a3d:	e8 07 00             	call   0x2a47
    2a40:	58                   	pop    ax
    2a41:	86 e0                	xchg   al,ah
    2a43:	9e                   	sahf   
    2a44:	e9 d2 ea             	jmp    0x1519
    2a47:	e8 96 ed             	call   0x17e0
    2a4a:	e8 b4 da             	call   0x501
    2a4d:	e8 43 19             	call   0x4393
    2a50:	e8 00 2d             	call   0x5753
    2a53:	8a 44 29             	mov    al,BYTE PTR [si+0x29]
    2a56:	08 c0                	or     al,al
    2a58:	74 05                	je     0x2a5f
    2a5a:	8a 44 28             	mov    al,BYTE PTR [si+0x28]
    2a5d:	08 c0                	or     al,al
    2a5f:	75 03                	jne    0x2a64
    2a61:	e9 9f 00             	jmp    0x2b03
    2a64:	8a 06 02 72          	mov    al,BYTE PTR ds:0x7202
    2a68:	08 c0                	or     al,al
    2a6a:	78 32                	js     0x2a9e
    2a6c:	e8 a0 da             	call   0x50f
    2a6f:	bb 03 72             	mov    bx,0x7203
    2a72:	8a 07                	mov    al,BYTE PTR [bx]
    2a74:	08 c0                	or     al,al
    2a76:	78 19                	js     0x2a91
    2a78:	e8 2d 1e             	call   0x48a8
    2a7b:	43                   	inc    bx
    2a7c:	ba e6 73             	mov    dx,0x73e6
    2a7f:	8a 07                	mov    al,BYTE PTR [bx]
    2a81:	8a e8                	mov    ch,al
    2a83:	24 7f                	and    al,0x7f
    2a85:	8b ea                	mov    bp,dx
    2a87:	88 46 00             	mov    BYTE PTR [bp+0x0],al
    2a8a:	43                   	inc    bx
    2a8b:	4a                   	dec    dx
    2a8c:	f6 c5 80             	test   ch,0x80
    2a8f:	74 ee                	je     0x2a7f
    2a91:	e8 b1 2c             	call   0x5745
    2a94:	fe c8                	dec    al
    2a96:	8a 6d 9f             	mov    ch,BYTE PTR [di-0x61]
    2a99:	b1 00                	mov    cl,0x0
    2a9b:	e9 b8 01             	jmp    0x2c56
    2a9e:	3c f0                	cmp    al,0xf0
    2aa0:	74 4c                	je     0x2aee
    2aa2:	3c 80                	cmp    al,0x80
    2aa4:	75 27                	jne    0x2acd
    2aa6:	8a 45 9f             	mov    al,BYTE PTR [di-0x61]
    2aa9:	08 c0                	or     al,al
    2aab:	75 03                	jne    0x2ab0
    2aad:	8a 45 95             	mov    al,BYTE PTR [di-0x6b]
    2ab0:	3c 05                	cmp    al,0x5
    2ab2:	75 16                	jne    0x2aca
    2ab4:	bb 03 72             	mov    bx,0x7203
    2ab7:	b5 00                	mov    ch,0x0
    2ab9:	8a 07                	mov    al,BYTE PTR [bx]
    2abb:	3c ff                	cmp    al,0xff
    2abd:	74 06                	je     0x2ac5
    2abf:	43                   	inc    bx
    2ac0:	fe c5                	inc    ch
    2ac2:	e9 f4 ff             	jmp    0x2ab9
    2ac5:	8a c5                	mov    al,ch
    2ac7:	e8 07 eb             	call   0x15d1
    2aca:	e9 22 00             	jmp    0x2aef
    2acd:	3c 90                	cmp    al,0x90
    2acf:	75 1a                	jne    0x2aeb
    2ad1:	f6 45 b3 80          	test   BYTE PTR [di-0x4d],0x80
    2ad5:	74 10                	je     0x2ae7
    2ad7:	8a 06 03 72          	mov    al,BYTE PTR ds:0x7203
    2adb:	3c ff                	cmp    al,0xff
    2add:	74 05                	je     0x2ae4
    2adf:	e8 0d 00             	call   0x2aef
    2ae2:	73 fb                	jae    0x2adf
    2ae4:	e9 03 00             	jmp    0x2aea
    2ae7:	e8 05 00             	call   0x2aef
    2aea:	c3                   	ret    
    2aeb:	e8 4c 2c             	call   0x573a
    2aee:	c3                   	ret    
    2aef:	bb 03 72             	mov    bx,0x7203
    2af2:	8a 07                	mov    al,BYTE PTR [bx]
    2af4:	43                   	inc    bx
    2af5:	3c ff                	cmp    al,0xff
    2af7:	75 02                	jne    0x2afb
    2af9:	f8                   	clc    
    2afa:	c3                   	ret    
    2afb:	53                   	push   bx
    2afc:	e8 50 ea             	call   0x154f
    2aff:	5b                   	pop    bx
    2b00:	73 f0                	jae    0x2af2
    2b02:	c3                   	ret    
    2b03:	e8 ad eb             	call   0x16b3
    2b06:	8a 44 29             	mov    al,BYTE PTR [si+0x29]
    2b09:	08 c0                	or     al,al
    2b0b:	74 36                	je     0x2b43
    2b0d:	f6 45 b3 80          	test   BYTE PTR [di-0x4d],0x80
    2b11:	74 0a                	je     0x2b1d
    2b13:	8a 45 c4             	mov    al,BYTE PTR [di-0x3c]
    2b16:	d0 e8                	shr    al,1
    2b18:	8a e8                	mov    ch,al
    2b1a:	e8 bd ea             	call   0x15da
    2b1d:	8a 44 29             	mov    al,BYTE PTR [si+0x29]
    2b20:	b5 00                	mov    ch,0x0
    2b22:	2c 1a                	sub    al,0x1a
    2b24:	7e 05                	jle    0x2b2b
    2b26:	fe c5                	inc    ch
    2b28:	e9 f7 ff             	jmp    0x2b22
    2b2b:	04 1a                	add    al,0x1a
    2b2d:	8a c8                	mov    cl,al
    2b2f:	8a c5                	mov    al,ch
    2b31:	08 c0                	or     al,al
    2b33:	74 07                	je     0x2b3c
    2b35:	51                   	push   cx
    2b36:	0c 40                	or     al,0x40
    2b38:	e8 14 ea             	call   0x154f
    2b3b:	59                   	pop    cx
    2b3c:	8a c1                	mov    al,cl
    2b3e:	0c 40                	or     al,0x40
    2b40:	e8 0c ea             	call   0x154f
    2b43:	8a 44 28             	mov    al,BYTE PTR [si+0x28]
    2b46:	08 c0                	or     al,al
    2b48:	74 15                	je     0x2b5f
    2b4a:	e8 87 da             	call   0x5d4
    2b4d:	b1 80                	mov    cl,0x80
    2b4f:	8a 44 29             	mov    al,BYTE PTR [si+0x29]
    2b52:	08 c0                	or     al,al
    2b54:	74 02                	je     0x2b58
    2b56:	b1 c0                	mov    cl,0xc0
    2b58:	b5 02                	mov    ch,0x2
    2b5a:	b0 03                	mov    al,0x3
    2b5c:	e8 f7 00             	call   0x2c56
    2b5f:	c3                   	ret    
    2b60:	e8 f0 2b             	call   0x5753
    2b63:	8a 44 2d             	mov    al,BYTE PTR [si+0x2d]
    2b66:	3a 44 29             	cmp    al,BYTE PTR [si+0x29]
    2b69:	75 09                	jne    0x2b74
    2b6b:	8a 44 2c             	mov    al,BYTE PTR [si+0x2c]
    2b6e:	3a 44 28             	cmp    al,BYTE PTR [si+0x28]
    2b71:	75 01                	jne    0x2b74
    2b73:	c3                   	ret    
    2b74:	8b 5c 28             	mov    bx,WORD PTR [si+0x28]
    2b77:	89 5c 2c             	mov    WORD PTR [si+0x2c],bx
    2b7a:	8a 45 bb             	mov    al,BYTE PTR [di-0x45]
    2b7d:	9f                   	lahf   
    2b7e:	86 e0                	xchg   al,ah
    2b80:	50                   	push   ax
    2b81:	86 e0                	xchg   al,ah
    2b83:	b0 05                	mov    al,0x5
    2b85:	e8 14 e9             	call   0x149c
    2b88:	e8 7b ff             	call   0x2b06
    2b8b:	e8 2d 00             	call   0x2bbb
    2b8e:	58                   	pop    ax
    2b8f:	86 e0                	xchg   al,ah
    2b91:	9e                   	sahf   
    2b92:	e9 84 e9             	jmp    0x1519
    2b95:	e8 bb 2b             	call   0x5753
    2b98:	8a 45 bb             	mov    al,BYTE PTR [di-0x45]
    2b9b:	9f                   	lahf   
    2b9c:	86 e0                	xchg   al,ah
    2b9e:	50                   	push   ax
    2b9f:	86 e0                	xchg   al,ah
    2ba1:	b0 0a                	mov    al,0xa
    2ba3:	e8 f6 e8             	call   0x149c
    2ba6:	e8 12 00             	call   0x2bbb
    2ba9:	58                   	pop    ax
    2baa:	86 e0                	xchg   al,ah
    2bac:	9e                   	sahf   
    2bad:	e8 69 e9             	call   0x1519
    2bb0:	8a 06 02 72          	mov    al,BYTE PTR ds:0x7202
    2bb4:	c3                   	ret    
    2bb5:	b0 41                	mov    al,0x41
    2bb7:	88 44 2d             	mov    BYTE PTR [si+0x2d],al
    2bba:	c3                   	ret    
    2bbb:	8a 45 bb             	mov    al,BYTE PTR [di-0x45]
    2bbe:	3c 0a                	cmp    al,0xa
    2bc0:	74 0a                	je     0x2bcc
    2bc2:	8a 45 9f             	mov    al,BYTE PTR [di-0x61]
    2bc5:	08 c0                	or     al,al
    2bc7:	74 03                	je     0x2bcc
    2bc9:	e8 5e f4             	call   0x202a
    2bcc:	8a 45 bb             	mov    al,BYTE PTR [di-0x45]
    2bcf:	3c 05                	cmp    al,0x5
    2bd1:	75 05                	jne    0x2bd8
    2bd3:	b0 20                	mov    al,0x20
    2bd5:	e8 77 e9             	call   0x154f
    2bd8:	8a 06 02 72          	mov    al,BYTE PTR ds:0x7202
    2bdc:	08 c0                	or     al,al
    2bde:	78 03                	js     0x2be3
    2be0:	e9 4d 00             	jmp    0x2c30
    2be3:	8a 06 02 72          	mov    al,BYTE PTR ds:0x7202
    2be7:	3c 80                	cmp    al,0x80
    2be9:	75 1f                	jne    0x2c0a
    2beb:	8a 45 bb             	mov    al,BYTE PTR [di-0x45]
    2bee:	3c 0a                	cmp    al,0xa
    2bf0:	74 15                	je     0x2c07
    2bf2:	3c 05                	cmp    al,0x5
    2bf4:	75 0c                	jne    0x2c02
    2bf6:	e8 a3 e9             	call   0x159c
    2bf9:	20 28                	and    BYTE PTR [bx+si],ch
    2bfb:	4c                   	dec    sp
    2bfc:	29 20                	sub    WORD PTR [bx+si],sp
    2bfe:	80 e9 05             	sub    cl,0x5
    2c01:	00 e8                	add    al,ch
    2c03:	97                   	xchg   di,ax
    2c04:	e9 22 80             	jmp    0xac29
    2c07:	e9 e5 fe             	jmp    0x2aef
    2c0a:	3c 90                	cmp    al,0x90
    2c0c:	75 21                	jne    0x2c2f
    2c0e:	8a 45 bb             	mov    al,BYTE PTR [di-0x45]
    2c11:	3c 0a                	cmp    al,0xa
    2c13:	74 17                	je     0x2c2c
    2c15:	3c 05                	cmp    al,0x5
    2c17:	75 0d                	jne    0x2c26
    2c19:	e8 80 e9             	call   0x159c
    2c1c:	20 28                	and    BYTE PTR [bx+si],ch
    2c1e:	2f                   	das    
    2c1f:	2d 29 20             	sub    ax,0x2029
    2c22:	80 e9 06             	sub    cl,0x6
    2c25:	00 e8                	add    al,ch
    2c27:	73 e9                	jae    0x2c12
    2c29:	2f                   	das    
    2c2a:	2d 80 e9             	sub    ax,0xe980
    2c2d:	c0 fe c3             	sar    dh,0xc3
    2c30:	8a 45 bb             	mov    al,BYTE PTR [di-0x45]
    2c33:	3c 0a                	cmp    al,0xa
    2c35:	74 0d                	je     0x2c44
    2c37:	3c 05                	cmp    al,0x5
    2c39:	75 09                	jne    0x2c44
    2c3b:	e8 5e e9             	call   0x159c
    2c3e:	20 28                	and    BYTE PTR [bx+si],ch
    2c40:	56                   	push   si
    2c41:	29 20                	sub    WORD PTR [bx+si],sp
    2c43:	80 e8 8b             	sub    al,0x8b
    2c46:	19 e9                	sbb    cx,bp
    2c48:	10 04                	adc    BYTE PTR [si],al
    2c4a:	e8 87 d9             	call   0x5d4
    2c4d:	b0 03                	mov    al,0x3
    2c4f:	b5 02                	mov    ch,0x2
    2c51:	b1 c0                	mov    cl,0xc0
    2c53:	e9 00 00             	jmp    0x2c56
    2c56:	e8 03 00             	call   0x2c5c
    2c59:	e9 0d d9             	jmp    0x569
    2c5c:	9f                   	lahf   
    2c5d:	86 e0                	xchg   al,ah
    2c5f:	50                   	push   ax
    2c60:	86 e0                	xchg   al,ah
    2c62:	51                   	push   cx
    2c63:	e8 e2 0e             	call   0x3b48
    2c66:	59                   	pop    cx
    2c67:	58                   	pop    ax
    2c68:	86 e0                	xchg   al,ah
    2c6a:	9e                   	sahf   
    2c6b:	88 45 07             	mov    BYTE PTR [di+0x7],al
    2c6e:	88 6d 06             	mov    BYTE PTR [di+0x6],ch
    2c71:	88 4d 08             	mov    BYTE PTR [di+0x8],cl
    2c74:	e8 5c 0f             	call   0x3bd3
    2c77:	f6 45 b3 80          	test   BYTE PTR [di-0x4d],0x80
    2c7b:	74 0b                	je     0x2c88
    2c7d:	f6 45 08 80          	test   BYTE PTR [di+0x8],0x80
    2c81:	75 05                	jne    0x2c88
    2c83:	b0 20                	mov    al,0x20
    2c85:	e8 c7 e8             	call   0x154f
    2c88:	8a 45 06             	mov    al,BYTE PTR [di+0x6]
    2c8b:	08 c0                	or     al,al
    2c8d:	75 06                	jne    0x2c95
    2c8f:	8a 45 95             	mov    al,BYTE PTR [di-0x6b]
    2c92:	88 45 06             	mov    BYTE PTR [di+0x6],al
    2c95:	3c 06                	cmp    al,0x6
    2c97:	75 04                	jne    0x2c9d
    2c99:	80 4d 08 40          	or     BYTE PTR [di+0x8],0x40
    2c9d:	8a 06 e6 73          	mov    al,BYTE PTR ds:0x73e6
    2ca1:	3c 70                	cmp    al,0x70
    2ca3:	72 3d                	jb     0x2ce2
    2ca5:	f6 45 b3 80          	test   BYTE PTR [di-0x4d],0x80
    2ca9:	75 05                	jne    0x2cb0
    2cab:	b0 40                	mov    al,0x40
    2cad:	e8 9f e8             	call   0x154f
    2cb0:	8a 06 e6 73          	mov    al,BYTE PTR ds:0x73e6
    2cb4:	b6 06                	mov    dh,0x6
    2cb6:	b1 01                	mov    cl,0x1
    2cb8:	3c 71                	cmp    al,0x71
    2cba:	75 04                	jne    0x2cc0
    2cbc:	b6 03                	mov    dh,0x3
    2cbe:	b1 00                	mov    cl,0x0
    2cc0:	3c 73                	cmp    al,0x73
    2cc2:	75 04                	jne    0x2cc8
    2cc4:	b6 05                	mov    dh,0x5
    2cc6:	b1 16                	mov    cl,0x16
    2cc8:	3c 74                	cmp    al,0x74
    2cca:	75 04                	jne    0x2cd0
    2ccc:	b6 06                	mov    dh,0x6
    2cce:	b1 17                	mov    cl,0x17
    2cd0:	8a c6                	mov    al,dh
    2cd2:	f6 45 08 40          	test   BYTE PTR [di+0x8],0x40
    2cd6:	75 05                	jne    0x2cdd
    2cd8:	51                   	push   cx
    2cd9:	e8 f5 e8             	call   0x15d1
    2cdc:	59                   	pop    cx
    2cdd:	8a c1                	mov    al,cl
    2cdf:	e9 3d 03             	jmp    0x301f
    2ce2:	8a 45 06             	mov    al,BYTE PTR [di+0x6]
    2ce5:	3c 03                	cmp    al,0x3
    2ce7:	75 03                	jne    0x2cec
    2ce9:	e9 05 03             	jmp    0x2ff1
    2cec:	b5 0c                	mov    ch,0xc
    2cee:	bb fd 6c             	mov    bx,0x6cfd
    2cf1:	8a 07                	mov    al,BYTE PTR [bx]
    2cf3:	08 c0                	or     al,al
    2cf5:	75 05                	jne    0x2cfc
    2cf7:	4b                   	dec    bx
    2cf8:	fe cd                	dec    ch
    2cfa:	75 f5                	jne    0x2cf1
    2cfc:	88 6d 22             	mov    BYTE PTR [di+0x22],ch
    2cff:	fe cd                	dec    ch
    2d01:	79 03                	jns    0x2d06
    2d03:	fe 45 09             	inc    BYTE PTR [di+0x9]
    2d06:	8a 06 e9 73          	mov    al,BYTE PTR ds:0x73e9
    2d0a:	08 c0                	or     al,al
    2d0c:	79 04                	jns    0x2d12
    2d0e:	c6 45 1b ff          	mov    BYTE PTR [di+0x1b],0xff
    2d12:	b5 fe                	mov    ch,0xfe
    2d14:	8a 45 09             	mov    al,BYTE PTR [di+0x9]
    2d17:	88 45 25             	mov    BYTE PTR [di+0x25],al
    2d1a:	08 c0                	or     al,al
    2d1c:	79 06                	jns    0x2d24
    2d1e:	fe cd                	dec    ch
    2d20:	f6 d0                	not    al
    2d22:	04 03                	add    al,0x3
    2d24:	88 45 24             	mov    BYTE PTR [di+0x24],al
    2d27:	fe 4d 24             	dec    BYTE PTR [di+0x24]
    2d2a:	3c 0b                	cmp    al,0xb
    2d2c:	72 02                	jb     0x2d30
    2d2e:	fe cd                	dec    ch
    2d30:	8a c5                	mov    al,ch
    2d32:	02 45 07             	add    al,BYTE PTR [di+0x7]
    2d35:	88 45 26             	mov    BYTE PTR [di+0x26],al
    2d38:	8a 45 09             	mov    al,BYTE PTR [di+0x9]
    2d3b:	08 c0                	or     al,al
    2d3d:	78 05                	js     0x2d44
    2d3f:	88 45 1c             	mov    BYTE PTR [di+0x1c],al
    2d42:	b0 00                	mov    al,0x0
    2d44:	88 45 1d             	mov    BYTE PTR [di+0x1d],al
    2d47:	8a 45 06             	mov    al,BYTE PTR [di+0x6]
    2d4a:	3c 01                	cmp    al,0x1
    2d4c:	75 09                	jne    0x2d57
    2d4e:	b0 02                	mov    al,0x2
    2d50:	80 4d 21 80          	or     BYTE PTR [di+0x21],0x80
    2d54:	e9 13 00             	jmp    0x2d6a
    2d57:	3c 02                	cmp    al,0x2
    2d59:	75 09                	jne    0x2d64
    2d5b:	b0 00                	mov    al,0x0
    2d5d:	80 4d 21 80          	or     BYTE PTR [di+0x21],0x80
    2d61:	e9 06 00             	jmp    0x2d6a
    2d64:	8a 45 22             	mov    al,BYTE PTR [di+0x22]
    2d67:	2a 45 09             	sub    al,BYTE PTR [di+0x9]
    2d6a:	08 c0                	or     al,al
    2d6c:	79 02                	jns    0x2d70
    2d6e:	b0 00                	mov    al,0x0
    2d70:	88 45 20             	mov    BYTE PTR [di+0x20],al
    2d73:	3c 01                	cmp    al,0x1
    2d75:	72 05                	jb     0x2d7c
    2d77:	b5 ff                	mov    ch,0xff
    2d79:	88 6d 1f             	mov    BYTE PTR [di+0x1f],ch
    2d7c:	8a 45 07             	mov    al,BYTE PTR [di+0x7]
    2d7f:	02 45 1b             	add    al,BYTE PTR [di+0x1b]
    2d82:	2a 45 1c             	sub    al,BYTE PTR [di+0x1c]
    2d85:	79 03                	jns    0x2d8a
    2d87:	e9 fd 01             	jmp    0x2f87
    2d8a:	75 15                	jne    0x2da1
    2d8c:	f6 45 21 80          	test   BYTE PTR [di+0x21],0x80
    2d90:	74 09                	je     0x2d9b
    2d92:	f6 45 1f 80          	test   BYTE PTR [di+0x1f],0x80
    2d96:	74 03                	je     0x2d9b
    2d98:	e9 51 02             	jmp    0x2fec
    2d9b:	88 45 1f             	mov    BYTE PTR [di+0x1f],al
    2d9e:	88 45 20             	mov    BYTE PTR [di+0x20],al
    2da1:	02 45 1f             	add    al,BYTE PTR [di+0x1f]
    2da4:	8a e8                	mov    ch,al
    2da6:	f6 45 21 80          	test   BYTE PTR [di+0x21],0x80
    2daa:	75 2a                	jne    0x2dd6
    2dac:	02 45 1d             	add    al,BYTE PTR [di+0x1d]
    2daf:	79 03                	jns    0x2db4
    2db1:	e9 d3 01             	jmp    0x2f87
    2db4:	8a c8                	mov    cl,al
    2db6:	f6 45 23 80          	test   BYTE PTR [di+0x23],0x80
    2dba:	75 1a                	jne    0x2dd6
    2dbc:	f6 45 1d 80          	test   BYTE PTR [di+0x1d],0x80
    2dc0:	74 14                	je     0x2dd6
    2dc2:	3a 45 22             	cmp    al,BYTE PTR [di+0x22]
    2dc5:	73 0f                	jae    0x2dd6
    2dc7:	8a 45 26             	mov    al,BYTE PTR [di+0x26]
    2dca:	02 45 1b             	add    al,BYTE PTR [di+0x1b]
    2dcd:	fe c8                	dec    al
    2dcf:	38 c8                	cmp    al,cl
    2dd1:	72 03                	jb     0x2dd6
    2dd3:	e9 b1 01             	jmp    0x2f87
    2dd6:	8a c5                	mov    al,ch
    2dd8:	3a 45 20             	cmp    al,BYTE PTR [di+0x20]
    2ddb:	73 0c                	jae    0x2de9
    2ddd:	f6 45 21 80          	test   BYTE PTR [di+0x21],0x80
    2de1:	74 03                	je     0x2de6
    2de3:	e9 06 02             	jmp    0x2fec
    2de6:	88 45 20             	mov    BYTE PTR [di+0x20],al
    2de9:	2a 45 20             	sub    al,BYTE PTR [di+0x20]
    2dec:	79 03                	jns    0x2df1
    2dee:	e9 fb 01             	jmp    0x2fec
    2df1:	80 65 1e 7f          	and    BYTE PTR [di+0x1e],0x7f
    2df5:	f6 45 21 80          	test   BYTE PTR [di+0x21],0x80
    2df9:	74 19                	je     0x2e14
    2dfb:	8a c8                	mov    cl,al
    2dfd:	8a 6d 1c             	mov    ch,BYTE PTR [di+0x1c]
    2e00:	8a c5                	mov    al,ch
    2e02:	08 c0                	or     al,al
    2e04:	8a c1                	mov    al,cl
    2e06:	75 0c                	jne    0x2e14
    2e08:	8a e8                	mov    ch,al
    2e0a:	08 c0                	or     al,al
    2e0c:	74 06                	je     0x2e14
    2e0e:	80 4d 1e 80          	or     BYTE PTR [di+0x1e],0x80
    2e12:	fe c8                	dec    al
    2e14:	f6 45 08 40          	test   BYTE PTR [di+0x8],0x40
    2e18:	75 03                	jne    0x2e1d
    2e1a:	88 45 1a             	mov    BYTE PTR [di+0x1a],al
    2e1d:	e9 00 00             	jmp    0x2e20
    2e20:	8a 45 1c             	mov    al,BYTE PTR [di+0x1c]
    2e23:	02 45 20             	add    al,BYTE PTR [di+0x20]
    2e26:	02 45 1d             	add    al,BYTE PTR [di+0x1d]
    2e29:	bb f2 6c             	mov    bx,0x6cf2
    2e2c:	b6 00                	mov    dh,0x0
    2e2e:	8a d0                	mov    dl,al
    2e30:	01 d3                	add    bx,dx
    2e32:	3c 0c                	cmp    al,0xc
    2e34:	73 67                	jae    0x2e9d
    2e36:	53                   	push   bx
    2e37:	52                   	push   dx
    2e38:	b5 00                	mov    ch,0x0
    2e3a:	43                   	inc    bx
    2e3b:	fe c0                	inc    al
    2e3d:	3c 0c                	cmp    al,0xc
    2e3f:	73 05                	jae    0x2e46
    2e41:	88 2f                	mov    BYTE PTR [bx],ch
    2e43:	e9 f4 ff             	jmp    0x2e3a
    2e46:	5a                   	pop    dx
    2e47:	5b                   	pop    bx
    2e48:	53                   	push   bx
    2e49:	b0 05                	mov    al,0x5
    2e4b:	b6 00                	mov    dh,0x0
    2e4d:	02 07                	add    al,BYTE PTR [bx]
    2e4f:	00 f0                	add    al,dh
    2e51:	3c 0a                	cmp    al,0xa
    2e53:	72 07                	jb     0x2e5c
    2e55:	2c 0a                	sub    al,0xa
    2e57:	b6 01                	mov    dh,0x1
    2e59:	e9 02 00             	jmp    0x2e5e
    2e5c:	b6 00                	mov    dh,0x0
    2e5e:	88 07                	mov    BYTE PTR [bx],al
    2e60:	b0 00                	mov    al,0x0
    2e62:	4b                   	dec    bx
    2e63:	fe ca                	dec    dl
    2e65:	79 e6                	jns    0x2e4d
    2e67:	5b                   	pop    bx
    2e68:	b0 00                	mov    al,0x0
    2e6a:	88 07                	mov    BYTE PTR [bx],al
    2e6c:	08 f0                	or     al,dh
    2e6e:	74 2d                	je     0x2e9d
    2e70:	b9 0b 00             	mov    cx,0xb
    2e73:	bb fc 6c             	mov    bx,0x6cfc
    2e76:	ba fd 6c             	mov    dx,0x6cfd
    2e79:	9c                   	pushf  
    2e7a:	87 f3                	xchg   bx,si
    2e7c:	87 fa                	xchg   dx,di
    2e7e:	fd                   	std    
    2e7f:	f3 a4                	rep movs BYTE PTR es:[di],BYTE PTR ds:[si]
    2e81:	87 f3                	xchg   bx,si
    2e83:	87 fa                	xchg   dx,di
    2e85:	9d                   	popf   
    2e86:	b0 01                	mov    al,0x1
    2e88:	88 45 0d             	mov    BYTE PTR [di+0xd],al
    2e8b:	fe 45 09             	inc    BYTE PTR [di+0x9]
    2e8e:	f6 45 23 80          	test   BYTE PTR [di+0x23],0x80
    2e92:	74 06                	je     0x2e9a
    2e94:	fe 45 22             	inc    BYTE PTR [di+0x22]
    2e97:	e9 9e fe             	jmp    0x2d38
    2e9a:	e9 4f fe             	jmp    0x2cec
    2e9d:	bb f2 6c             	mov    bx,0x6cf2
    2ea0:	89 5d 0a             	mov    WORD PTR [di+0xa],bx
    2ea3:	b0 0c                	mov    al,0xc
    2ea5:	88 45 0c             	mov    BYTE PTR [di+0xc],al
    2ea8:	b0 20                	mov    al,0x20
    2eaa:	fe 4d 1a             	dec    BYTE PTR [di+0x1a]
    2ead:	78 06                	js     0x2eb5
    2eaf:	e8 9d e6             	call   0x154f
    2eb2:	e9 f5 ff             	jmp    0x2eaa
    2eb5:	f6 45 1b 80          	test   BYTE PTR [di+0x1b],0x80
    2eb9:	74 16                	je     0x2ed1
    2ebb:	b5 2d                	mov    ch,0x2d
    2ebd:	f6 45 1e 80          	test   BYTE PTR [di+0x1e],0x80
    2ec1:	74 09                	je     0x2ecc
    2ec3:	8a 45 0d             	mov    al,BYTE PTR [di+0xd]
    2ec6:	08 c0                	or     al,al
    2ec8:	75 02                	jne    0x2ecc
    2eca:	b0 30                	mov    al,0x30
    2ecc:	8a c5                	mov    al,ch
    2ece:	e8 7e e6             	call   0x154f
    2ed1:	f6 45 1e 80          	test   BYTE PTR [di+0x1e],0x80
    2ed5:	74 05                	je     0x2edc
    2ed7:	b0 30                	mov    al,0x30
    2ed9:	e8 73 e6             	call   0x154f
    2edc:	8a 6d 1c             	mov    ch,BYTE PTR [di+0x1c]
    2edf:	e8 7a 00             	call   0x2f5c
    2ee2:	f6 45 1f 80          	test   BYTE PTR [di+0x1f],0x80
    2ee6:	74 05                	je     0x2eed
    2ee8:	b0 2e                	mov    al,0x2e
    2eea:	e8 62 e6             	call   0x154f
    2eed:	b0 00                	mov    al,0x0
    2eef:	fe 45 1d             	inc    BYTE PTR [di+0x1d]
    2ef2:	78 02                	js     0x2ef6
    2ef4:	75 09                	jne    0x2eff
    2ef6:	e8 c1 e6             	call   0x15ba
    2ef9:	fe 4d 20             	dec    BYTE PTR [di+0x20]
    2efc:	e9 f0 ff             	jmp    0x2eef
    2eff:	8a 6d 20             	mov    ch,BYTE PTR [di+0x20]
    2f02:	e8 57 00             	call   0x2f5c
    2f05:	f6 45 b3 80          	test   BYTE PTR [di-0x4d],0x80
    2f09:	74 50                	je     0x2f5b
    2f0b:	e8 37 28             	call   0x5745
    2f0e:	b5 00                	mov    ch,0x0
    2f10:	8a c8                	mov    cl,al
    2f12:	bb 04 6e             	mov    bx,0x6e04
    2f15:	01 cb                	add    bx,cx
    2f17:	8a f0                	mov    dh,al
    2f19:	4b                   	dec    bx
    2f1a:	fe c9                	dec    cl
    2f1c:	78 14                	js     0x2f32
    2f1e:	8a 07                	mov    al,BYTE PTR [bx]
    2f20:	24 7f                	and    al,0x7f
    2f22:	3c 30                	cmp    al,0x30
    2f24:	74 f3                	je     0x2f19
    2f26:	3c 2e                	cmp    al,0x2e
    2f28:	74 ef                	je     0x2f19
    2f2a:	3c 2d                	cmp    al,0x2d
    2f2c:	75 04                	jne    0x2f32
    2f2e:	b0 20                	mov    al,0x20
    2f30:	88 07                	mov    BYTE PTR [bx],al
    2f32:	24 7f                	and    al,0x7f
    2f34:	3c 20                	cmp    al,0x20
    2f36:	75 23                	jne    0x2f5b
    2f38:	fe c1                	inc    cl
    2f3a:	43                   	inc    bx
    2f3b:	8a 07                	mov    al,BYTE PTR [bx]
    2f3d:	24 7f                	and    al,0x7f
    2f3f:	3c 30                	cmp    al,0x30
    2f41:	75 18                	jne    0x2f5b
    2f43:	fe c1                	inc    cl
    2f45:	43                   	inc    bx
    2f46:	8a c1                	mov    al,cl
    2f48:	38 f0                	cmp    al,dh
    2f4a:	73 0f                	jae    0x2f5b
    2f4c:	8a 07                	mov    al,BYTE PTR [bx]
    2f4e:	24 7f                	and    al,0x7f
    2f50:	3c 30                	cmp    al,0x30
    2f52:	75 07                	jne    0x2f5b
    2f54:	fe c9                	dec    cl
    2f56:	4b                   	dec    bx
    2f57:	b0 20                	mov    al,0x20
    2f59:	88 07                	mov    BYTE PTR [bx],al
    2f5b:	c3                   	ret    
    2f5c:	fe cd                	dec    ch
    2f5e:	78 06                	js     0x2f66
    2f60:	e8 04 00             	call   0x2f67
    2f63:	e9 f6 ff             	jmp    0x2f5c
    2f66:	c3                   	ret    
    2f67:	53                   	push   bx
    2f68:	51                   	push   cx
    2f69:	8b 5d 0a             	mov    bx,WORD PTR [di+0xa]
    2f6c:	8a 45 0c             	mov    al,BYTE PTR [di+0xc]
    2f6f:	08 c0                	or     al,al
    2f71:	74 0c                	je     0x2f7f
    2f73:	8a 07                	mov    al,BYTE PTR [bx]
    2f75:	43                   	inc    bx
    2f76:	fe 4d 0c             	dec    BYTE PTR [di+0xc]
    2f79:	89 5d 0a             	mov    WORD PTR [di+0xa],bx
    2f7c:	e9 02 00             	jmp    0x2f81
    2f7f:	b0 00                	mov    al,0x0
    2f81:	e8 36 e6             	call   0x15ba
    2f84:	59                   	pop    cx
    2f85:	5b                   	pop    bx
    2f86:	c3                   	ret    
    2f87:	f6 45 21 80          	test   BYTE PTR [di+0x21],0x80
    2f8b:	74 03                	je     0x2f90
    2f8d:	e9 5c 00             	jmp    0x2fec
    2f90:	f6 45 23 80          	test   BYTE PTR [di+0x23],0x80
    2f94:	74 03                	je     0x2f99
    2f96:	e9 53 00             	jmp    0x2fec
    2f99:	80 4d 23 80          	or     BYTE PTR [di+0x23],0x80
    2f9d:	8a 45 26             	mov    al,BYTE PTR [di+0x26]
    2fa0:	88 45 07             	mov    BYTE PTR [di+0x7],al
    2fa3:	b0 01                	mov    al,0x1
    2fa5:	88 45 09             	mov    BYTE PTR [di+0x9],al
    2fa8:	e8 8d fd             	call   0x2d38
    2fab:	b0 45                	mov    al,0x45
    2fad:	e8 9f e5             	call   0x154f
    2fb0:	f6 45 25 80          	test   BYTE PTR [di+0x25],0x80
    2fb4:	74 05                	je     0x2fbb
    2fb6:	b0 2d                	mov    al,0x2d
    2fb8:	e8 94 e5             	call   0x154f
    2fbb:	bb f2 6c             	mov    bx,0x6cf2
    2fbe:	89 5d 0a             	mov    WORD PTR [di+0xa],bx
    2fc1:	b0 0c                	mov    al,0xc
    2fc3:	88 45 0c             	mov    BYTE PTR [di+0xc],al
    2fc6:	8a 45 24             	mov    al,BYTE PTR [di+0x24]
    2fc9:	b5 00                	mov    ch,0x0
    2fcb:	2c 0a                	sub    al,0xa
    2fcd:	78 05                	js     0x2fd4
    2fcf:	fe c5                	inc    ch
    2fd1:	e9 f7 ff             	jmp    0x2fcb
    2fd4:	04 0a                	add    al,0xa
    2fd6:	9f                   	lahf   
    2fd7:	86 e0                	xchg   al,ah
    2fd9:	50                   	push   ax
    2fda:	86 e0                	xchg   al,ah
    2fdc:	8a c5                	mov    al,ch
    2fde:	08 c0                	or     al,al
    2fe0:	74 03                	je     0x2fe5
    2fe2:	e8 d5 e5             	call   0x15ba
    2fe5:	58                   	pop    ax
    2fe6:	86 e0                	xchg   al,ah
    2fe8:	9e                   	sahf   
    2fe9:	e9 ce e5             	jmp    0x15ba
    2fec:	b0 3e                	mov    al,0x3e
    2fee:	e9 ce e5             	jmp    0x15bf
    2ff1:	8a 06 e9 73          	mov    al,BYTE PTR ds:0x73e9
    2ff5:	08 c0                	or     al,al
    2ff7:	78 19                	js     0x3012
    2ff9:	b5 7f                	mov    ch,0x7f
    2ffb:	8a 06 ea 73          	mov    al,BYTE PTR ds:0x73ea
    2fff:	08 c0                	or     al,al
    3001:	7e 0f                	jle    0x3012
    3003:	3c 01                	cmp    al,0x1
    3005:	75 06                	jne    0x300d
    3007:	8a 06 e6 73          	mov    al,BYTE PTR ds:0x73e6
    300b:	8a e8                	mov    ch,al
    300d:	b0 2a                	mov    al,0x2a
    300f:	e8 ca e5             	call   0x15dc
    3012:	c3                   	ret    
    3013:	b0 40                	mov    al,0x40
    3015:	e8 37 e5             	call   0x154f
    3018:	e8 49 01             	call   0x3164
    301b:	8a 07                	mov    al,BYTE PTR [bx]
    301d:	24 1f                	and    al,0x1f
    301f:	8a e8                	mov    ch,al
    3021:	8a c8                	mov    cl,al
    3023:	bb 25 4d             	mov    bx,0x4d25
    3026:	fe cd                	dec    ch
    3028:	78 0d                	js     0x3037
    302a:	f6 07 80             	test   BYTE PTR [bx],0x80
    302d:	75 04                	jne    0x3033
    302f:	43                   	inc    bx
    3030:	e9 f7 ff             	jmp    0x302a
    3033:	43                   	inc    bx
    3034:	e9 ef ff             	jmp    0x3026
    3037:	8a 07                	mov    al,BYTE PTR [bx]
    3039:	24 7f                	and    al,0x7f
    303b:	e8 11 e5             	call   0x154f
    303e:	f6 07 80             	test   BYTE PTR [bx],0x80
    3041:	75 04                	jne    0x3047
    3043:	43                   	inc    bx
    3044:	e9 f0 ff             	jmp    0x3037
    3047:	b5 00                	mov    ch,0x0
    3049:	bb 9a 4d             	mov    bx,0x4d9a
    304c:	01 cb                	add    bx,cx
    304e:	8a 07                	mov    al,BYTE PTR [bx]
    3050:	24 80                	and    al,0x80
    3052:	74 05                	je     0x3059
    3054:	b0 28                	mov    al,0x28
    3056:	e8 f6 e4             	call   0x154f
    3059:	c3                   	ret    
    305a:	e8 26 00             	call   0x3083
    305d:	bb 52 6e             	mov    bx,0x6e52
    3060:	89 5d cd             	mov    WORD PTR [di-0x33],bx
    3063:	e8 b4 d0             	call   0x11a
    3066:	8b 5d cd             	mov    bx,WORD PTR [di-0x33]
    3069:	43                   	inc    bx
    306a:	43                   	inc    bx
    306b:	89 5d cd             	mov    WORD PTR [di-0x33],bx
    306e:	8a 07                	mov    al,BYTE PTR [bx]
    3070:	43                   	inc    bx
    3071:	8a 3f                	mov    bh,BYTE PTR [bx]
    3073:	8a d8                	mov    bl,al
    3075:	08 f8                	or     al,bh
    3077:	74 09                	je     0x3082
    3079:	89 5d cf             	mov    WORD PTR [di-0x31],bx
    307c:	e8 14 00             	call   0x3093
    307f:	e9 e1 ff             	jmp    0x3063
    3082:	c3                   	ret    
    3083:	8a 06 cf 70          	mov    al,BYTE PTR ds:0x70cf
    3087:	24 c0                	and    al,0xc0
    3089:	3c 80                	cmp    al,0x80
    308b:	75 05                	jne    0x3092
    308d:	b0 2b                	mov    al,0x2b
    308f:	e8 bd e4             	call   0x154f
    3092:	c3                   	ret    
    3093:	e8 bd 26             	call   0x5753
    3096:	e8 39 e9             	call   0x19d2
    3099:	ba 54 6e             	mov    dx,0x6e54
    309c:	08 c0                	or     al,al
    309e:	19 d3                	sbb    bx,dx
    30a0:	ba 52 6f             	mov    dx,0x6f52
    30a3:	01 d3                	add    bx,dx
    30a5:	8b 55 b4             	mov    dx,WORD PTR [di-0x4c]
    30a8:	88 17                	mov    BYTE PTR [bx],dl
    30aa:	43                   	inc    bx
    30ab:	88 37                	mov    BYTE PTR [bx],dh
    30ad:	08 c0                	or     al,al
    30af:	78 0c                	js     0x30bd
    30b1:	e8 75 00             	call   0x3129
    30b4:	b0 12                	mov    al,0x12
    30b6:	b5 04                	mov    ch,0x4
    30b8:	b1 c0                	mov    cl,0xc0
    30ba:	e9 99 fb             	jmp    0x2c56
    30bd:	f6 c0 40             	test   al,0x40
    30c0:	75 03                	jne    0x30c5
    30c2:	e9 8f 00             	jmp    0x3154
    30c5:	3c ff                	cmp    al,0xff
    30c7:	75 01                	jne    0x30ca
    30c9:	c3                   	ret    
    30ca:	3c f1                	cmp    al,0xf1
    30cc:	75 01                	jne    0x30cf
    30ce:	c3                   	ret    
    30cf:	3c f0                	cmp    al,0xf0
    30d1:	75 08                	jne    0x30db
    30d3:	e8 c6 e4             	call   0x159c
    30d6:	2e 2e 2e 80 c3 f6    	cs cs cs add bl,0xf6
    30dc:	c0 20 75             	shl    BYTE PTR [bx+si],0x75
    30df:	03 e9                	add    bp,cx
    30e1:	30 ff                	xor    bh,bh
    30e3:	f6 c0 10             	test   al,0x10
    30e6:	75 3a                	jne    0x3122
    30e8:	e8 2d 09             	call   0x3a18
    30eb:	bb 14 4d             	mov    bx,0x4d14
    30ee:	8a c8                	mov    cl,al
    30f0:	b5 00                	mov    ch,0x0
    30f2:	01 cb                	add    bx,cx
    30f4:	3c 0b                	cmp    al,0xb
    30f6:	72 24                	jb     0x311c
    30f8:	3c 0e                	cmp    al,0xe
    30fa:	73 20                	jae    0x311c
    30fc:	9f                   	lahf   
    30fd:	86 e0                	xchg   al,ah
    30ff:	50                   	push   ax
    3100:	86 e0                	xchg   al,ah
    3102:	8a 07                	mov    al,BYTE PTR [bx]
    3104:	e8 48 e4             	call   0x154f
    3107:	58                   	pop    ax
    3108:	86 e0                	xchg   al,ah
    310a:	9e                   	sahf   
    310b:	3c 0b                	cmp    al,0xb
    310d:	75 05                	jne    0x3114
    310f:	b0 3e                	mov    al,0x3e
    3111:	e9 02 00             	jmp    0x3116
    3114:	b0 3d                	mov    al,0x3d
    3116:	e8 36 e4             	call   0x154f
    3119:	e9 05 00             	jmp    0x3121
    311c:	8a 07                	mov    al,BYTE PTR [bx]
    311e:	e9 2e e4             	jmp    0x154f
    3121:	c3                   	ret    
    3122:	e8 77 e4             	call   0x159c
    3125:	3f                   	aas    
    3126:	3f                   	aas    
    3127:	80 c3 e8             	add    bl,0xe8
    312a:	e3 d3                	jcxz   0x30ff
    312c:	e8 35 00             	call   0x3164
    312f:	8a 07                	mov    al,BYTE PTR [bx]
    3131:	e8 74 17             	call   0x48a8
    3134:	b5 00                	mov    ch,0x0
    3136:	43                   	inc    bx
    3137:	fe c5                	inc    ch
    3139:	f6 07 80             	test   BYTE PTR [bx],0x80
    313c:	74 f8                	je     0x3136
    313e:	fe cd                	dec    ch
    3140:	ba e6 73             	mov    dx,0x73e6
    3143:	fe cd                	dec    ch
    3145:	78 0c                	js     0x3153
    3147:	4b                   	dec    bx
    3148:	8a 07                	mov    al,BYTE PTR [bx]
    314a:	8b ea                	mov    bp,dx
    314c:	88 46 00             	mov    BYTE PTR [bp+0x0],al
    314f:	4a                   	dec    dx
    3150:	e9 f0 ff             	jmp    0x3143
    3153:	c3                   	ret    
    3154:	e8 0d 00             	call   0x3164
    3157:	e8 29 27             	call   0x5883
    315a:	e8 a9 f9             	call   0x2b06
    315d:	8b 5c 2e             	mov    bx,WORD PTR [si+0x2e]
    3160:	89 5c 28             	mov    WORD PTR [si+0x28],bx
    3163:	c3                   	ret    
    3164:	8b 5d cd             	mov    bx,WORD PTR [di-0x33]
    3167:	8a 07                	mov    al,BYTE PTR [bx]
    3169:	43                   	inc    bx
    316a:	8a 3f                	mov    bh,BYTE PTR [bx]
    316c:	8a d8                	mov    bl,al
    316e:	c3                   	ret    
    316f:	b0 00                	mov    al,0x0
    3171:	88 06 84 74          	mov    BYTE PTR ds:0x7484,al
    3175:	88 06 85 74          	mov    BYTE PTR ds:0x7485,al
    3179:	88 06 86 74          	mov    BYTE PTR ds:0x7486,al
    317d:	bb e5 33             	mov    bx,0x33e5
    3180:	e9 b8 00             	jmp    0x323b
    3183:	b0 ff                	mov    al,0xff
    3185:	88 06 85 74          	mov    BYTE PTR ds:0x7485,al
    3189:	bb 08 33             	mov    bx,0x3308
    318c:	e9 a0 00             	jmp    0x322f
    318f:	e8 d7 e5             	call   0x1769
    3192:	e8 00 fa             	call   0x2b95
    3195:	88 06 82 74          	mov    BYTE PTR ds:0x7482,al
    3199:	b0 ff                	mov    al,0xff
    319b:	88 06 84 74          	mov    BYTE PTR ds:0x7484,al
    319f:	b0 00                	mov    al,0x0
    31a1:	88 06 85 74          	mov    BYTE PTR ds:0x7485,al
    31a5:	8a 45 b6             	mov    al,BYTE PTR [di-0x4a]
    31a8:	3c 7d                	cmp    al,0x7d
    31aa:	75 03                	jne    0x31af
    31ac:	e9 9e 00             	jmp    0x324d
    31af:	b0 00                	mov    al,0x0
    31b1:	88 06 86 74          	mov    BYTE PTR ds:0x7486,al
    31b5:	e8 26 01             	call   0x32de
    31b8:	8a 06 82 74          	mov    al,BYTE PTR ds:0x7482
    31bc:	08 c0                	or     al,al
    31be:	78 0c                	js     0x31cc
    31c0:	bb 0d 4a             	mov    bx,0x4a0d
    31c3:	b0 ff                	mov    al,0xff
    31c5:	88 06 85 74          	mov    BYTE PTR ds:0x7485,al
    31c9:	e9 0d 00             	jmp    0x31d9
    31cc:	3c 80                	cmp    al,0x80
    31ce:	75 06                	jne    0x31d6
    31d0:	bb 07 4a             	mov    bx,0x4a07
    31d3:	e9 03 00             	jmp    0x31d9
    31d6:	bb f6 49             	mov    bx,0x49f6
    31d9:	e8 2b 15             	call   0x4707
    31dc:	8a 06 82 74          	mov    al,BYTE PTR ds:0x7482
    31e0:	08 c0                	or     al,al
    31e2:	78 06                	js     0x31ea
    31e4:	bb 08 33             	mov    bx,0x3308
    31e7:	e9 0d 00             	jmp    0x31f7
    31ea:	3c 80                	cmp    al,0x80
    31ec:	75 06                	jne    0x31f4
    31ee:	bb 6f 22             	mov    bx,0x226f
    31f1:	e9 03 00             	jmp    0x31f7
    31f4:	bb 67 22             	mov    bx,0x2267
    31f7:	e8 41 00             	call   0x323b
    31fa:	9f                   	lahf   
    31fb:	86 e0                	xchg   al,ah
    31fd:	50                   	push   ax
    31fe:	86 e0                	xchg   al,ah
    3200:	e8 66 e5             	call   0x1769
    3203:	58                   	pop    ax
    3204:	86 e0                	xchg   al,ah
    3206:	9e                   	sahf   
    3207:	c3                   	ret    
    3208:	8a 06 86 74          	mov    al,BYTE PTR ds:0x7486
    320c:	08 c0                	or     al,al
    320e:	74 1c                	je     0x322c
    3210:	8a e8                	mov    ch,al
    3212:	8a dd                	mov    bl,ch
    3214:	b7 00                	mov    bh,0x0
    3216:	ba 84 71             	mov    dx,0x7184
    3219:	01 d3                	add    bx,dx
    321b:	b0 20                	mov    al,0x20
    321d:	3a 07                	cmp    al,BYTE PTR [bx]
    321f:	75 05                	jne    0x3226
    3221:	4b                   	dec    bx
    3222:	fe cd                	dec    ch
    3224:	75 f7                	jne    0x321d
    3226:	8a c5                	mov    al,ch
    3228:	88 06 86 74          	mov    BYTE PTR ds:0x7486,al
    322c:	e9 1a e6             	jmp    0x1849
    322f:	b0 00                	mov    al,0x0
    3231:	88 06 86 74          	mov    BYTE PTR ds:0x7486,al
    3235:	b0 ff                	mov    al,0xff
    3237:	88 06 84 74          	mov    BYTE PTR ds:0x7484,al
    323b:	89 1e 87 74          	mov    WORD PTR ds:0x7487,bx
    323f:	b0 ff                	mov    al,0xff
    3241:	88 45 ba             	mov    BYTE PTR [di-0x46],al
    3244:	e8 23 00             	call   0x326a
    3247:	73 01                	jae    0x324a
    3249:	c3                   	ret    
    324a:	e9 0c 00             	jmp    0x3259
    324d:	e8 01 00             	call   0x3251
    3250:	c3                   	ret    
    3251:	e8 05 00             	call   0x3259
    3254:	e8 12 e5             	call   0x1769
    3257:	f8                   	clc    
    3258:	c3                   	ret    
    3259:	b0 ff                	mov    al,0xff
    325b:	88 06 86 74          	mov    BYTE PTR ds:0x7486,al
    325f:	e8 4f d2             	call   0x4b1
    3262:	e8 83 14             	call   0x46e8
    3265:	e8 98 14             	call   0x4700
    3268:	f8                   	clc    
    3269:	c3                   	ret    
    326a:	8a 06 9d 73          	mov    al,BYTE PTR ds:0x739d
    326e:	08 c0                	or     al,al
    3270:	79 05                	jns    0x3277
    3272:	e8 dc ff             	call   0x3251
    3275:	f9                   	stc    
    3276:	c3                   	ret    
    3277:	e8 32 00             	call   0x32ac
    327a:	73 ee                	jae    0x326a
    327c:	e8 72 01             	call   0x33f1
    327f:	73 2a                	jae    0x32ab
    3281:	e8 80 d0             	call   0x304
    3284:	bb 87 6d             	mov    bx,0x6d87
    3287:	89 5d b4             	mov    WORD PTR [di-0x4c],bx
    328a:	b0 7d                	mov    al,0x7d
    328c:	88 45 b6             	mov    BYTE PTR [di-0x4a],al
    328f:	8a 06 84 71          	mov    al,BYTE PTR ds:0x7184
    3293:	08 c0                	or     al,al
    3295:	74 11                	je     0x32a8
    3297:	8a 06 84 71          	mov    al,BYTE PTR ds:0x7184
    329b:	fe c8                	dec    al
    329d:	88 06 84 71          	mov    BYTE PTR ds:0x7184,al
    32a1:	74 05                	je     0x32a8
    32a3:	e8 11 01             	call   0x33b7
    32a6:	73 ef                	jae    0x3297
    32a8:	e9 bf ff             	jmp    0x326a
    32ab:	c3                   	ret    
    32ac:	bb 13 4a             	mov    bx,0x4a13
    32af:	e8 39 14             	call   0x46eb
    32b2:	e8 4b 14             	call   0x4700
    32b5:	e8 26 23             	call   0x55de
    32b8:	1b ec                	sbb    bp,sp
    32ba:	33 fd                	xor    di,bp
    32bc:	0d 38 58             	or     ax,0x5838
    32bf:	80 c6 33             	add    dh,0x33
    32c2:	ff                   	(bad)  
    32c3:	e9 37 00             	jmp    0x32fd
    32c6:	e8 15 23             	call   0x55de
    32c9:	01 50 34             	add    WORD PTR [bx+si+0x34],dx
    32cc:	02 ad 34 03          	add    ch,BYTE PTR [di+0x334]
    32d0:	de 33                	fidiv  WORD PTR [bp+di]
    32d2:	04 e5                	add    al,0xe5
    32d4:	33 ff                	xor    di,di
    32d6:	e8 71 ce             	call   0x14a
    32d9:	e8 2a 38             	call   0x6b06
    32dc:	f8                   	clc    
    32dd:	c3                   	ret    
    32de:	e8 79 00             	call   0x335a
    32e1:	73 fb                	jae    0x32de
    32e3:	f8                   	clc    
    32e4:	c3                   	ret    
    32e5:	e8 cf 00             	call   0x33b7
    32e8:	73 fb                	jae    0x32e5
    32ea:	f8                   	clc    
    32eb:	c3                   	ret    
    32ec:	8a 45 b6             	mov    al,BYTE PTR [di-0x4a]
    32ef:	3c 7d                	cmp    al,0x7d
    32f1:	75 05                	jne    0x32f8
    32f3:	e8 19 38             	call   0x6b0f
    32f6:	f8                   	clc    
    32f7:	c3                   	ret    
    32f8:	e8 c5 e4             	call   0x17c0
    32fb:	f8                   	clc    
    32fc:	c3                   	ret    
    32fd:	bb 85 74             	mov    bx,0x7485
    3300:	8a 07                	mov    al,BYTE PTR [bx]
    3302:	08 c0                	or     al,al
    3304:	74 06                	je     0x330c
    3306:	8a 45 a9             	mov    al,BYTE PTR [di-0x57]
    3309:	e9 03 00             	jmp    0x330f
    330c:	8a 45 a8             	mov    al,BYTE PTR [di-0x58]
    330f:	e8 38 ce             	call   0x14a
    3312:	3c 20                	cmp    al,0x20
    3314:	72 07                	jb     0x331d
    3316:	3c 7f                	cmp    al,0x7f
    3318:	73 03                	jae    0x331d
    331a:	e9 05 00             	jmp    0x3322
    331d:	e8 e6 37             	call   0x6b06
    3320:	f8                   	clc    
    3321:	c3                   	ret    
    3322:	9f                   	lahf   
    3323:	86 e0                	xchg   al,ah
    3325:	50                   	push   ax
    3326:	86 e0                	xchg   al,ah
    3328:	8a 06 86 74          	mov    al,BYTE PTR ds:0x7486
    332c:	8a c8                	mov    cl,al
    332e:	8a 45 b6             	mov    al,BYTE PTR [di-0x4a]
    3331:	8a e8                	mov    ch,al
    3333:	b0 7d                	mov    al,0x7d
    3335:	28 e8                	sub    al,ch
    3337:	f8                   	clc    
    3338:	00 c8                	add    al,cl
    333a:	3c 7d                	cmp    al,0x7d
    333c:	72 09                	jb     0x3347
    333e:	e8 ce 37             	call   0x6b0f
    3341:	58                   	pop    ax
    3342:	86 e0                	xchg   al,ah
    3344:	9e                   	sahf   
    3345:	f8                   	clc    
    3346:	c3                   	ret    
    3347:	58                   	pop    ax
    3348:	86 e0                	xchg   al,ah
    334a:	9e                   	sahf   
    334b:	e8 c5 e3             	call   0x1713
    334e:	f8                   	clc    
    334f:	c3                   	ret    
    3350:	e8 07 00             	call   0x335a
    3353:	73 03                	jae    0x3358
    3355:	e8 b7 37             	call   0x6b0f
    3358:	f8                   	clc    
    3359:	c3                   	ret    
    335a:	b0 7d                	mov    al,0x7d
    335c:	3a 45 b6             	cmp    al,BYTE PTR [di-0x4a]
    335f:	75 02                	jne    0x3363
    3361:	f9                   	stc    
    3362:	c3                   	ret    
    3363:	8b 5d b4             	mov    bx,WORD PTR [di-0x4c]
    3366:	4b                   	dec    bx
    3367:	8a 07                	mov    al,BYTE PTR [bx]
    3369:	9f                   	lahf   
    336a:	86 e0                	xchg   al,ah
    336c:	50                   	push   ax
    336d:	86 e0                	xchg   al,ah
    336f:	e8 4e e4             	call   0x17c0
    3372:	8a 06 86 74          	mov    al,BYTE PTR ds:0x7486
    3376:	08 c0                	or     al,al
    3378:	74 1f                	je     0x3399
    337a:	8a c8                	mov    cl,al
    337c:	b5 00                	mov    ch,0x0
    337e:	8a d8                	mov    bl,al
    3380:	b7 00                	mov    bh,0x0
    3382:	ba 85 71             	mov    dx,0x7185
    3385:	01 d3                	add    bx,dx
    3387:	8a f7                	mov    dh,bh
    3389:	8a d3                	mov    dl,bl
    338b:	4b                   	dec    bx
    338c:	9c                   	pushf  
    338d:	87 f3                	xchg   bx,si
    338f:	87 fa                	xchg   dx,di
    3391:	fd                   	std    
    3392:	f3 a4                	rep movs BYTE PTR es:[di],BYTE PTR ds:[si]
    3394:	87 f3                	xchg   bx,si
    3396:	87 fa                	xchg   dx,di
    3398:	9d                   	popf   
    3399:	58                   	pop    ax
    339a:	86 e0                	xchg   al,ah
    339c:	9e                   	sahf   
    339d:	88 06 85 71          	mov    BYTE PTR ds:0x7185,al
    33a1:	8a 06 86 74          	mov    al,BYTE PTR ds:0x7486
    33a5:	fe c0                	inc    al
    33a7:	88 06 86 74          	mov    BYTE PTR ds:0x7486,al
    33ab:	f8                   	clc    
    33ac:	c3                   	ret    
    33ad:	e8 07 00             	call   0x33b7
    33b0:	73 03                	jae    0x33b5
    33b2:	e8 5a 37             	call   0x6b0f
    33b5:	f8                   	clc    
    33b6:	c3                   	ret    
    33b7:	8a 06 86 74          	mov    al,BYTE PTR ds:0x7486
    33bb:	08 c0                	or     al,al
    33bd:	75 02                	jne    0x33c1
    33bf:	f9                   	stc    
    33c0:	c3                   	ret    
    33c1:	8a 06 85 71          	mov    al,BYTE PTR ds:0x7185
    33c5:	e8 4b e3             	call   0x1713
    33c8:	8a 06 86 74          	mov    al,BYTE PTR ds:0x7486
    33cc:	8a c8                	mov    cl,al
    33ce:	b5 00                	mov    ch,0x0
    33d0:	ba 85 71             	mov    dx,0x7185
    33d3:	8a fe                	mov    bh,dh
    33d5:	8a da                	mov    bl,dl
    33d7:	43                   	inc    bx
    33d8:	9c                   	pushf  
    33d9:	87 f3                	xchg   bx,si
    33db:	87 fa                	xchg   dx,di
    33dd:	fc                   	cld    
    33de:	f3 a4                	rep movs BYTE PTR es:[di],BYTE PTR ds:[si]
    33e0:	87 f3                	xchg   bx,si
    33e2:	87 fa                	xchg   dx,di
    33e4:	9d                   	popf   
    33e5:	8a 06 86 74          	mov    al,BYTE PTR ds:0x7486
    33e9:	fe c8                	dec    al
    33eb:	88 06 86 74          	mov    BYTE PTR ds:0x7486,al
    33ef:	f8                   	clc    
    33f0:	c3                   	ret    
    33f1:	8a 06 84 74          	mov    al,BYTE PTR ds:0x7484
    33f5:	08 c0                	or     al,al
    33f7:	79 03                	jns    0x33fc
    33f9:	e8 4e cd             	call   0x14a
    33fc:	e8 df fe             	call   0x32de
    33ff:	e8 9c d0             	call   0x49e
    3402:	b0 00                	mov    al,0x0
    3404:	88 06 83 74          	mov    BYTE PTR ds:0x7483,al
    3408:	e8 0b 00             	call   0x3416
    340b:	f8                   	clc    
    340c:	8a 06 83 74          	mov    al,BYTE PTR ds:0x7483
    3410:	08 c0                	or     al,al
    3412:	79 01                	jns    0x3415
    3414:	f9                   	stc    
    3415:	c3                   	ret    
    3416:	8b 1e 87 74          	mov    bx,WORD PTR ds:0x7487
    341a:	ff e3                	jmp    bx
    341c:	e8 bd 23             	call   0x57dc
    341f:	e8 11 00             	call   0x3433
    3422:	e8 cd 23             	call   0x57f2
    3425:	e8 2b 23             	call   0x5753
    3428:	e8 a7 e5             	call   0x19d2
    342b:	3c ff                	cmp    al,0xff
    342d:	74 03                	je     0x3432
    342f:	e9 cf d0             	jmp    0x501
    3432:	c3                   	ret    
    3433:	89 26 89 74          	mov    WORD PTR ds:0x7489,sp
    3437:	bb 54 6e             	mov    bx,0x6e54
    343a:	89 5d cd             	mov    WORD PTR [di-0x33],bx
    343d:	bb 50 71             	mov    bx,0x7150
    3440:	89 5d d3             	mov    WORD PTR [di-0x2d],bx
    3443:	e8 d4 cc             	call   0x11a
    3446:	e8 b8 d0             	call   0x501
    3449:	f6 45 a2 80          	test   BYTE PTR [di-0x5e],0x80
    344d:	74 1a                	je     0x3469
    344f:	8b 1e 54 6e          	mov    bx,WORD PTR ds:0x6e54
    3453:	8a 07                	mov    al,BYTE PTR [bx]
    3455:	f6 c0 80             	test   al,0x80
    3458:	75 0d                	jne    0x3467
    345a:	8b 1e 56 6e          	mov    bx,WORD PTR ds:0x6e56
    345e:	8a 07                	mov    al,BYTE PTR [bx]
    3460:	3c ff                	cmp    al,0xff
    3462:	75 03                	jne    0x3467
    3464:	e8 c2 fc             	call   0x3129
    3467:	f8                   	clc    
    3468:	c3                   	ret    
    3469:	8b 5d cd             	mov    bx,WORD PTR [di-0x33]
    346c:	53                   	push   bx
    346d:	e8 39 00             	call   0x34a9
    3470:	5b                   	pop    bx
    3471:	8a 45 cd             	mov    al,BYTE PTR [di-0x33]
    3474:	38 d8                	cmp    al,bl
    3476:	75 03                	jne    0x347b
    3478:	e9 03 00             	jmp    0x347e
    347b:	e9 eb ff             	jmp    0x3469
    347e:	8b 5d d3             	mov    bx,WORD PTR [di-0x2d]
    3481:	8a c3                	mov    al,bl
    3483:	3c 50                	cmp    al,0x50
    3485:	74 18                	je     0x349f
    3487:	4b                   	dec    bx
    3488:	8a 07                	mov    al,BYTE PTR [bx]
    348a:	4b                   	dec    bx
    348b:	08 c0                	or     al,al
    348d:	75 0a                	jne    0x3499
    348f:	89 5d d3             	mov    WORD PTR [di-0x2d],bx
    3492:	8a 07                	mov    al,BYTE PTR [bx]
    3494:	3c fc                	cmp    al,0xfc
    3496:	75 01                	jne    0x3499
    3498:	c3                   	ret    
    3499:	e8 33 01             	call   0x35cf
    349c:	e9 df ff             	jmp    0x347e
    349f:	f8                   	clc    
    34a0:	c3                   	ret    
    34a1:	b0 03                	mov    al,0x3
    34a3:	e8 db 00             	call   0x3581
    34a6:	e9 c0 ff             	jmp    0x3469
    34a9:	e8 26 e5             	call   0x19d2
    34ac:	f6 c0 80             	test   al,0x80
    34af:	75 07                	jne    0x34b8
    34b1:	e8 75 fc             	call   0x3129
    34b4:	e8 2d 00             	call   0x34e4
    34b7:	c3                   	ret    
    34b8:	3c ff                	cmp    al,0xff
    34ba:	75 01                	jne    0x34bd
    34bc:	c3                   	ret    
    34bd:	f6 c0 40             	test   al,0x40
    34c0:	75 06                	jne    0x34c8
    34c2:	e8 28 00             	call   0x34ed
    34c5:	e9 1c 00             	jmp    0x34e4
    34c8:	24 f0                	and    al,0xf0
    34ca:	3c e0                	cmp    al,0xe0
    34cc:	75 03                	jne    0x34d1
    34ce:	e9 7a 00             	jmp    0x354b
    34d1:	24 e0                	and    al,0xe0
    34d3:	3c c0                	cmp    al,0xc0
    34d5:	75 03                	jne    0x34da
    34d7:	e9 14 01             	jmp    0x35ee
    34da:	e8 07 00             	call   0x34e4
    34dd:	8b 26 89 74          	mov    sp,WORD PTR ds:0x7489
    34e1:	e9 1d d0             	jmp    0x501
    34e4:	8b 5d cd             	mov    bx,WORD PTR [di-0x33]
    34e7:	43                   	inc    bx
    34e8:	43                   	inc    bx
    34e9:	89 5d cd             	mov    WORD PTR [di-0x33],bx
    34ec:	c3                   	ret    
    34ed:	e8 e2 e4             	call   0x19d2
    34f0:	8a 07                	mov    al,BYTE PTR [bx]
    34f2:	43                   	inc    bx
    34f3:	8a 3f                	mov    bh,BYTE PTR [bx]
    34f5:	8a d8                	mov    bl,al
    34f7:	e8 89 23             	call   0x5883
    34fa:	e8 12 d0             	call   0x50f
    34fd:	e8 4a 0e             	call   0x434a
    3500:	73 01                	jae    0x3503
    3502:	c3                   	ret    
    3503:	e8 94 0a             	call   0x3f9a
    3506:	bb 98 74             	mov    bx,0x7498
    3509:	b9 02 00             	mov    cx,0x2
    350c:	01 cb                	add    bx,cx
    350e:	8a 07                	mov    al,BYTE PTR [bx]
    3510:	08 c0                	or     al,al
    3512:	79 02                	jns    0x3516
    3514:	f9                   	stc    
    3515:	c3                   	ret    
    3516:	43                   	inc    bx
    3517:	f6 07 80             	test   BYTE PTR [bx],0x80
    351a:	74 02                	je     0x351e
    351c:	f8                   	clc    
    351d:	c3                   	ret    
    351e:	8a 07                	mov    al,BYTE PTR [bx]
    3520:	e8 85 13             	call   0x48a8
    3523:	ba e6 73             	mov    dx,0x73e6
    3526:	b1 06                	mov    cl,0x6
    3528:	b5 0c                	mov    ch,0xc
    352a:	fe c9                	dec    cl
    352c:	78 1b                	js     0x3549
    352e:	43                   	inc    bx
    352f:	fe cd                	dec    ch
    3531:	8a 07                	mov    al,BYTE PTR [bx]
    3533:	9f                   	lahf   
    3534:	86 e0                	xchg   al,ah
    3536:	50                   	push   ax
    3537:	86 e0                	xchg   al,ah
    3539:	24 7f                	and    al,0x7f
    353b:	8b ea                	mov    bp,dx
    353d:	88 46 00             	mov    BYTE PTR [bp+0x0],al
    3540:	4a                   	dec    dx
    3541:	58                   	pop    ax
    3542:	86 e0                	xchg   al,ah
    3544:	9e                   	sahf   
    3545:	08 c0                	or     al,al
    3547:	79 e1                	jns    0x352a
    3549:	f8                   	clc    
    354a:	c3                   	ret    
    354b:	e8 84 e4             	call   0x19d2
    354e:	e8 c7 04             	call   0x3a18
    3551:	9f                   	lahf   
    3552:	86 e0                	xchg   al,ah
    3554:	50                   	push   ax
    3555:	86 e0                	xchg   al,ah
    3557:	b5 00                	mov    ch,0x0
    3559:	8a c8                	mov    cl,al
    355b:	bb 03 4d             	mov    bx,0x4d03
    355e:	01 cb                	add    bx,cx
    3560:	8a 07                	mov    al,BYTE PTR [bx]
    3562:	08 c0                	or     al,al
    3564:	f6 c0 80             	test   al,0x80
    3567:	75 03                	jne    0x356c
    3569:	e8 63 00             	call   0x35cf
    356c:	58                   	pop    ax
    356d:	86 e0                	xchg   al,ah
    356f:	9e                   	sahf   
    3570:	3c 09                	cmp    al,0x9
    3572:	75 03                	jne    0x3577
    3574:	e9 35 00             	jmp    0x35ac
    3577:	3c 0a                	cmp    al,0xa
    3579:	75 03                	jne    0x357e
    357b:	e9 2e 00             	jmp    0x35ac
    357e:	e8 63 ff             	call   0x34e4
    3581:	8a c8                	mov    cl,al
    3583:	8a 45 d3             	mov    al,BYTE PTR [di-0x2d]
    3586:	3c 6e                	cmp    al,0x6e
    3588:	75 03                	jne    0x358d
    358a:	e9 50 ff             	jmp    0x34dd
    358d:	d0 e1                	shl    cl,1
    358f:	b5 00                	mov    ch,0x0
    3591:	bb 9b 4c             	mov    bx,0x4c9b
    3594:	01 cb                	add    bx,cx
    3596:	8b 55 d3             	mov    dx,WORD PTR [di-0x2d]
    3599:	b1 02                	mov    cl,0x2
    359b:	9c                   	pushf  
    359c:	87 f3                	xchg   bx,si
    359e:	87 fa                	xchg   dx,di
    35a0:	fc                   	cld    
    35a1:	f3 a4                	rep movs BYTE PTR es:[di],BYTE PTR ds:[si]
    35a3:	87 f3                	xchg   bx,si
    35a5:	87 fa                	xchg   dx,di
    35a7:	9d                   	popf   
    35a8:	89 55 d3             	mov    WORD PTR [di-0x2d],dx
    35ab:	c3                   	ret    
    35ac:	8a 45 d3             	mov    al,BYTE PTR [di-0x2d]
    35af:	3c 50                	cmp    al,0x50
    35b1:	75 01                	jne    0x35b4
    35b3:	c3                   	ret    
    35b4:	8b 5d d3             	mov    bx,WORD PTR [di-0x2d]
    35b7:	4b                   	dec    bx
    35b8:	8a 07                	mov    al,BYTE PTR [bx]
    35ba:	4b                   	dec    bx
    35bb:	08 c0                	or     al,al
    35bd:	74 03                	je     0x35c2
    35bf:	e8 78 21             	call   0x573a
    35c2:	8a 07                	mov    al,BYTE PTR [bx]
    35c4:	3c ff                	cmp    al,0xff
    35c6:	75 06                	jne    0x35ce
    35c8:	89 5d d3             	mov    WORD PTR [di-0x2d],bx
    35cb:	e8 16 ff             	call   0x34e4
    35ce:	c3                   	ret    
    35cf:	8b 5d d3             	mov    bx,WORD PTR [di-0x2d]
    35d2:	8a c3                	mov    al,bl
    35d4:	3c 50                	cmp    al,0x50
    35d6:	74 15                	je     0x35ed
    35d8:	4b                   	dec    bx
    35d9:	8a 07                	mov    al,BYTE PTR [bx]
    35db:	08 c0                	or     al,al
    35dd:	74 0e                	je     0x35ed
    35df:	4b                   	dec    bx
    35e0:	89 5d d3             	mov    WORD PTR [di-0x2d],bx
    35e3:	8a 1f                	mov    bl,BYTE PTR [bx]
    35e5:	8a f8                	mov    bh,al
    35e7:	e8 88 df             	call   0x1572
    35ea:	e9 e2 ff             	jmp    0x35cf
    35ed:	c3                   	ret    
    35ee:	e8 e1 e3             	call   0x19d2
    35f1:	e8 f0 fe             	call   0x34e4
    35f4:	24 1f                	and    al,0x1f
    35f6:	8a c8                	mov    cl,al
    35f8:	b5 00                	mov    ch,0x0
    35fa:	bb 9a 4d             	mov    bx,0x4d9a
    35fd:	01 cb 